; Listing generated by Microsoft (R) Optimizing Compiler Version 19.00.24215.1 

	TITLE	C:\Users\tony\cpp-learning\memory_barrier_intel.cpp
	.686P
	.XMM
	include listing.inc
	.model	flat

INCLUDELIB LIBCMT
INCLUDELIB OLDNAMES

PUBLIC	?ptr@@3U?$atomic@PAV?$basic_string@DU?$char_traits@D@std@@V?$allocator@D@2@@std@@@std@@A ; ptr
PUBLIC	?data@@3HA					; data
_BSS	SEGMENT
?ptr@@3U?$atomic@PAV?$basic_string@DU?$char_traits@D@std@@V?$allocator@D@2@@std@@@std@@A DD 01H DUP (?) ; ptr
?data@@3HA DD	01H DUP (?)				; data
_BSS	ENDS
CONST	SEGMENT
$SG60052 DB	'Hello', 00H
	ORG $+2
$SG60101 DB	'Hello', 00H
	ORG $+2
$SG60102 DB	'm', 00H, 'e', 00H, 'm', 00H, 'o', 00H, 'r', 00H, 'y', 00H
	DB	'_', 00H, 'b', 00H, 'a', 00H, 'r', 00H, 'r', 00H, 'i', 00H, 'e'
	DB	00H, 'r', 00H, '_', 00H, 'i', 00H, 'n', 00H, 't', 00H, 'e', 00H
	DB	'l', 00H, '.', 00H, 'c', 00H, 'p', 00H, 'p', 00H, 00H, 00H
	ORG $+2
$SG60103 DB	'*', 00H, 'p', 00H, '2', 00H, ' ', 00H, '=', 00H, '=', 00H
	DB	' ', 00H, '"', 00H, 'H', 00H, 'e', 00H, 'l', 00H, 'l', 00H, 'o'
	DB	00H, '"', 00H, 00H, 00H
	ORG $+2
$SG60104 DB	'm', 00H, 'e', 00H, 'm', 00H, 'o', 00H, 'r', 00H, 'y', 00H
	DB	'_', 00H, 'b', 00H, 'a', 00H, 'r', 00H, 'r', 00H, 'i', 00H, 'e'
	DB	00H, 'r', 00H, '_', 00H, 'i', 00H, 'n', 00H, 't', 00H, 'e', 00H
	DB	'l', 00H, '.', 00H, 'c', 00H, 'p', 00H, 'p', 00H, 00H, 00H
	ORG $+2
$SG60105 DB	'd', 00H, 'a', 00H, 't', 00H, 'a', 00H, ' ', 00H, '=', 00H
	DB	'=', 00H, ' ', 00H, '4', 00H, '2', 00H, 00H, 00H
CONST	ENDS
PUBLIC	??2@YAPAXIPAX@Z					; operator new
PUBLIC	?compare@?$char_traits@D@std@@SAHPBD0I@Z	; std::char_traits<char>::compare
PUBLIC	?length@?$char_traits@D@std@@SAIPBD@Z		; std::char_traits<char>::length
PUBLIC	?copy@?$char_traits@D@std@@SAPADPADPBDI@Z	; std::char_traits<char>::copy
PUBLIC	?move@?$char_traits@D@std@@SAPADPADPBDI@Z	; std::char_traits<char>::move
PUBLIC	?assign@?$char_traits@D@std@@SAXAADABD@Z	; std::char_traits<char>::assign
PUBLIC	?_Allocate@std@@YAPAXII_N@Z			; std::_Allocate
PUBLIC	?_Deallocate@std@@YAXPAXII@Z			; std::_Deallocate
PUBLIC	?_Check_C_return@std@@YAHH@Z			; std::_Check_C_return
PUBLIC	?_Thrd_startX@std@@YAHPAU_Thrd_imp_t@@P6GIPAX@Z1@Z ; std::_Thrd_startX
PUBLIC	?_Mtx_initX@std@@YAHPAPAU_Mtx_internal_imp_t@@H@Z ; std::_Mtx_initX
PUBLIC	?_Mtx_lockX@std@@YAHPAU_Mtx_internal_imp_t@@@Z	; std::_Mtx_lockX
PUBLIC	?_Mtx_unlockX@std@@YAHPAU_Mtx_internal_imp_t@@@Z ; std::_Mtx_unlockX
PUBLIC	?_Cnd_initX@std@@YAHPAPAU_Cnd_internal_imp_t@@@Z ; std::_Cnd_initX
PUBLIC	?_Cnd_waitX@std@@YAHPAU_Cnd_internal_imp_t@@PAU_Mtx_internal_imp_t@@@Z ; std::_Cnd_waitX
PUBLIC	?_Cnd_signalX@std@@YAHPAU_Cnd_internal_imp_t@@@Z ; std::_Cnd_signalX
PUBLIC	??0_Auto_cnd@std@@QAE@PAU_Cnd_internal_imp_t@@@Z ; std::_Auto_cnd::_Auto_cnd
PUBLIC	??1_Auto_cnd@std@@QAE@XZ			; std::_Auto_cnd::~_Auto_cnd
PUBLIC	?_Release@_Auto_cnd@std@@QAEXXZ			; std::_Auto_cnd::_Release
PUBLIC	??0_Auto_mtx@std@@QAE@PAU_Mtx_internal_imp_t@@@Z ; std::_Auto_mtx::_Auto_mtx
PUBLIC	??1_Auto_mtx@std@@QAE@XZ			; std::_Auto_mtx::~_Auto_mtx
PUBLIC	?_Release@_Auto_mtx@std@@QAEXXZ			; std::_Auto_mtx::_Release
PUBLIC	??0_Pad@std@@QAE@XZ				; std::_Pad::_Pad
PUBLIC	??1_Pad@std@@QAE@XZ				; std::_Pad::~_Pad
PUBLIC	?_Launch@_Pad@std@@QAEXPAU_Thrd_imp_t@@@Z	; std::_Pad::_Launch
PUBLIC	?_Release@_Pad@std@@QAEXXZ			; std::_Pad::_Release
PUBLIC	?_Call_func@_Pad@std@@CGIPAX@Z			; std::_Pad::_Call_func
PUBLIC	??1thread@std@@QAE@XZ				; std::thread::~thread
PUBLIC	?joinable@thread@std@@QBE_NXZ			; std::thread::joinable
PUBLIC	?join@thread@std@@QAEXXZ			; std::thread::join
PUBLIC	?get_id@thread@std@@QBE?AVid@12@XZ		; std::thread::get_id
PUBLIC	?get_id@this_thread@std@@YA?AVid@thread@2@XZ	; std::this_thread::get_id
PUBLIC	??0id@thread@std@@AAE@I@Z			; std::thread::id::id
PUBLIC	??8std@@YA_NVid@thread@0@0@Z			; std::operator==
PUBLIC	?_Store_relaxed_4@std@@YAXPCKK@Z		; std::_Store_relaxed_4
PUBLIC	?_Store_release_4@std@@YAXPCKK@Z		; std::_Store_release_4
PUBLIC	?_Store_seq_cst_4@std@@YAXPCKK@Z		; std::_Store_seq_cst_4
PUBLIC	?_Atomic_store_4@std@@YAXPCKKW4memory_order@1@@Z ; std::_Atomic_store_4
PUBLIC	?_Load_seq_cst_4@std@@YAKPCK@Z			; std::_Load_seq_cst_4
PUBLIC	?_Load_relaxed_4@std@@YAKPCK@Z			; std::_Load_relaxed_4
PUBLIC	?_Load_acquire_4@std@@YAKPCK@Z			; std::_Load_acquire_4
PUBLIC	?_Atomic_load_4@std@@YAKPCKW4memory_order@1@@Z	; std::_Atomic_load_4
PUBLIC	?store@_Atomic_address@std@@QAEXPAXW4memory_order@2@@Z ; std::_Atomic_address::store
PUBLIC	?load@_Atomic_address@std@@QBEPAXW4memory_order@2@@Z ; std::_Atomic_address::load
PUBLIC	?atomic_store_explicit@std@@YAXPAU_Atomic_address@1@PAXW4memory_order@1@@Z ; std::atomic_store_explicit
PUBLIC	?atomic_load_explicit@std@@YAPAXPBU_Atomic_address@1@W4memory_order@1@@Z ; std::atomic_load_explicit
PUBLIC	??0?$allocator@D@std@@QAE@XZ			; std::allocator<char>::allocator<char>
PUBLIC	?deallocate@?$allocator@D@std@@QAEXPADI@Z	; std::allocator<char>::deallocate
PUBLIC	?allocate@?$allocator@D@std@@QAEPADI@Z		; std::allocator<char>::allocate
PUBLIC	?max_size@?$allocator@D@std@@QBEIXZ		; std::allocator<char>::max_size
PUBLIC	?max_size@?$allocator_traits@V?$allocator@D@std@@@std@@SAIABV?$allocator@D@2@@Z ; std::allocator_traits<std::allocator<char> >::max_size
PUBLIC	??0?$_Wrap_alloc@V?$allocator@D@std@@@std@@QAE@XZ ; std::_Wrap_alloc<std::allocator<char> >::_Wrap_alloc<std::allocator<char> >
PUBLIC	?allocate@?$_Wrap_alloc@V?$allocator@D@std@@@std@@QAEPADI@Z ; std::_Wrap_alloc<std::allocator<char> >::allocate
PUBLIC	?deallocate@?$_Wrap_alloc@V?$allocator@D@std@@@std@@QAEXPADI@Z ; std::_Wrap_alloc<std::allocator<char> >::deallocate
PUBLIC	?max_size@?$_Wrap_alloc@V?$allocator@D@std@@@std@@QBEIU_Nil@2@@Z ; std::_Wrap_alloc<std::allocator<char> >::max_size
PUBLIC	??0?$_String_val@U?$_Simple_types@D@std@@@std@@QAE@XZ ; std::_String_val<std::_Simple_types<char> >::_String_val<std::_Simple_types<char> >
PUBLIC	?_Myptr@?$_String_val@U?$_Simple_types@D@std@@@std@@QAEPADXZ ; std::_String_val<std::_Simple_types<char> >::_Myptr
PUBLIC	?_Myptr@?$_String_val@U?$_Simple_types@D@std@@@std@@QBEPBDXZ ; std::_String_val<std::_Simple_types<char> >::_Myptr
PUBLIC	??0_Bxty@?$_String_val@U?$_Simple_types@D@std@@@std@@QAE@XZ ; std::_String_val<std::_Simple_types<char> >::_Bxty::_Bxty
PUBLIC	?_Myptr@?$_String_alloc@U?$_String_base_types@DV?$allocator@D@std@@@std@@@std@@QAEPADXZ ; std::_String_alloc<std::_String_base_types<char,std::allocator<char> > >::_Myptr
PUBLIC	?_Myptr@?$_String_alloc@U?$_String_base_types@DV?$allocator@D@std@@@std@@@std@@QBEPBDXZ ; std::_String_alloc<std::_String_base_types<char,std::allocator<char> > >::_Myptr
PUBLIC	??0?$_String_alloc@U?$_String_base_types@DV?$allocator@D@std@@@std@@@std@@QAE@XZ ; std::_String_alloc<std::_String_base_types<char,std::allocator<char> > >::_String_alloc<std::_String_base_types<char,std::allocator<char> > >
PUBLIC	?_Getal@?$_String_alloc@U?$_String_base_types@DV?$allocator@D@std@@@std@@@std@@QAEAAU?$_Wrap_alloc@V?$allocator@D@std@@@2@XZ ; std::_String_alloc<std::_String_base_types<char,std::allocator<char> > >::_Getal
PUBLIC	?_Getal@?$_String_alloc@U?$_String_base_types@DV?$allocator@D@std@@@std@@@std@@QBEABU?$_Wrap_alloc@V?$allocator@D@std@@@2@XZ ; std::_String_alloc<std::_String_base_types<char,std::allocator<char> > >::_Getal
PUBLIC	?_Get_data@?$_String_alloc@U?$_String_base_types@DV?$allocator@D@std@@@std@@@std@@QAEAAV?$_String_val@U?$_Simple_types@D@std@@@2@XZ ; std::_String_alloc<std::_String_base_types<char,std::allocator<char> > >::_Get_data
PUBLIC	?_Get_data@?$_String_alloc@U?$_String_base_types@DV?$allocator@D@std@@@std@@@std@@QBEABV?$_String_val@U?$_Simple_types@D@std@@@2@XZ ; std::_String_alloc<std::_String_base_types<char,std::allocator<char> > >::_Get_data
PUBLIC	?_Bx@?$_String_alloc@U?$_String_base_types@DV?$allocator@D@std@@@std@@@std@@QAEAAT_Bxty@?$_String_val@U?$_Simple_types@D@std@@@2@XZ ; std::_String_alloc<std::_String_base_types<char,std::allocator<char> > >::_Bx
PUBLIC	?_Mysize@?$_String_alloc@U?$_String_base_types@DV?$allocator@D@std@@@std@@@std@@QAEAAIXZ ; std::_String_alloc<std::_String_base_types<char,std::allocator<char> > >::_Mysize
PUBLIC	?_Mysize@?$_String_alloc@U?$_String_base_types@DV?$allocator@D@std@@@std@@@std@@QBEABIXZ ; std::_String_alloc<std::_String_base_types<char,std::allocator<char> > >::_Mysize
PUBLIC	?_Myres@?$_String_alloc@U?$_String_base_types@DV?$allocator@D@std@@@std@@@std@@QAEAAIXZ ; std::_String_alloc<std::_String_base_types<char,std::allocator<char> > >::_Myres
PUBLIC	?_Get_first@?$_Compressed_pair@U?$_Wrap_alloc@V?$allocator@D@std@@@std@@V?$_String_val@U?$_Simple_types@D@std@@@2@$00@std@@QAEAAU?$_Wrap_alloc@V?$allocator@D@std@@@2@XZ ; std::_Compressed_pair<std::_Wrap_alloc<std::allocator<char> >,std::_String_val<std::_Simple_types<char> >,1>::_Get_first
PUBLIC	?_Get_first@?$_Compressed_pair@U?$_Wrap_alloc@V?$allocator@D@std@@@std@@V?$_String_val@U?$_Simple_types@D@std@@@2@$00@std@@QBEABU?$_Wrap_alloc@V?$allocator@D@std@@@2@XZ ; std::_Compressed_pair<std::_Wrap_alloc<std::allocator<char> >,std::_String_val<std::_Simple_types<char> >,1>::_Get_first
PUBLIC	?_Get_second@?$_Compressed_pair@U?$_Wrap_alloc@V?$allocator@D@std@@@std@@V?$_String_val@U?$_Simple_types@D@std@@@2@$00@std@@QAEAAV?$_String_val@U?$_Simple_types@D@std@@@2@XZ ; std::_Compressed_pair<std::_Wrap_alloc<std::allocator<char> >,std::_String_val<std::_Simple_types<char> >,1>::_Get_second
PUBLIC	?_Get_second@?$_Compressed_pair@U?$_Wrap_alloc@V?$allocator@D@std@@@std@@V?$_String_val@U?$_Simple_types@D@std@@@2@$00@std@@QBEABV?$_String_val@U?$_Simple_types@D@std@@@2@XZ ; std::_Compressed_pair<std::_Wrap_alloc<std::allocator<char> >,std::_String_val<std::_Simple_types<char> >,1>::_Get_second
PUBLIC	??0?$basic_string@DU?$char_traits@D@std@@V?$allocator@D@2@@std@@QAE@PBD@Z ; std::basic_string<char,std::char_traits<char>,std::allocator<char> >::basic_string<char,std::char_traits<char>,std::allocator<char> >
PUBLIC	?assign@?$basic_string@DU?$char_traits@D@std@@V?$allocator@D@2@@std@@QAEAAV12@ABV12@II@Z ; std::basic_string<char,std::char_traits<char>,std::allocator<char> >::assign
PUBLIC	?assign@?$basic_string@DU?$char_traits@D@std@@V?$allocator@D@2@@std@@QAEAAV12@PBDI@Z ; std::basic_string<char,std::char_traits<char>,std::allocator<char> >::assign
PUBLIC	?assign@?$basic_string@DU?$char_traits@D@std@@V?$allocator@D@2@@std@@QAEAAV12@PBD@Z ; std::basic_string<char,std::char_traits<char>,std::allocator<char> >::assign
PUBLIC	?erase@?$basic_string@DU?$char_traits@D@std@@V?$allocator@D@2@@std@@QAEAAV12@I@Z ; std::basic_string<char,std::char_traits<char>,std::allocator<char> >::erase
PUBLIC	?erase@?$basic_string@DU?$char_traits@D@std@@V?$allocator@D@2@@std@@QAEAAV12@II@Z ; std::basic_string<char,std::char_traits<char>,std::allocator<char> >::erase
PUBLIC	?max_size@?$basic_string@DU?$char_traits@D@std@@V?$allocator@D@2@@std@@QBEIXZ ; std::basic_string<char,std::char_traits<char>,std::allocator<char> >::max_size
PUBLIC	?_Traits_compare@?$basic_string@DU?$char_traits@D@std@@V?$allocator@D@2@@std@@SAHQBDI0I@Z ; std::basic_string<char,std::char_traits<char>,std::allocator<char> >::_Traits_compare
PUBLIC	?_Clamp_suffix_size@?$basic_string@DU?$char_traits@D@std@@V?$allocator@D@2@@std@@QBEIII@Z ; std::basic_string<char,std::char_traits<char>,std::allocator<char> >::_Clamp_suffix_size
PUBLIC	?compare@?$basic_string@DU?$char_traits@D@std@@V?$allocator@D@2@@std@@QBEHPBD@Z ; std::basic_string<char,std::char_traits<char>,std::allocator<char> >::compare
PUBLIC	?_Copy@?$basic_string@DU?$char_traits@D@std@@V?$allocator@D@2@@std@@QAEXII@Z ; std::basic_string<char,std::char_traits<char>,std::allocator<char> >::_Copy
PUBLIC	?_Eos@?$basic_string@DU?$char_traits@D@std@@V?$allocator@D@2@@std@@QAEXI@Z ; std::basic_string<char,std::char_traits<char>,std::allocator<char> >::_Eos
PUBLIC	?_Grow@?$basic_string@DU?$char_traits@D@std@@V?$allocator@D@2@@std@@QAE_NI_N@Z ; std::basic_string<char,std::char_traits<char>,std::allocator<char> >::_Grow
PUBLIC	?_Inside@?$basic_string@DU?$char_traits@D@std@@V?$allocator@D@2@@std@@QAE_NPBD@Z ; std::basic_string<char,std::char_traits<char>,std::allocator<char> >::_Inside
PUBLIC	?_Tidy@?$basic_string@DU?$char_traits@D@std@@V?$allocator@D@2@@std@@QAEX_NI@Z ; std::basic_string<char,std::char_traits<char>,std::allocator<char> >::_Tidy
PUBLIC	?_Xlen@?$basic_string@DU?$char_traits@D@std@@V?$allocator@D@2@@std@@QBEXXZ ; std::basic_string<char,std::char_traits<char>,std::allocator<char> >::_Xlen
PUBLIC	?_Check_offset@?$basic_string@DU?$char_traits@D@std@@V?$allocator@D@2@@std@@QBEXI@Z ; std::basic_string<char,std::char_traits<char>,std::allocator<char> >::_Check_offset
PUBLIC	?_Xran@?$basic_string@DU?$char_traits@D@std@@V?$allocator@D@2@@std@@QBEXXZ ; std::basic_string<char,std::char_traits<char>,std::allocator<char> >::_Xran
PUBLIC	?store@?$atomic@PAV?$basic_string@DU?$char_traits@D@std@@V?$allocator@D@2@@std@@@std@@QAEXPAV?$basic_string@DU?$char_traits@D@std@@V?$allocator@D@2@@2@W4memory_order@2@@Z ; std::atomic<std::basic_string<char,std::char_traits<char>,std::allocator<char> > *>::store
PUBLIC	?load@?$atomic@PAV?$basic_string@DU?$char_traits@D@std@@V?$allocator@D@2@@std@@@std@@QBEPAV?$basic_string@DU?$char_traits@D@std@@V?$allocator@D@2@@2@W4memory_order@2@@Z ; std::atomic<std::basic_string<char,std::char_traits<char>,std::allocator<char> > *>::load
PUBLIC	?producer@@YAXXZ				; producer
PUBLIC	?consumer@@YAXXZ				; consumer
PUBLIC	??$?8DU?$char_traits@D@std@@V?$allocator@D@1@@std@@YA_NABV?$basic_string@DU?$char_traits@D@std@@V?$allocator@D@2@@0@PBD@Z ; std::operator==<char,std::char_traits<char>,std::allocator<char> >
PUBLIC	_main
PUBLIC	??$?0A6AXXZ$$VX@thread@std@@QAE@A6AXXZ@Z	; std::thread::thread<void (__cdecl&)(void),void>
PUBLIC	??$?0$$V@?$_Compressed_pair@U?$_Wrap_alloc@V?$allocator@D@std@@@std@@V?$_String_val@U?$_Simple_types@D@std@@@2@$00@std@@QAE@U_Zero_then_variadic_args_t@1@@Z ; std::_Compressed_pair<std::_Wrap_alloc<std::allocator<char> >,std::_String_val<std::_Simple_types<char> >,1>::_Compressed_pair<std::_Wrap_alloc<std::allocator<char> >,std::_String_val<std::_Simple_types<char> >,1><>
PUBLIC	??$addressof@PAD@std@@YAPAPADAAPAD@Z		; std::addressof<char *>
PUBLIC	??$destroy@PAD@?$_Wrap_alloc@V?$allocator@D@std@@@std@@QAEXPAPAD@Z ; std::_Wrap_alloc<std::allocator<char> >::destroy<char *>
PUBLIC	??$_Unfancy@D@std@@YAPADPAD@Z			; std::_Unfancy<char>
PUBLIC	??$construct@PADAAPAD@?$_Wrap_alloc@V?$allocator@D@std@@@std@@QAEXPAPADAAPAD@Z ; std::_Wrap_alloc<std::allocator<char> >::construct<char *,char * &>
PUBLIC	??$forward@A6AXXZ@std@@YAA6AXXZA6AXXZ@Z		; std::forward<void (__cdecl&)(void)>
PUBLIC	??$make_unique@V?$tuple@P6AXXZ@std@@A6AXXZ@std@@YA?AV?$unique_ptr@V?$tuple@P6AXXZ@std@@U?$default_delete@V?$tuple@P6AXXZ@std@@@2@@0@A6AXXZ@Z ; std::make_unique<std::tuple<void (__cdecl*)(void)>,void (__cdecl&)(void)>
PUBLIC	??R?$default_delete@V?$tuple@P6AXXZ@std@@@std@@QBEXPAV?$tuple@P6AXXZ@1@@Z ; std::default_delete<std::tuple<void (__cdecl*)(void)> >::operator()
PUBLIC	?get_deleter@?$_Unique_ptr_base@V?$tuple@P6AXXZ@std@@U?$default_delete@V?$tuple@P6AXXZ@std@@@2@@std@@QAEAAU?$default_delete@V?$tuple@P6AXXZ@std@@@2@XZ ; std::_Unique_ptr_base<std::tuple<void (__cdecl*)(void)>,std::default_delete<std::tuple<void (__cdecl*)(void)> > >::get_deleter
PUBLIC	?_Myptr@?$_Unique_ptr_base@V?$tuple@P6AXXZ@std@@U?$default_delete@V?$tuple@P6AXXZ@std@@@2@@std@@QAEAAPAV?$tuple@P6AXXZ@2@XZ ; std::_Unique_ptr_base<std::tuple<void (__cdecl*)(void)>,std::default_delete<std::tuple<void (__cdecl*)(void)> > >::_Myptr
PUBLIC	?_Myptr@?$_Unique_ptr_base@V?$tuple@P6AXXZ@std@@U?$default_delete@V?$tuple@P6AXXZ@std@@@2@@std@@QBEABQAV?$tuple@P6AXXZ@2@XZ ; std::_Unique_ptr_base<std::tuple<void (__cdecl*)(void)>,std::default_delete<std::tuple<void (__cdecl*)(void)> > >::_Myptr
PUBLIC	?_Get_first@?$_Compressed_pair@U?$default_delete@V?$tuple@P6AXXZ@std@@@std@@PAV?$tuple@P6AXXZ@2@$00@std@@QAEAAU?$default_delete@V?$tuple@P6AXXZ@std@@@2@XZ ; std::_Compressed_pair<std::default_delete<std::tuple<void (__cdecl*)(void)> >,std::tuple<void (__cdecl*)(void)> *,1>::_Get_first
PUBLIC	?_Get_second@?$_Compressed_pair@U?$default_delete@V?$tuple@P6AXXZ@std@@@std@@PAV?$tuple@P6AXXZ@2@$00@std@@QAEAAPAV?$tuple@P6AXXZ@2@XZ ; std::_Compressed_pair<std::default_delete<std::tuple<void (__cdecl*)(void)> >,std::tuple<void (__cdecl*)(void)> *,1>::_Get_second
PUBLIC	?_Get_second@?$_Compressed_pair@U?$default_delete@V?$tuple@P6AXXZ@std@@@std@@PAV?$tuple@P6AXXZ@2@$00@std@@QBEABQAV?$tuple@P6AXXZ@2@XZ ; std::_Compressed_pair<std::default_delete<std::tuple<void (__cdecl*)(void)> >,std::tuple<void (__cdecl*)(void)> *,1>::_Get_second
PUBLIC	??0?$unique_ptr@V?$tuple@P6AXXZ@std@@U?$default_delete@V?$tuple@P6AXXZ@std@@@2@@std@@QAE@PAV?$tuple@P6AXXZ@1@@Z ; std::unique_ptr<std::tuple<void (__cdecl*)(void)>,std::default_delete<std::tuple<void (__cdecl*)(void)> > >::unique_ptr<std::tuple<void (__cdecl*)(void)>,std::default_delete<std::tuple<void (__cdecl*)(void)> > >
PUBLIC	??0?$unique_ptr@V?$tuple@P6AXXZ@std@@U?$default_delete@V?$tuple@P6AXXZ@std@@@2@@std@@QAE@$$QAV01@@Z ; std::unique_ptr<std::tuple<void (__cdecl*)(void)>,std::default_delete<std::tuple<void (__cdecl*)(void)> > >::unique_ptr<std::tuple<void (__cdecl*)(void)>,std::default_delete<std::tuple<void (__cdecl*)(void)> > >
PUBLIC	??1?$unique_ptr@V?$tuple@P6AXXZ@std@@U?$default_delete@V?$tuple@P6AXXZ@std@@@2@@std@@QAE@XZ ; std::unique_ptr<std::tuple<void (__cdecl*)(void)>,std::default_delete<std::tuple<void (__cdecl*)(void)> > >::~unique_ptr<std::tuple<void (__cdecl*)(void)>,std::default_delete<std::tuple<void (__cdecl*)(void)> > >
PUBLIC	??D?$unique_ptr@V?$tuple@P6AXXZ@std@@U?$default_delete@V?$tuple@P6AXXZ@std@@@2@@std@@QBEAAV?$tuple@P6AXXZ@1@XZ ; std::unique_ptr<std::tuple<void (__cdecl*)(void)>,std::default_delete<std::tuple<void (__cdecl*)(void)> > >::operator*
PUBLIC	?get@?$unique_ptr@V?$tuple@P6AXXZ@std@@U?$default_delete@V?$tuple@P6AXXZ@std@@@2@@std@@QBEPAV?$tuple@P6AXXZ@2@XZ ; std::unique_ptr<std::tuple<void (__cdecl*)(void)>,std::default_delete<std::tuple<void (__cdecl*)(void)> > >::get
PUBLIC	?release@?$unique_ptr@V?$tuple@P6AXXZ@std@@U?$default_delete@V?$tuple@P6AXXZ@std@@@2@@std@@QAEPAV?$tuple@P6AXXZ@2@XZ ; std::unique_ptr<std::tuple<void (__cdecl*)(void)>,std::default_delete<std::tuple<void (__cdecl*)(void)> > >::release
PUBLIC	??$_Launch@V?$unique_ptr@V?$tuple@P6AXXZ@std@@U?$default_delete@V?$tuple@P6AXXZ@std@@@2@@std@@@std@@YAXPAU_Thrd_imp_t@@$$QAV?$unique_ptr@V?$tuple@P6AXXZ@std@@U?$default_delete@V?$tuple@P6AXXZ@std@@@2@@0@@Z ; std::_Launch<std::unique_ptr<std::tuple<void (__cdecl*)(void)>,std::default_delete<std::tuple<void (__cdecl*)(void)> > > >
PUBLIC	??$destroy@PAD@?$allocator_traits@V?$allocator@D@std@@@std@@SAXAAV?$allocator@D@1@PAPAD@Z ; std::allocator_traits<std::allocator<char> >::destroy<char *>
PUBLIC	??$forward@AAPAD@std@@YAAAPADAAPAD@Z		; std::forward<char * &>
PUBLIC	??$construct@PADAAPAD@?$allocator_traits@V?$allocator@D@std@@@std@@SAXAAV?$allocator@D@1@PAPADAAPAD@Z ; std::allocator_traits<std::allocator<char> >::construct<char *,char * &>
PUBLIC	??$?0P6AXXZ$0A@@?$tuple@P6AXXZ@std@@QAE@ABQ6AXXZ@Z ; std::tuple<void (__cdecl*)(void)>::tuple<void (__cdecl*)(void)><void (__cdecl*)(void),0>
PUBLIC	??$forward@V?$unique_ptr@V?$tuple@P6AXXZ@std@@U?$default_delete@V?$tuple@P6AXXZ@std@@@2@@std@@@std@@YA$$QAV?$unique_ptr@V?$tuple@P6AXXZ@std@@U?$default_delete@V?$tuple@P6AXXZ@std@@@2@@0@AAV10@@Z ; std::forward<std::unique_ptr<std::tuple<void (__cdecl*)(void)>,std::default_delete<std::tuple<void (__cdecl*)(void)> > > >
PUBLIC	?_Go@?$_LaunchPad@V?$unique_ptr@V?$tuple@P6AXXZ@std@@U?$default_delete@V?$tuple@P6AXXZ@std@@@2@@std@@@std@@UAEXXZ ; std::_LaunchPad<std::unique_ptr<std::tuple<void (__cdecl*)(void)>,std::default_delete<std::tuple<void (__cdecl*)(void)> > > >::_Go
PUBLIC	?_Run@?$_LaunchPad@V?$unique_ptr@V?$tuple@P6AXXZ@std@@U?$default_delete@V?$tuple@P6AXXZ@std@@@2@@std@@@std@@CAXPAV12@@Z ; std::_LaunchPad<std::unique_ptr<std::tuple<void (__cdecl*)(void)>,std::default_delete<std::tuple<void (__cdecl*)(void)> > > >::_Run
PUBLIC	??1?$_LaunchPad@V?$unique_ptr@V?$tuple@P6AXXZ@std@@U?$default_delete@V?$tuple@P6AXXZ@std@@@2@@std@@@std@@QAE@XZ ; std::_LaunchPad<std::unique_ptr<std::tuple<void (__cdecl*)(void)>,std::default_delete<std::tuple<void (__cdecl*)(void)> > > >::~_LaunchPad<std::unique_ptr<std::tuple<void (__cdecl*)(void)>,std::default_delete<std::tuple<void (__cdecl*)(void)> > > >
PUBLIC	??$?0V?$unique_ptr@V?$tuple@P6AXXZ@std@@U?$default_delete@V?$tuple@P6AXXZ@std@@@2@@std@@@?$_LaunchPad@V?$unique_ptr@V?$tuple@P6AXXZ@std@@U?$default_delete@V?$tuple@P6AXXZ@std@@@2@@std@@@std@@QAE@$$QAV?$unique_ptr@V?$tuple@P6AXXZ@std@@U?$default_delete@V?$tuple@P6AXXZ@std@@@2@@1@@Z ; std::_LaunchPad<std::unique_ptr<std::tuple<void (__cdecl*)(void)>,std::default_delete<std::tuple<void (__cdecl*)(void)> > > >::_LaunchPad<std::unique_ptr<std::tuple<void (__cdecl*)(void)>,std::default_delete<std::tuple<void (__cdecl*)(void)> > > ><std::unique_ptr<std::tuple<void (__cdecl*)(void)>,std::default_delete<std::tuple<void (__cdecl*)(void)> > > >
PUBLIC	??$destroy@PAD@?$allocator@D@std@@QAEXPAPAD@Z	; std::allocator<char>::destroy<char *>
PUBLIC	??$construct@PADAAPAD@?$allocator@D@std@@QAEXPAPADAAPAD@Z ; std::allocator<char>::construct<char *,char * &>
PUBLIC	??$?0PAV?$tuple@P6AXXZ@std@@@?$_Unique_ptr_base@V?$tuple@P6AXXZ@std@@U?$default_delete@V?$tuple@P6AXXZ@std@@@2@@std@@QAE@PAV?$tuple@P6AXXZ@1@@Z ; std::_Unique_ptr_base<std::tuple<void (__cdecl*)(void)>,std::default_delete<std::tuple<void (__cdecl*)(void)> > >::_Unique_ptr_base<std::tuple<void (__cdecl*)(void)>,std::default_delete<std::tuple<void (__cdecl*)(void)> > ><std::tuple<void (__cdecl*)(void)> *>
PUBLIC	??$_Execute@$0A@@?$_LaunchPad@V?$unique_ptr@V?$tuple@P6AXXZ@std@@U?$default_delete@V?$tuple@P6AXXZ@std@@@2@@std@@@std@@CAXAAV?$tuple@P6AXXZ@1@U?$integer_sequence@I$0A@@1@@Z ; std::_LaunchPad<std::unique_ptr<std::tuple<void (__cdecl*)(void)>,std::default_delete<std::tuple<void (__cdecl*)(void)> > > >::_Execute<0>
PUBLIC	??$forward@U?$default_delete@V?$tuple@P6AXXZ@std@@@std@@@std@@YA$$QAU?$default_delete@V?$tuple@P6AXXZ@std@@@0@AAU10@@Z ; std::forward<std::default_delete<std::tuple<void (__cdecl*)(void)> > >
PUBLIC	??$?0PAV?$tuple@P6AXXZ@std@@U?$default_delete@V?$tuple@P6AXXZ@std@@@1@@?$_Unique_ptr_base@V?$tuple@P6AXXZ@std@@U?$default_delete@V?$tuple@P6AXXZ@std@@@2@@std@@QAE@PAV?$tuple@P6AXXZ@1@$$QAU?$default_delete@V?$tuple@P6AXXZ@std@@@1@@Z ; std::_Unique_ptr_base<std::tuple<void (__cdecl*)(void)>,std::default_delete<std::tuple<void (__cdecl*)(void)> > >::_Unique_ptr_base<std::tuple<void (__cdecl*)(void)>,std::default_delete<std::tuple<void (__cdecl*)(void)> > ><std::tuple<void (__cdecl*)(void)> *,std::default_delete<std::tuple<void (__cdecl*)(void)> > >
PUBLIC	??$?0U_Exact_args_t@std@@$0A@@?$tuple@$$V@std@@QAE@U_Exact_args_t@1@@Z ; std::tuple<>::tuple<><std::_Exact_args_t,0>
PUBLIC	??$?0ABQ6AXXZ@?$_Tuple_val@P6AXXZ@std@@QAE@ABQ6AXXZ@Z ; std::_Tuple_val<void (__cdecl*)(void)>::_Tuple_val<void (__cdecl*)(void)><void (__cdecl*const &)(void)>
PUBLIC	??$?0AAPAV?$tuple@P6AXXZ@std@@@?$_Compressed_pair@U?$default_delete@V?$tuple@P6AXXZ@std@@@std@@PAV?$tuple@P6AXXZ@2@$00@std@@QAE@U_Zero_then_variadic_args_t@1@AAPAV?$tuple@P6AXXZ@1@@Z ; std::_Compressed_pair<std::default_delete<std::tuple<void (__cdecl*)(void)> >,std::tuple<void (__cdecl*)(void)> *,1>::_Compressed_pair<std::default_delete<std::tuple<void (__cdecl*)(void)> >,std::tuple<void (__cdecl*)(void)> *,1><std::tuple<void (__cdecl*)(void)> * &>
PUBLIC	??$get@$0A@P6AXXZ@std@@YAAAP6AXXZAAV?$tuple@P6AXXZ@0@@Z ; std::get<0,void (__cdecl*)(void)>
PUBLIC	??$move@AAP6AXXZ@std@@YA$$QAP6AXXZAAP6AXXZ@Z	; std::move<void (__cdecl*&)(void)>
PUBLIC	??$forward@P6AXXZ@std@@YA$$QAP6AXXZAAP6AXXZ@Z	; std::forward<void (__cdecl*)(void)>
PUBLIC	??$_Call@P6AXXZ$$V@_Invoker_functor@std@@SAX$$QAP6AXXZ@Z ; std::_Invoker_functor::_Call<void (__cdecl*)(void)>
PUBLIC	??$invoke@P6AXXZ$$V@std@@YAX$$QAP6AXXZ@Z	; std::invoke<void (__cdecl*)(void)>
PUBLIC	??$?0U?$default_delete@V?$tuple@P6AXXZ@std@@@std@@AAPAV?$tuple@P6AXXZ@1@@?$_Compressed_pair@U?$default_delete@V?$tuple@P6AXXZ@std@@@std@@PAV?$tuple@P6AXXZ@2@$00@std@@QAE@U_One_then_variadic_args_t@1@$$QAU?$default_delete@V?$tuple@P6AXXZ@std@@@1@AAPAV?$tuple@P6AXXZ@1@@Z ; std::_Compressed_pair<std::default_delete<std::tuple<void (__cdecl*)(void)> >,std::tuple<void (__cdecl*)(void)> *,1>::_Compressed_pair<std::default_delete<std::tuple<void (__cdecl*)(void)> >,std::tuple<void (__cdecl*)(void)> *,1><std::default_delete<std::tuple<void (__cdecl*)(void)> >,std::tuple<void (__cdecl*)(void)> * &>
PUBLIC	??$forward@ABQ6AXXZ@std@@YAABQ6AXXZABQ6AXXZ@Z	; std::forward<void (__cdecl*const &)(void)>
PUBLIC	??$forward@AAPAV?$tuple@P6AXXZ@std@@@std@@YAAAPAV?$tuple@P6AXXZ@0@AAPAV10@@Z ; std::forward<std::tuple<void (__cdecl*)(void)> * &>
PUBLIC	??_7_Pad@std@@6B@				; std::_Pad::`vftable'
PUBLIC	??_C@_0BA@JFNIOLAK@string?5too?5long?$AA@	; `string'
PUBLIC	??_C@_0BI@CFPLBAOH@invalid?5string?5position?$AA@ ; `string'
PUBLIC	??_7?$_LaunchPad@V?$unique_ptr@V?$tuple@P6AXXZ@std@@U?$default_delete@V?$tuple@P6AXXZ@std@@@2@@std@@@std@@6B@ ; std::_LaunchPad<std::unique_ptr<std::tuple<void (__cdecl*)(void)>,std::default_delete<std::tuple<void (__cdecl*)(void)> > > >::`vftable'
PUBLIC	??_R4_Pad@std@@6B@				; std::_Pad::`RTTI Complete Object Locator'
PUBLIC	??_R0?AV_Pad@std@@@8				; std::_Pad `RTTI Type Descriptor'
PUBLIC	??_R3_Pad@std@@8				; std::_Pad::`RTTI Class Hierarchy Descriptor'
PUBLIC	??_R2_Pad@std@@8				; std::_Pad::`RTTI Base Class Array'
PUBLIC	??_R1A@?0A@EA@_Pad@std@@8			; std::_Pad::`RTTI Base Class Descriptor at (0,-1,0,64)'
PUBLIC	??_R4?$_LaunchPad@V?$unique_ptr@V?$tuple@P6AXXZ@std@@U?$default_delete@V?$tuple@P6AXXZ@std@@@2@@std@@@std@@6B@ ; std::_LaunchPad<std::unique_ptr<std::tuple<void (__cdecl*)(void)>,std::default_delete<std::tuple<void (__cdecl*)(void)> > > >::`RTTI Complete Object Locator'
PUBLIC	??_R0?AV?$_LaunchPad@V?$unique_ptr@V?$tuple@P6AXXZ@std@@U?$default_delete@V?$tuple@P6AXXZ@std@@@2@@std@@@std@@@8 ; std::_LaunchPad<std::unique_ptr<std::tuple<void (__cdecl*)(void)>,std::default_delete<std::tuple<void (__cdecl*)(void)> > > > `RTTI Type Descriptor'
PUBLIC	??_R3?$_LaunchPad@V?$unique_ptr@V?$tuple@P6AXXZ@std@@U?$default_delete@V?$tuple@P6AXXZ@std@@@2@@std@@@std@@8 ; std::_LaunchPad<std::unique_ptr<std::tuple<void (__cdecl*)(void)>,std::default_delete<std::tuple<void (__cdecl*)(void)> > > >::`RTTI Class Hierarchy Descriptor'
PUBLIC	??_R2?$_LaunchPad@V?$unique_ptr@V?$tuple@P6AXXZ@std@@U?$default_delete@V?$tuple@P6AXXZ@std@@@2@@std@@@std@@8 ; std::_LaunchPad<std::unique_ptr<std::tuple<void (__cdecl*)(void)>,std::default_delete<std::tuple<void (__cdecl*)(void)> > > >::`RTTI Base Class Array'
PUBLIC	??_R1A@?0A@EA@?$_LaunchPad@V?$unique_ptr@V?$tuple@P6AXXZ@std@@U?$default_delete@V?$tuple@P6AXXZ@std@@@2@@std@@@std@@8 ; std::_LaunchPad<std::unique_ptr<std::tuple<void (__cdecl*)(void)>,std::default_delete<std::tuple<void (__cdecl*)(void)> > > >::`RTTI Base Class Descriptor at (0,-1,0,64)'
EXTRN	__purecall:PROC
EXTRN	??2@YAPAXI@Z:PROC				; operator new
EXTRN	??3@YAXPAX@Z:PROC				; operator delete
EXTRN	??3@YAXPAXI@Z:PROC				; operator delete
EXTRN	__invalid_parameter_noinfo_noreturn:PROC
EXTRN	_terminate:PROC
EXTRN	_memcmp:PROC
EXTRN	_memcpy:PROC
EXTRN	_memmove:PROC
EXTRN	_strlen:PROC
EXTRN	?_Xbad_alloc@std@@YAXXZ:PROC			; std::_Xbad_alloc
EXTRN	?_Xlength_error@std@@YAXPBD@Z:PROC		; std::_Xlength_error
EXTRN	?_Xout_of_range@std@@YAXPBD@Z:PROC		; std::_Xout_of_range
EXTRN	__Thrd_start:PROC
EXTRN	__Thrd_join:PROC
EXTRN	__Thrd_id:PROC
EXTRN	__Mtx_init:PROC
EXTRN	__Mtx_destroy:PROC
EXTRN	__Mtx_lock:PROC
EXTRN	__Mtx_unlock:PROC
EXTRN	__Cnd_init:PROC
EXTRN	__Cnd_destroy:PROC
EXTRN	__Cnd_wait:PROC
EXTRN	__Cnd_signal:PROC
EXTRN	__Cnd_do_broadcast_at_thread_exit:PROC
EXTRN	?_Throw_C_error@std@@YAXH@Z:PROC		; std::_Throw_C_error
EXTRN	?_Throw_Cpp_error@std@@YAXH@Z:PROC		; std::_Throw_Cpp_error
EXTRN	__wassert:PROC
EXTRN	@__security_check_cookie@4:PROC
EXTRN	__CxxThrowException@8:PROC
EXTRN	___CxxFrameHandler3:PROC
EXTRN	??_7type_info@@6B@:QWORD			; type_info::`vftable'
EXTRN	___security_cookie:DWORD
;	COMDAT ??_R1A@?0A@EA@?$_LaunchPad@V?$unique_ptr@V?$tuple@P6AXXZ@std@@U?$default_delete@V?$tuple@P6AXXZ@std@@@2@@std@@@std@@8
rdata$r	SEGMENT
??_R1A@?0A@EA@?$_LaunchPad@V?$unique_ptr@V?$tuple@P6AXXZ@std@@U?$default_delete@V?$tuple@P6AXXZ@std@@@2@@std@@@std@@8 DD FLAT:??_R0?AV?$_LaunchPad@V?$unique_ptr@V?$tuple@P6AXXZ@std@@U?$default_delete@V?$tuple@P6AXXZ@std@@@2@@std@@@std@@@8 ; std::_LaunchPad<std::unique_ptr<std::tuple<void (__cdecl*)(void)>,std::default_delete<std::tuple<void (__cdecl*)(void)> > > >::`RTTI Base Class Descriptor at (0,-1,0,64)'
	DD	01H
	DD	00H
	DD	0ffffffffH
	DD	00H
	DD	040H
	DD	FLAT:??_R3?$_LaunchPad@V?$unique_ptr@V?$tuple@P6AXXZ@std@@U?$default_delete@V?$tuple@P6AXXZ@std@@@2@@std@@@std@@8
rdata$r	ENDS
;	COMDAT ??_R2?$_LaunchPad@V?$unique_ptr@V?$tuple@P6AXXZ@std@@U?$default_delete@V?$tuple@P6AXXZ@std@@@2@@std@@@std@@8
rdata$r	SEGMENT
??_R2?$_LaunchPad@V?$unique_ptr@V?$tuple@P6AXXZ@std@@U?$default_delete@V?$tuple@P6AXXZ@std@@@2@@std@@@std@@8 DD FLAT:??_R1A@?0A@EA@?$_LaunchPad@V?$unique_ptr@V?$tuple@P6AXXZ@std@@U?$default_delete@V?$tuple@P6AXXZ@std@@@2@@std@@@std@@8 ; std::_LaunchPad<std::unique_ptr<std::tuple<void (__cdecl*)(void)>,std::default_delete<std::tuple<void (__cdecl*)(void)> > > >::`RTTI Base Class Array'
	DD	FLAT:??_R1A@?0A@EA@_Pad@std@@8
rdata$r	ENDS
;	COMDAT ??_R3?$_LaunchPad@V?$unique_ptr@V?$tuple@P6AXXZ@std@@U?$default_delete@V?$tuple@P6AXXZ@std@@@2@@std@@@std@@8
rdata$r	SEGMENT
??_R3?$_LaunchPad@V?$unique_ptr@V?$tuple@P6AXXZ@std@@U?$default_delete@V?$tuple@P6AXXZ@std@@@2@@std@@@std@@8 DD 00H ; std::_LaunchPad<std::unique_ptr<std::tuple<void (__cdecl*)(void)>,std::default_delete<std::tuple<void (__cdecl*)(void)> > > >::`RTTI Class Hierarchy Descriptor'
	DD	00H
	DD	02H
	DD	FLAT:??_R2?$_LaunchPad@V?$unique_ptr@V?$tuple@P6AXXZ@std@@U?$default_delete@V?$tuple@P6AXXZ@std@@@2@@std@@@std@@8
rdata$r	ENDS
;	COMDAT ??_R0?AV?$_LaunchPad@V?$unique_ptr@V?$tuple@P6AXXZ@std@@U?$default_delete@V?$tuple@P6AXXZ@std@@@2@@std@@@std@@@8
data$r	SEGMENT
??_R0?AV?$_LaunchPad@V?$unique_ptr@V?$tuple@P6AXXZ@std@@U?$default_delete@V?$tuple@P6AXXZ@std@@@2@@std@@@std@@@8 DD FLAT:??_7type_info@@6B@ ; std::_LaunchPad<std::unique_ptr<std::tuple<void (__cdecl*)(void)>,std::default_delete<std::tuple<void (__cdecl*)(void)> > > > `RTTI Type Descriptor'
	DD	00H
	DB	'.?AV?$_LaunchPad@V?$unique_ptr@V?$tuple@P6AXXZ@std@@U?$d'
	DB	'efault_delete@V?$tuple@P6AXXZ@std@@@2@@std@@@std@@', 00H
data$r	ENDS
;	COMDAT ??_R4?$_LaunchPad@V?$unique_ptr@V?$tuple@P6AXXZ@std@@U?$default_delete@V?$tuple@P6AXXZ@std@@@2@@std@@@std@@6B@
rdata$r	SEGMENT
??_R4?$_LaunchPad@V?$unique_ptr@V?$tuple@P6AXXZ@std@@U?$default_delete@V?$tuple@P6AXXZ@std@@@2@@std@@@std@@6B@ DD 00H ; std::_LaunchPad<std::unique_ptr<std::tuple<void (__cdecl*)(void)>,std::default_delete<std::tuple<void (__cdecl*)(void)> > > >::`RTTI Complete Object Locator'
	DD	00H
	DD	00H
	DD	FLAT:??_R0?AV?$_LaunchPad@V?$unique_ptr@V?$tuple@P6AXXZ@std@@U?$default_delete@V?$tuple@P6AXXZ@std@@@2@@std@@@std@@@8
	DD	FLAT:??_R3?$_LaunchPad@V?$unique_ptr@V?$tuple@P6AXXZ@std@@U?$default_delete@V?$tuple@P6AXXZ@std@@@2@@std@@@std@@8
rdata$r	ENDS
;	COMDAT ??_R1A@?0A@EA@_Pad@std@@8
rdata$r	SEGMENT
??_R1A@?0A@EA@_Pad@std@@8 DD FLAT:??_R0?AV_Pad@std@@@8	; std::_Pad::`RTTI Base Class Descriptor at (0,-1,0,64)'
	DD	00H
	DD	00H
	DD	0ffffffffH
	DD	00H
	DD	040H
	DD	FLAT:??_R3_Pad@std@@8
rdata$r	ENDS
;	COMDAT ??_R2_Pad@std@@8
rdata$r	SEGMENT
??_R2_Pad@std@@8 DD FLAT:??_R1A@?0A@EA@_Pad@std@@8	; std::_Pad::`RTTI Base Class Array'
rdata$r	ENDS
;	COMDAT ??_R3_Pad@std@@8
rdata$r	SEGMENT
??_R3_Pad@std@@8 DD 00H					; std::_Pad::`RTTI Class Hierarchy Descriptor'
	DD	00H
	DD	01H
	DD	FLAT:??_R2_Pad@std@@8
rdata$r	ENDS
;	COMDAT ??_R0?AV_Pad@std@@@8
data$r	SEGMENT
??_R0?AV_Pad@std@@@8 DD FLAT:??_7type_info@@6B@		; std::_Pad `RTTI Type Descriptor'
	DD	00H
	DB	'.?AV_Pad@std@@', 00H
data$r	ENDS
;	COMDAT ??_R4_Pad@std@@6B@
rdata$r	SEGMENT
??_R4_Pad@std@@6B@ DD 00H				; std::_Pad::`RTTI Complete Object Locator'
	DD	00H
	DD	00H
	DD	FLAT:??_R0?AV_Pad@std@@@8
	DD	FLAT:??_R3_Pad@std@@8
rdata$r	ENDS
;	COMDAT ??_7?$_LaunchPad@V?$unique_ptr@V?$tuple@P6AXXZ@std@@U?$default_delete@V?$tuple@P6AXXZ@std@@@2@@std@@@std@@6B@
CONST	SEGMENT
??_7?$_LaunchPad@V?$unique_ptr@V?$tuple@P6AXXZ@std@@U?$default_delete@V?$tuple@P6AXXZ@std@@@2@@std@@@std@@6B@ DD FLAT:??_R4?$_LaunchPad@V?$unique_ptr@V?$tuple@P6AXXZ@std@@U?$default_delete@V?$tuple@P6AXXZ@std@@@2@@std@@@std@@6B@ ; std::_LaunchPad<std::unique_ptr<std::tuple<void (__cdecl*)(void)>,std::default_delete<std::tuple<void (__cdecl*)(void)> > > >::`vftable'
	DD	FLAT:?_Go@?$_LaunchPad@V?$unique_ptr@V?$tuple@P6AXXZ@std@@U?$default_delete@V?$tuple@P6AXXZ@std@@@2@@std@@@std@@UAEXXZ
CONST	ENDS
;	COMDAT ??_C@_0BI@CFPLBAOH@invalid?5string?5position?$AA@
CONST	SEGMENT
??_C@_0BI@CFPLBAOH@invalid?5string?5position?$AA@ DB 'invalid string posi'
	DB	'tion', 00H					; `string'
CONST	ENDS
;	COMDAT ??_C@_0BA@JFNIOLAK@string?5too?5long?$AA@
CONST	SEGMENT
??_C@_0BA@JFNIOLAK@string?5too?5long?$AA@ DB 'string too long', 00H ; `string'
CONST	ENDS
;	COMDAT ??_7_Pad@std@@6B@
CONST	SEGMENT
??_7_Pad@std@@6B@ DD FLAT:??_R4_Pad@std@@6B@		; std::_Pad::`vftable'
	DD	FLAT:__purecall
CONST	ENDS
;	COMDAT xdata$x
xdata$x	SEGMENT
__catchsym$?_Copy@?$basic_string@DU?$char_traits@D@std@@V?$allocator@D@2@@std@@QAEXII@Z$5 DD 00H
	DD	00H
	DD	00H
	DD	FLAT:__catch$?_Copy@?$basic_string@DU?$char_traits@D@std@@V?$allocator@D@2@@std@@QAEXII@Z$0
__catchsym$?_Copy@?$basic_string@DU?$char_traits@D@std@@V?$allocator@D@2@@std@@QAEXII@Z$4 DD 00H
	DD	00H
	DD	00H
	DD	FLAT:__catch$?_Copy@?$basic_string@DU?$char_traits@D@std@@V?$allocator@D@2@@std@@QAEXII@Z$1
__unwindtable$?_Copy@?$basic_string@DU?$char_traits@D@std@@V?$allocator@D@2@@std@@QAEXII@Z DD 0ffffffffH
	DD	00H
	DD	0ffffffffH
	DD	00H
	DD	01H
	DD	00H
	DD	01H
	DD	00H
__ehfuncinfo$?_Copy@?$basic_string@DU?$char_traits@D@std@@V?$allocator@D@2@@std@@QAEXII@Z DD 019930522H
	DD	04H
	DD	FLAT:__unwindtable$?_Copy@?$basic_string@DU?$char_traits@D@std@@V?$allocator@D@2@@std@@QAEXII@Z
	DD	02H
	DD	FLAT:__tryblocktable$?_Copy@?$basic_string@DU?$char_traits@D@std@@V?$allocator@D@2@@std@@QAEXII@Z
	DD	2 DUP(00H)
	DD	00H
	DD	00H
__tryblocktable$?_Copy@?$basic_string@DU?$char_traits@D@std@@V?$allocator@D@2@@std@@QAEXII@Z DD 02H
	DD	02H
	DD	03H
	DD	01H
	DD	FLAT:__catchsym$?_Copy@?$basic_string@DU?$char_traits@D@std@@V?$allocator@D@2@@std@@QAEXII@Z$4
	DD	00H
	DD	00H
	DD	03H
	DD	01H
	DD	FLAT:__catchsym$?_Copy@?$basic_string@DU?$char_traits@D@std@@V?$allocator@D@2@@std@@QAEXII@Z$5
xdata$x	ENDS
; Function compile flags: /Odtp
;	COMDAT ??$forward@AAPAV?$tuple@P6AXXZ@std@@@std@@YAAAPAV?$tuple@P6AXXZ@0@AAPAV10@@Z
_TEXT	SEGMENT
__Arg$ = 8						; size = 4
??$forward@AAPAV?$tuple@P6AXXZ@std@@@std@@YAAAPAV?$tuple@P6AXXZ@0@AAPAV10@@Z PROC ; std::forward<std::tuple<void (__cdecl*)(void)> * &>, COMDAT
; File c:\program files (x86)\microsoft visual studio 14.0\vc\include\type_traits
; Line 1275
	push	ebp
	mov	ebp, esp
; Line 1276
	mov	eax, DWORD PTR __Arg$[ebp]
; Line 1277
	pop	ebp
	ret	0
??$forward@AAPAV?$tuple@P6AXXZ@std@@@std@@YAAAPAV?$tuple@P6AXXZ@0@AAPAV10@@Z ENDP ; std::forward<std::tuple<void (__cdecl*)(void)> * &>
_TEXT	ENDS
; Function compile flags: /Odtp
;	COMDAT ??$forward@ABQ6AXXZ@std@@YAABQ6AXXZABQ6AXXZ@Z
_TEXT	SEGMENT
__Arg$ = 8						; size = 4
??$forward@ABQ6AXXZ@std@@YAABQ6AXXZABQ6AXXZ@Z PROC	; std::forward<void (__cdecl*const &)(void)>, COMDAT
; File c:\program files (x86)\microsoft visual studio 14.0\vc\include\type_traits
; Line 1275
	push	ebp
	mov	ebp, esp
; Line 1276
	mov	eax, DWORD PTR __Arg$[ebp]
; Line 1277
	pop	ebp
	ret	0
??$forward@ABQ6AXXZ@std@@YAABQ6AXXZABQ6AXXZ@Z ENDP	; std::forward<void (__cdecl*const &)(void)>
_TEXT	ENDS
; Function compile flags: /Odtp
;	COMDAT ??$?0U?$default_delete@V?$tuple@P6AXXZ@std@@@std@@AAPAV?$tuple@P6AXXZ@1@@?$_Compressed_pair@U?$default_delete@V?$tuple@P6AXXZ@std@@@std@@PAV?$tuple@P6AXXZ@2@$00@std@@QAE@U_One_then_variadic_args_t@1@$$QAU?$default_delete@V?$tuple@P6AXXZ@std@@@1@AAPAV?$tuple@P6AXXZ@1@@Z
_TEXT	SEGMENT
_this$ = -4						; size = 4
___formal$ = 8						; size = 1
__Val1$ = 12						; size = 4
_<_Val2_0>$ = 16					; size = 4
??$?0U?$default_delete@V?$tuple@P6AXXZ@std@@@std@@AAPAV?$tuple@P6AXXZ@1@@?$_Compressed_pair@U?$default_delete@V?$tuple@P6AXXZ@std@@@std@@PAV?$tuple@P6AXXZ@2@$00@std@@QAE@U_One_then_variadic_args_t@1@$$QAU?$default_delete@V?$tuple@P6AXXZ@std@@@1@AAPAV?$tuple@P6AXXZ@1@@Z PROC ; std::_Compressed_pair<std::default_delete<std::tuple<void (__cdecl*)(void)> >,std::tuple<void (__cdecl*)(void)> *,1>::_Compressed_pair<std::default_delete<std::tuple<void (__cdecl*)(void)> >,std::tuple<void (__cdecl*)(void)> *,1><std::default_delete<std::tuple<void (__cdecl*)(void)> >,std::tuple<void (__cdecl*)(void)> * &>, COMDAT
; _this$ = ecx
; File c:\program files (x86)\microsoft visual studio 14.0\vc\include\xutility
; Line 289
	push	ebp
	mov	ebp, esp
	push	ecx
	mov	DWORD PTR _this$[ebp], ecx
; Line 287
	mov	eax, DWORD PTR __Val1$[ebp]
	push	eax
	call	??$forward@U?$default_delete@V?$tuple@P6AXXZ@std@@@std@@@std@@YA$$QAU?$default_delete@V?$tuple@P6AXXZ@std@@@0@AAU10@@Z ; std::forward<std::default_delete<std::tuple<void (__cdecl*)(void)> > >
	add	esp, 4
; Line 288
	mov	ecx, DWORD PTR _<_Val2_0>$[ebp]
	push	ecx
	call	??$forward@AAPAV?$tuple@P6AXXZ@std@@@std@@YAAAPAV?$tuple@P6AXXZ@0@AAPAV10@@Z ; std::forward<std::tuple<void (__cdecl*)(void)> * &>
	add	esp, 4
	mov	edx, DWORD PTR _this$[ebp]
	mov	eax, DWORD PTR [eax]
	mov	DWORD PTR [edx], eax
; Line 290
	mov	eax, DWORD PTR _this$[ebp]
	mov	esp, ebp
	pop	ebp
	ret	12					; 0000000cH
??$?0U?$default_delete@V?$tuple@P6AXXZ@std@@@std@@AAPAV?$tuple@P6AXXZ@1@@?$_Compressed_pair@U?$default_delete@V?$tuple@P6AXXZ@std@@@std@@PAV?$tuple@P6AXXZ@2@$00@std@@QAE@U_One_then_variadic_args_t@1@$$QAU?$default_delete@V?$tuple@P6AXXZ@std@@@1@AAPAV?$tuple@P6AXXZ@1@@Z ENDP ; std::_Compressed_pair<std::default_delete<std::tuple<void (__cdecl*)(void)> >,std::tuple<void (__cdecl*)(void)> *,1>::_Compressed_pair<std::default_delete<std::tuple<void (__cdecl*)(void)> >,std::tuple<void (__cdecl*)(void)> *,1><std::default_delete<std::tuple<void (__cdecl*)(void)> >,std::tuple<void (__cdecl*)(void)> * &>
_TEXT	ENDS
; Function compile flags: /Odtp
;	COMDAT ??$invoke@P6AXXZ$$V@std@@YAX$$QAP6AXXZ@Z
_TEXT	SEGMENT
__Obj$ = 8						; size = 4
??$invoke@P6AXXZ$$V@std@@YAX$$QAP6AXXZ@Z PROC		; std::invoke<void (__cdecl*)(void)>, COMDAT
; File c:\program files (x86)\microsoft visual studio 14.0\vc\include\type_traits
; Line 1442
	push	ebp
	mov	ebp, esp
; Line 1443
	mov	eax, DWORD PTR __Obj$[ebp]
	push	eax
	call	??$forward@P6AXXZ@std@@YA$$QAP6AXXZAAP6AXXZ@Z ; std::forward<void (__cdecl*)(void)>
	add	esp, 4
	push	eax
	call	??$_Call@P6AXXZ$$V@_Invoker_functor@std@@SAX$$QAP6AXXZ@Z ; std::_Invoker_functor::_Call<void (__cdecl*)(void)>
	add	esp, 4
; Line 1445
	pop	ebp
	ret	0
??$invoke@P6AXXZ$$V@std@@YAX$$QAP6AXXZ@Z ENDP		; std::invoke<void (__cdecl*)(void)>
_TEXT	ENDS
; Function compile flags: /Odtp
;	COMDAT ??$_Call@P6AXXZ$$V@_Invoker_functor@std@@SAX$$QAP6AXXZ@Z
_TEXT	SEGMENT
__Obj$ = 8						; size = 4
??$_Call@P6AXXZ$$V@_Invoker_functor@std@@SAX$$QAP6AXXZ@Z PROC ; std::_Invoker_functor::_Call<void (__cdecl*)(void)>, COMDAT
; File c:\program files (x86)\microsoft visual studio 14.0\vc\include\type_traits
; Line 1374
	push	ebp
	mov	ebp, esp
; Line 1375
	mov	eax, DWORD PTR __Obj$[ebp]
	push	eax
	call	??$forward@P6AXXZ@std@@YA$$QAP6AXXZAAP6AXXZ@Z ; std::forward<void (__cdecl*)(void)>
	add	esp, 4
	mov	ecx, DWORD PTR [eax]
	call	ecx
; Line 1377
	pop	ebp
	ret	0
??$_Call@P6AXXZ$$V@_Invoker_functor@std@@SAX$$QAP6AXXZ@Z ENDP ; std::_Invoker_functor::_Call<void (__cdecl*)(void)>
_TEXT	ENDS
; Function compile flags: /Odtp
;	COMDAT ??$forward@P6AXXZ@std@@YA$$QAP6AXXZAAP6AXXZ@Z
_TEXT	SEGMENT
__Arg$ = 8						; size = 4
??$forward@P6AXXZ@std@@YA$$QAP6AXXZAAP6AXXZ@Z PROC	; std::forward<void (__cdecl*)(void)>, COMDAT
; File c:\program files (x86)\microsoft visual studio 14.0\vc\include\type_traits
; Line 1275
	push	ebp
	mov	ebp, esp
; Line 1276
	mov	eax, DWORD PTR __Arg$[ebp]
; Line 1277
	pop	ebp
	ret	0
??$forward@P6AXXZ@std@@YA$$QAP6AXXZAAP6AXXZ@Z ENDP	; std::forward<void (__cdecl*)(void)>
_TEXT	ENDS
; Function compile flags: /Odtp
;	COMDAT ??$move@AAP6AXXZ@std@@YA$$QAP6AXXZAAP6AXXZ@Z
_TEXT	SEGMENT
__Arg$ = 8						; size = 4
??$move@AAP6AXXZ@std@@YA$$QAP6AXXZAAP6AXXZ@Z PROC	; std::move<void (__cdecl*&)(void)>, COMDAT
; File c:\program files (x86)\microsoft visual studio 14.0\vc\include\type_traits
; Line 1291
	push	ebp
	mov	ebp, esp
; Line 1292
	mov	eax, DWORD PTR __Arg$[ebp]
; Line 1293
	pop	ebp
	ret	0
??$move@AAP6AXXZ@std@@YA$$QAP6AXXZAAP6AXXZ@Z ENDP	; std::move<void (__cdecl*&)(void)>
_TEXT	ENDS
; Function compile flags: /Odtp
;	COMDAT ??$get@$0A@P6AXXZ@std@@YAAAP6AXXZAAV?$tuple@P6AXXZ@0@@Z
_TEXT	SEGMENT
__Tuple$ = 8						; size = 4
??$get@$0A@P6AXXZ@std@@YAAAP6AXXZAAV?$tuple@P6AXXZ@0@@Z PROC ; std::get<0,void (__cdecl*)(void)>, COMDAT
; File c:\program files (x86)\microsoft visual studio 14.0\vc\include\tuple
; Line 883
	push	ebp
	mov	ebp, esp
; Line 886
	mov	eax, DWORD PTR __Tuple$[ebp]
; Line 887
	pop	ebp
	ret	0
??$get@$0A@P6AXXZ@std@@YAAAP6AXXZAAV?$tuple@P6AXXZ@0@@Z ENDP ; std::get<0,void (__cdecl*)(void)>
_TEXT	ENDS
; Function compile flags: /Odtp
;	COMDAT ??$?0AAPAV?$tuple@P6AXXZ@std@@@?$_Compressed_pair@U?$default_delete@V?$tuple@P6AXXZ@std@@@std@@PAV?$tuple@P6AXXZ@2@$00@std@@QAE@U_Zero_then_variadic_args_t@1@AAPAV?$tuple@P6AXXZ@1@@Z
_TEXT	SEGMENT
_this$ = -4						; size = 4
___formal$ = 8						; size = 1
_<_Val2_0>$ = 12					; size = 4
??$?0AAPAV?$tuple@P6AXXZ@std@@@?$_Compressed_pair@U?$default_delete@V?$tuple@P6AXXZ@std@@@std@@PAV?$tuple@P6AXXZ@2@$00@std@@QAE@U_Zero_then_variadic_args_t@1@AAPAV?$tuple@P6AXXZ@1@@Z PROC ; std::_Compressed_pair<std::default_delete<std::tuple<void (__cdecl*)(void)> >,std::tuple<void (__cdecl*)(void)> *,1>::_Compressed_pair<std::default_delete<std::tuple<void (__cdecl*)(void)> >,std::tuple<void (__cdecl*)(void)> *,1><std::tuple<void (__cdecl*)(void)> * &>, COMDAT
; _this$ = ecx
; File c:\program files (x86)\microsoft visual studio 14.0\vc\include\xutility
; Line 280
	push	ebp
	mov	ebp, esp
	push	ecx
	mov	DWORD PTR _this$[ebp], ecx
; Line 279
	mov	eax, DWORD PTR _<_Val2_0>$[ebp]
	push	eax
	call	??$forward@AAPAV?$tuple@P6AXXZ@std@@@std@@YAAAPAV?$tuple@P6AXXZ@0@AAPAV10@@Z ; std::forward<std::tuple<void (__cdecl*)(void)> * &>
	add	esp, 4
	mov	ecx, DWORD PTR _this$[ebp]
	mov	edx, DWORD PTR [eax]
	mov	DWORD PTR [ecx], edx
; Line 281
	mov	eax, DWORD PTR _this$[ebp]
	mov	esp, ebp
	pop	ebp
	ret	8
??$?0AAPAV?$tuple@P6AXXZ@std@@@?$_Compressed_pair@U?$default_delete@V?$tuple@P6AXXZ@std@@@std@@PAV?$tuple@P6AXXZ@2@$00@std@@QAE@U_Zero_then_variadic_args_t@1@AAPAV?$tuple@P6AXXZ@1@@Z ENDP ; std::_Compressed_pair<std::default_delete<std::tuple<void (__cdecl*)(void)> >,std::tuple<void (__cdecl*)(void)> *,1>::_Compressed_pair<std::default_delete<std::tuple<void (__cdecl*)(void)> >,std::tuple<void (__cdecl*)(void)> *,1><std::tuple<void (__cdecl*)(void)> * &>
_TEXT	ENDS
; Function compile flags: /Odtp
;	COMDAT ??$?0ABQ6AXXZ@?$_Tuple_val@P6AXXZ@std@@QAE@ABQ6AXXZ@Z
_TEXT	SEGMENT
_this$ = -4						; size = 4
__Arg$ = 8						; size = 4
??$?0ABQ6AXXZ@?$_Tuple_val@P6AXXZ@std@@QAE@ABQ6AXXZ@Z PROC ; std::_Tuple_val<void (__cdecl*)(void)>::_Tuple_val<void (__cdecl*)(void)><void (__cdecl*const &)(void)>, COMDAT
; _this$ = ecx
; File c:\program files (x86)\microsoft visual studio 14.0\vc\include\tuple
; Line 164
	push	ebp
	mov	ebp, esp
	push	ecx
	mov	DWORD PTR _this$[ebp], ecx
; Line 163
	mov	eax, DWORD PTR __Arg$[ebp]
	push	eax
	call	??$forward@ABQ6AXXZ@std@@YAABQ6AXXZABQ6AXXZ@Z ; std::forward<void (__cdecl*const &)(void)>
	add	esp, 4
	mov	ecx, DWORD PTR _this$[ebp]
	mov	edx, DWORD PTR [eax]
	mov	DWORD PTR [ecx], edx
; Line 165
	mov	eax, DWORD PTR _this$[ebp]
	mov	esp, ebp
	pop	ebp
	ret	4
??$?0ABQ6AXXZ@?$_Tuple_val@P6AXXZ@std@@QAE@ABQ6AXXZ@Z ENDP ; std::_Tuple_val<void (__cdecl*)(void)>::_Tuple_val<void (__cdecl*)(void)><void (__cdecl*const &)(void)>
_TEXT	ENDS
; Function compile flags: /Odtp
;	COMDAT ??$?0U_Exact_args_t@std@@$0A@@?$tuple@$$V@std@@QAE@U_Exact_args_t@1@@Z
_TEXT	SEGMENT
_this$ = -4						; size = 4
___formal$ = 8						; size = 1
??$?0U_Exact_args_t@std@@$0A@@?$tuple@$$V@std@@QAE@U_Exact_args_t@1@@Z PROC ; std::tuple<>::tuple<><std::_Exact_args_t,0>, COMDAT
; _this$ = ecx
; File c:\program files (x86)\microsoft visual studio 14.0\vc\include\tuple
; Line 255
	push	ebp
	mov	ebp, esp
	push	ecx
	mov	DWORD PTR _this$[ebp], ecx
; Line 256
	mov	eax, DWORD PTR _this$[ebp]
	mov	esp, ebp
	pop	ebp
	ret	4
??$?0U_Exact_args_t@std@@$0A@@?$tuple@$$V@std@@QAE@U_Exact_args_t@1@@Z ENDP ; std::tuple<>::tuple<><std::_Exact_args_t,0>
_TEXT	ENDS
; Function compile flags: /Odtp
;	COMDAT ??$?0PAV?$tuple@P6AXXZ@std@@U?$default_delete@V?$tuple@P6AXXZ@std@@@1@@?$_Unique_ptr_base@V?$tuple@P6AXXZ@std@@U?$default_delete@V?$tuple@P6AXXZ@std@@@2@@std@@QAE@PAV?$tuple@P6AXXZ@1@$$QAU?$default_delete@V?$tuple@P6AXXZ@std@@@1@@Z
_TEXT	SEGMENT
_this$ = -8						; size = 4
$T1 = -1						; size = 1
__Ptr$ = 8						; size = 4
__Dt$ = 12						; size = 4
??$?0PAV?$tuple@P6AXXZ@std@@U?$default_delete@V?$tuple@P6AXXZ@std@@@1@@?$_Unique_ptr_base@V?$tuple@P6AXXZ@std@@U?$default_delete@V?$tuple@P6AXXZ@std@@@2@@std@@QAE@PAV?$tuple@P6AXXZ@1@$$QAU?$default_delete@V?$tuple@P6AXXZ@std@@@1@@Z PROC ; std::_Unique_ptr_base<std::tuple<void (__cdecl*)(void)>,std::default_delete<std::tuple<void (__cdecl*)(void)> > >::_Unique_ptr_base<std::tuple<void (__cdecl*)(void)>,std::default_delete<std::tuple<void (__cdecl*)(void)> > ><std::tuple<void (__cdecl*)(void)> *,std::default_delete<std::tuple<void (__cdecl*)(void)> > >, COMDAT
; _this$ = ecx
; File c:\program files (x86)\microsoft visual studio 14.0\vc\include\memory
; Line 1242
	push	ebp
	mov	ebp, esp
	sub	esp, 8
	mov	DWORD PTR _this$[ebp], ecx
; Line 1241
	lea	eax, DWORD PTR __Ptr$[ebp]
	push	eax
	mov	ecx, DWORD PTR __Dt$[ebp]
	push	ecx
	call	??$forward@U?$default_delete@V?$tuple@P6AXXZ@std@@@std@@@std@@YA$$QAU?$default_delete@V?$tuple@P6AXXZ@std@@@0@AAU10@@Z ; std::forward<std::default_delete<std::tuple<void (__cdecl*)(void)> > >
	add	esp, 4
	push	eax
	movzx	edx, BYTE PTR $T1[ebp]
	push	edx
	mov	ecx, DWORD PTR _this$[ebp]
	call	??$?0U?$default_delete@V?$tuple@P6AXXZ@std@@@std@@AAPAV?$tuple@P6AXXZ@1@@?$_Compressed_pair@U?$default_delete@V?$tuple@P6AXXZ@std@@@std@@PAV?$tuple@P6AXXZ@2@$00@std@@QAE@U_One_then_variadic_args_t@1@$$QAU?$default_delete@V?$tuple@P6AXXZ@std@@@1@AAPAV?$tuple@P6AXXZ@1@@Z ; std::_Compressed_pair<std::default_delete<std::tuple<void (__cdecl*)(void)> >,std::tuple<void (__cdecl*)(void)> *,1>::_Compressed_pair<std::default_delete<std::tuple<void (__cdecl*)(void)> >,std::tuple<void (__cdecl*)(void)> *,1><std::default_delete<std::tuple<void (__cdecl*)(void)> >,std::tuple<void (__cdecl*)(void)> * &>
; Line 1243
	mov	eax, DWORD PTR _this$[ebp]
	mov	esp, ebp
	pop	ebp
	ret	8
??$?0PAV?$tuple@P6AXXZ@std@@U?$default_delete@V?$tuple@P6AXXZ@std@@@1@@?$_Unique_ptr_base@V?$tuple@P6AXXZ@std@@U?$default_delete@V?$tuple@P6AXXZ@std@@@2@@std@@QAE@PAV?$tuple@P6AXXZ@1@$$QAU?$default_delete@V?$tuple@P6AXXZ@std@@@1@@Z ENDP ; std::_Unique_ptr_base<std::tuple<void (__cdecl*)(void)>,std::default_delete<std::tuple<void (__cdecl*)(void)> > >::_Unique_ptr_base<std::tuple<void (__cdecl*)(void)>,std::default_delete<std::tuple<void (__cdecl*)(void)> > ><std::tuple<void (__cdecl*)(void)> *,std::default_delete<std::tuple<void (__cdecl*)(void)> > >
_TEXT	ENDS
; Function compile flags: /Odtp
;	COMDAT ??$forward@U?$default_delete@V?$tuple@P6AXXZ@std@@@std@@@std@@YA$$QAU?$default_delete@V?$tuple@P6AXXZ@std@@@0@AAU10@@Z
_TEXT	SEGMENT
__Arg$ = 8						; size = 4
??$forward@U?$default_delete@V?$tuple@P6AXXZ@std@@@std@@@std@@YA$$QAU?$default_delete@V?$tuple@P6AXXZ@std@@@0@AAU10@@Z PROC ; std::forward<std::default_delete<std::tuple<void (__cdecl*)(void)> > >, COMDAT
; File c:\program files (x86)\microsoft visual studio 14.0\vc\include\type_traits
; Line 1275
	push	ebp
	mov	ebp, esp
; Line 1276
	mov	eax, DWORD PTR __Arg$[ebp]
; Line 1277
	pop	ebp
	ret	0
??$forward@U?$default_delete@V?$tuple@P6AXXZ@std@@@std@@@std@@YA$$QAU?$default_delete@V?$tuple@P6AXXZ@std@@@0@AAU10@@Z ENDP ; std::forward<std::default_delete<std::tuple<void (__cdecl*)(void)> > >
_TEXT	ENDS
; Function compile flags: /Odtp
;	COMDAT ??$_Execute@$0A@@?$_LaunchPad@V?$unique_ptr@V?$tuple@P6AXXZ@std@@U?$default_delete@V?$tuple@P6AXXZ@std@@@2@@std@@@std@@CAXAAV?$tuple@P6AXXZ@1@U?$integer_sequence@I$0A@@1@@Z
_TEXT	SEGMENT
__Tup$ = 8						; size = 4
___formal$ = 12						; size = 1
??$_Execute@$0A@@?$_LaunchPad@V?$unique_ptr@V?$tuple@P6AXXZ@std@@U?$default_delete@V?$tuple@P6AXXZ@std@@@2@@std@@@std@@CAXAAV?$tuple@P6AXXZ@1@U?$integer_sequence@I$0A@@1@@Z PROC ; std::_LaunchPad<std::unique_ptr<std::tuple<void (__cdecl*)(void)>,std::default_delete<std::tuple<void (__cdecl*)(void)> > > >::_Execute<0>, COMDAT
; File c:\program files (x86)\microsoft visual studio 14.0\vc\include\thr\xthread
; Line 239
	push	ebp
	mov	ebp, esp
; Line 240
	mov	eax, DWORD PTR __Tup$[ebp]
	push	eax
	call	??$get@$0A@P6AXXZ@std@@YAAAP6AXXZAAV?$tuple@P6AXXZ@0@@Z ; std::get<0,void (__cdecl*)(void)>
	add	esp, 4
	push	eax
	call	??$move@AAP6AXXZ@std@@YA$$QAP6AXXZAAP6AXXZ@Z ; std::move<void (__cdecl*&)(void)>
	add	esp, 4
	push	eax
	call	??$invoke@P6AXXZ$$V@std@@YAX$$QAP6AXXZ@Z ; std::invoke<void (__cdecl*)(void)>
	add	esp, 4
; Line 241
	pop	ebp
	ret	0
??$_Execute@$0A@@?$_LaunchPad@V?$unique_ptr@V?$tuple@P6AXXZ@std@@U?$default_delete@V?$tuple@P6AXXZ@std@@@2@@std@@@std@@CAXAAV?$tuple@P6AXXZ@1@U?$integer_sequence@I$0A@@1@@Z ENDP ; std::_LaunchPad<std::unique_ptr<std::tuple<void (__cdecl*)(void)>,std::default_delete<std::tuple<void (__cdecl*)(void)> > > >::_Execute<0>
_TEXT	ENDS
; Function compile flags: /Odtp
;	COMDAT ??$?0PAV?$tuple@P6AXXZ@std@@@?$_Unique_ptr_base@V?$tuple@P6AXXZ@std@@U?$default_delete@V?$tuple@P6AXXZ@std@@@2@@std@@QAE@PAV?$tuple@P6AXXZ@1@@Z
_TEXT	SEGMENT
_this$ = -8						; size = 4
$T1 = -1						; size = 1
__Ptr$ = 8						; size = 4
??$?0PAV?$tuple@P6AXXZ@std@@@?$_Unique_ptr_base@V?$tuple@P6AXXZ@std@@U?$default_delete@V?$tuple@P6AXXZ@std@@@2@@std@@QAE@PAV?$tuple@P6AXXZ@1@@Z PROC ; std::_Unique_ptr_base<std::tuple<void (__cdecl*)(void)>,std::default_delete<std::tuple<void (__cdecl*)(void)> > >::_Unique_ptr_base<std::tuple<void (__cdecl*)(void)>,std::default_delete<std::tuple<void (__cdecl*)(void)> > ><std::tuple<void (__cdecl*)(void)> *>, COMDAT
; _this$ = ecx
; File c:\program files (x86)\microsoft visual studio 14.0\vc\include\memory
; Line 1248
	push	ebp
	mov	ebp, esp
	sub	esp, 8
	mov	DWORD PTR _this$[ebp], ecx
; Line 1247
	lea	eax, DWORD PTR __Ptr$[ebp]
	push	eax
	movzx	ecx, BYTE PTR $T1[ebp]
	push	ecx
	mov	ecx, DWORD PTR _this$[ebp]
	call	??$?0AAPAV?$tuple@P6AXXZ@std@@@?$_Compressed_pair@U?$default_delete@V?$tuple@P6AXXZ@std@@@std@@PAV?$tuple@P6AXXZ@2@$00@std@@QAE@U_Zero_then_variadic_args_t@1@AAPAV?$tuple@P6AXXZ@1@@Z ; std::_Compressed_pair<std::default_delete<std::tuple<void (__cdecl*)(void)> >,std::tuple<void (__cdecl*)(void)> *,1>::_Compressed_pair<std::default_delete<std::tuple<void (__cdecl*)(void)> >,std::tuple<void (__cdecl*)(void)> *,1><std::tuple<void (__cdecl*)(void)> * &>
; Line 1249
	mov	eax, DWORD PTR _this$[ebp]
	mov	esp, ebp
	pop	ebp
	ret	4
??$?0PAV?$tuple@P6AXXZ@std@@@?$_Unique_ptr_base@V?$tuple@P6AXXZ@std@@U?$default_delete@V?$tuple@P6AXXZ@std@@@2@@std@@QAE@PAV?$tuple@P6AXXZ@1@@Z ENDP ; std::_Unique_ptr_base<std::tuple<void (__cdecl*)(void)>,std::default_delete<std::tuple<void (__cdecl*)(void)> > >::_Unique_ptr_base<std::tuple<void (__cdecl*)(void)>,std::default_delete<std::tuple<void (__cdecl*)(void)> > ><std::tuple<void (__cdecl*)(void)> *>
_TEXT	ENDS
; Function compile flags: /Odtp
;	COMDAT ??$construct@PADAAPAD@?$allocator@D@std@@QAEXPAPADAAPAD@Z
_TEXT	SEGMENT
_this$ = -12						; size = 4
tv73 = -8						; size = 4
$T1 = -4						; size = 4
__Ptr$ = 8						; size = 4
_<_Args_0>$ = 12					; size = 4
??$construct@PADAAPAD@?$allocator@D@std@@QAEXPAPADAAPAD@Z PROC ; std::allocator<char>::construct<char *,char * &>, COMDAT
; _this$ = ecx
; File c:\program files (x86)\microsoft visual studio 14.0\vc\include\xmemory0
; Line 736
	push	ebp
	mov	ebp, esp
	sub	esp, 12					; 0000000cH
	mov	DWORD PTR _this$[ebp], ecx
; Line 737
	mov	eax, DWORD PTR __Ptr$[ebp]
	push	eax
	push	4
	call	??2@YAPAXIPAX@Z				; operator new
	add	esp, 8
	mov	DWORD PTR $T1[ebp], eax
	cmp	DWORD PTR $T1[ebp], 0
	je	SHORT $LN3@construct
	mov	ecx, DWORD PTR _<_Args_0>$[ebp]
	push	ecx
	call	??$forward@AAPAD@std@@YAAAPADAAPAD@Z	; std::forward<char * &>
	add	esp, 4
	mov	edx, DWORD PTR $T1[ebp]
	mov	eax, DWORD PTR [eax]
	mov	DWORD PTR [edx], eax
	mov	ecx, DWORD PTR $T1[ebp]
	mov	DWORD PTR tv73[ebp], ecx
	jmp	SHORT $LN1@construct
$LN3@construct:
	mov	DWORD PTR tv73[ebp], 0
$LN1@construct:
; Line 738
	mov	esp, ebp
	pop	ebp
	ret	8
??$construct@PADAAPAD@?$allocator@D@std@@QAEXPAPADAAPAD@Z ENDP ; std::allocator<char>::construct<char *,char * &>
_TEXT	ENDS
; Function compile flags: /Odtp
;	COMDAT ??$destroy@PAD@?$allocator@D@std@@QAEXPAPAD@Z
_TEXT	SEGMENT
_this$ = -4						; size = 4
__Ptr$ = 8						; size = 4
??$destroy@PAD@?$allocator@D@std@@QAEXPAPAD@Z PROC	; std::allocator<char>::destroy<char *>, COMDAT
; _this$ = ecx
; File c:\program files (x86)\microsoft visual studio 14.0\vc\include\xmemory0
; Line 743
	push	ebp
	mov	ebp, esp
	push	ecx
	mov	DWORD PTR _this$[ebp], ecx
; Line 745
	mov	esp, ebp
	pop	ebp
	ret	4
??$destroy@PAD@?$allocator@D@std@@QAEXPAPAD@Z ENDP	; std::allocator<char>::destroy<char *>
_TEXT	ENDS
; Function compile flags: /Odtp
;	COMDAT ??$?0V?$unique_ptr@V?$tuple@P6AXXZ@std@@U?$default_delete@V?$tuple@P6AXXZ@std@@@2@@std@@@?$_LaunchPad@V?$unique_ptr@V?$tuple@P6AXXZ@std@@U?$default_delete@V?$tuple@P6AXXZ@std@@@2@@std@@@std@@QAE@$$QAV?$unique_ptr@V?$tuple@P6AXXZ@std@@U?$default_delete@V?$tuple@P6AXXZ@std@@@2@@1@@Z
_TEXT	SEGMENT
_this$ = -4						; size = 4
__Tgt$ = 8						; size = 4
??$?0V?$unique_ptr@V?$tuple@P6AXXZ@std@@U?$default_delete@V?$tuple@P6AXXZ@std@@@2@@std@@@?$_LaunchPad@V?$unique_ptr@V?$tuple@P6AXXZ@std@@U?$default_delete@V?$tuple@P6AXXZ@std@@@2@@std@@@std@@QAE@$$QAV?$unique_ptr@V?$tuple@P6AXXZ@std@@U?$default_delete@V?$tuple@P6AXXZ@std@@@2@@1@@Z PROC ; std::_LaunchPad<std::unique_ptr<std::tuple<void (__cdecl*)(void)>,std::default_delete<std::tuple<void (__cdecl*)(void)> > > >::_LaunchPad<std::unique_ptr<std::tuple<void (__cdecl*)(void)>,std::default_delete<std::tuple<void (__cdecl*)(void)> > > ><std::unique_ptr<std::tuple<void (__cdecl*)(void)>,std::default_delete<std::tuple<void (__cdecl*)(void)> > > >, COMDAT
; _this$ = ecx
; File c:\program files (x86)\microsoft visual studio 14.0\vc\include\thr\xthread
; Line 227
	push	ebp
	mov	ebp, esp
	push	ecx
	mov	DWORD PTR _this$[ebp], ecx
	mov	ecx, DWORD PTR _this$[ebp]
	call	??0_Pad@std@@QAE@XZ			; std::_Pad::_Pad
	mov	eax, DWORD PTR _this$[ebp]
	mov	DWORD PTR [eax], OFFSET ??_7?$_LaunchPad@V?$unique_ptr@V?$tuple@P6AXXZ@std@@U?$default_delete@V?$tuple@P6AXXZ@std@@@2@@std@@@std@@6B@
; Line 226
	mov	ecx, DWORD PTR __Tgt$[ebp]
	push	ecx
	call	??$forward@V?$unique_ptr@V?$tuple@P6AXXZ@std@@U?$default_delete@V?$tuple@P6AXXZ@std@@@2@@std@@@std@@YA$$QAV?$unique_ptr@V?$tuple@P6AXXZ@std@@U?$default_delete@V?$tuple@P6AXXZ@std@@@2@@0@AAV10@@Z ; std::forward<std::unique_ptr<std::tuple<void (__cdecl*)(void)>,std::default_delete<std::tuple<void (__cdecl*)(void)> > > >
	add	esp, 4
	push	eax
	mov	ecx, DWORD PTR _this$[ebp]
	add	ecx, 16					; 00000010H
	call	??0?$unique_ptr@V?$tuple@P6AXXZ@std@@U?$default_delete@V?$tuple@P6AXXZ@std@@@2@@std@@QAE@$$QAV01@@Z ; std::unique_ptr<std::tuple<void (__cdecl*)(void)>,std::default_delete<std::tuple<void (__cdecl*)(void)> > >::unique_ptr<std::tuple<void (__cdecl*)(void)>,std::default_delete<std::tuple<void (__cdecl*)(void)> > >
; Line 228
	mov	eax, DWORD PTR _this$[ebp]
	mov	esp, ebp
	pop	ebp
	ret	4
??$?0V?$unique_ptr@V?$tuple@P6AXXZ@std@@U?$default_delete@V?$tuple@P6AXXZ@std@@@2@@std@@@?$_LaunchPad@V?$unique_ptr@V?$tuple@P6AXXZ@std@@U?$default_delete@V?$tuple@P6AXXZ@std@@@2@@std@@@std@@QAE@$$QAV?$unique_ptr@V?$tuple@P6AXXZ@std@@U?$default_delete@V?$tuple@P6AXXZ@std@@@2@@1@@Z ENDP ; std::_LaunchPad<std::unique_ptr<std::tuple<void (__cdecl*)(void)>,std::default_delete<std::tuple<void (__cdecl*)(void)> > > >::_LaunchPad<std::unique_ptr<std::tuple<void (__cdecl*)(void)>,std::default_delete<std::tuple<void (__cdecl*)(void)> > > ><std::unique_ptr<std::tuple<void (__cdecl*)(void)>,std::default_delete<std::tuple<void (__cdecl*)(void)> > > >
_TEXT	ENDS
; Function compile flags: /Odtp
;	COMDAT ??1?$_LaunchPad@V?$unique_ptr@V?$tuple@P6AXXZ@std@@U?$default_delete@V?$tuple@P6AXXZ@std@@@2@@std@@@std@@QAE@XZ
_TEXT	SEGMENT
_this$ = -4						; size = 4
??1?$_LaunchPad@V?$unique_ptr@V?$tuple@P6AXXZ@std@@U?$default_delete@V?$tuple@P6AXXZ@std@@@2@@std@@@std@@QAE@XZ PROC ; std::_LaunchPad<std::unique_ptr<std::tuple<void (__cdecl*)(void)>,std::default_delete<std::tuple<void (__cdecl*)(void)> > > >::~_LaunchPad<std::unique_ptr<std::tuple<void (__cdecl*)(void)>,std::default_delete<std::tuple<void (__cdecl*)(void)> > > >, COMDAT
; _this$ = ecx
	push	ebp
	mov	ebp, esp
	push	ecx
	mov	DWORD PTR _this$[ebp], ecx
	mov	ecx, DWORD PTR _this$[ebp]
	add	ecx, 16					; 00000010H
	call	??1?$unique_ptr@V?$tuple@P6AXXZ@std@@U?$default_delete@V?$tuple@P6AXXZ@std@@@2@@std@@QAE@XZ ; std::unique_ptr<std::tuple<void (__cdecl*)(void)>,std::default_delete<std::tuple<void (__cdecl*)(void)> > >::~unique_ptr<std::tuple<void (__cdecl*)(void)>,std::default_delete<std::tuple<void (__cdecl*)(void)> > >
	mov	ecx, DWORD PTR _this$[ebp]
	call	??1_Pad@std@@QAE@XZ			; std::_Pad::~_Pad
	mov	esp, ebp
	pop	ebp
	ret	0
??1?$_LaunchPad@V?$unique_ptr@V?$tuple@P6AXXZ@std@@U?$default_delete@V?$tuple@P6AXXZ@std@@@2@@std@@@std@@QAE@XZ ENDP ; std::_LaunchPad<std::unique_ptr<std::tuple<void (__cdecl*)(void)>,std::default_delete<std::tuple<void (__cdecl*)(void)> > > >::~_LaunchPad<std::unique_ptr<std::tuple<void (__cdecl*)(void)>,std::default_delete<std::tuple<void (__cdecl*)(void)> > > >
_TEXT	ENDS
; Function compile flags: /Odtp
;	COMDAT ?_Run@?$_LaunchPad@V?$unique_ptr@V?$tuple@P6AXXZ@std@@U?$default_delete@V?$tuple@P6AXXZ@std@@@2@@std@@@std@@CAXPAV12@@Z
_TEXT	SEGMENT
__Local$ = -8						; size = 4
$T1 = -1						; size = 1
__Ln$ = 8						; size = 4
?_Run@?$_LaunchPad@V?$unique_ptr@V?$tuple@P6AXXZ@std@@U?$default_delete@V?$tuple@P6AXXZ@std@@@2@@std@@@std@@CAXPAV12@@Z PROC ; std::_LaunchPad<std::unique_ptr<std::tuple<void (__cdecl*)(void)>,std::default_delete<std::tuple<void (__cdecl*)(void)> > > >::_Run, COMDAT
; File c:\program files (x86)\microsoft visual studio 14.0\vc\include\thr\xthread
; Line 244
	push	ebp
	mov	ebp, esp
	sub	esp, 8
; Line 245
	mov	eax, DWORD PTR __Ln$[ebp]
	add	eax, 16					; 00000010H
	push	eax
	call	??$forward@V?$unique_ptr@V?$tuple@P6AXXZ@std@@U?$default_delete@V?$tuple@P6AXXZ@std@@@2@@std@@@std@@YA$$QAV?$unique_ptr@V?$tuple@P6AXXZ@std@@U?$default_delete@V?$tuple@P6AXXZ@std@@@2@@0@AAV10@@Z ; std::forward<std::unique_ptr<std::tuple<void (__cdecl*)(void)>,std::default_delete<std::tuple<void (__cdecl*)(void)> > > >
	add	esp, 4
	push	eax
	lea	ecx, DWORD PTR __Local$[ebp]
	call	??0?$unique_ptr@V?$tuple@P6AXXZ@std@@U?$default_delete@V?$tuple@P6AXXZ@std@@@2@@std@@QAE@$$QAV01@@Z ; std::unique_ptr<std::tuple<void (__cdecl*)(void)>,std::default_delete<std::tuple<void (__cdecl*)(void)> > >::unique_ptr<std::tuple<void (__cdecl*)(void)>,std::default_delete<std::tuple<void (__cdecl*)(void)> > >
; Line 246
	mov	ecx, DWORD PTR __Ln$[ebp]
	call	?_Release@_Pad@std@@QAEXXZ		; std::_Pad::_Release
; Line 247
	movzx	ecx, BYTE PTR $T1[ebp]
	push	ecx
	lea	ecx, DWORD PTR __Local$[ebp]
	call	??D?$unique_ptr@V?$tuple@P6AXXZ@std@@U?$default_delete@V?$tuple@P6AXXZ@std@@@2@@std@@QBEAAV?$tuple@P6AXXZ@1@XZ ; std::unique_ptr<std::tuple<void (__cdecl*)(void)>,std::default_delete<std::tuple<void (__cdecl*)(void)> > >::operator*
	push	eax
	call	??$_Execute@$0A@@?$_LaunchPad@V?$unique_ptr@V?$tuple@P6AXXZ@std@@U?$default_delete@V?$tuple@P6AXXZ@std@@@2@@std@@@std@@CAXAAV?$tuple@P6AXXZ@1@U?$integer_sequence@I$0A@@1@@Z ; std::_LaunchPad<std::unique_ptr<std::tuple<void (__cdecl*)(void)>,std::default_delete<std::tuple<void (__cdecl*)(void)> > > >::_Execute<0>
	add	esp, 8
; Line 250
	lea	ecx, DWORD PTR __Local$[ebp]
	call	??1?$unique_ptr@V?$tuple@P6AXXZ@std@@U?$default_delete@V?$tuple@P6AXXZ@std@@@2@@std@@QAE@XZ ; std::unique_ptr<std::tuple<void (__cdecl*)(void)>,std::default_delete<std::tuple<void (__cdecl*)(void)> > >::~unique_ptr<std::tuple<void (__cdecl*)(void)>,std::default_delete<std::tuple<void (__cdecl*)(void)> > >
	mov	esp, ebp
	pop	ebp
	ret	0
?_Run@?$_LaunchPad@V?$unique_ptr@V?$tuple@P6AXXZ@std@@U?$default_delete@V?$tuple@P6AXXZ@std@@@2@@std@@@std@@CAXPAV12@@Z ENDP ; std::_LaunchPad<std::unique_ptr<std::tuple<void (__cdecl*)(void)>,std::default_delete<std::tuple<void (__cdecl*)(void)> > > >::_Run
_TEXT	ENDS
; Function compile flags: /Odtp
;	COMDAT ?_Go@?$_LaunchPad@V?$unique_ptr@V?$tuple@P6AXXZ@std@@U?$default_delete@V?$tuple@P6AXXZ@std@@@2@@std@@@std@@UAEXXZ
_TEXT	SEGMENT
_this$ = -4						; size = 4
?_Go@?$_LaunchPad@V?$unique_ptr@V?$tuple@P6AXXZ@std@@U?$default_delete@V?$tuple@P6AXXZ@std@@@2@@std@@@std@@UAEXXZ PROC ; std::_LaunchPad<std::unique_ptr<std::tuple<void (__cdecl*)(void)>,std::default_delete<std::tuple<void (__cdecl*)(void)> > > >::_Go, COMDAT
; _this$ = ecx
; File c:\program files (x86)\microsoft visual studio 14.0\vc\include\thr\xthread
; Line 231
	push	ebp
	mov	ebp, esp
	push	ecx
	mov	DWORD PTR _this$[ebp], ecx
; Line 232
	mov	eax, DWORD PTR _this$[ebp]
	push	eax
	call	?_Run@?$_LaunchPad@V?$unique_ptr@V?$tuple@P6AXXZ@std@@U?$default_delete@V?$tuple@P6AXXZ@std@@@2@@std@@@std@@CAXPAV12@@Z ; std::_LaunchPad<std::unique_ptr<std::tuple<void (__cdecl*)(void)>,std::default_delete<std::tuple<void (__cdecl*)(void)> > > >::_Run
	add	esp, 4
; Line 233
	mov	esp, ebp
	pop	ebp
	ret	0
?_Go@?$_LaunchPad@V?$unique_ptr@V?$tuple@P6AXXZ@std@@U?$default_delete@V?$tuple@P6AXXZ@std@@@2@@std@@@std@@UAEXXZ ENDP ; std::_LaunchPad<std::unique_ptr<std::tuple<void (__cdecl*)(void)>,std::default_delete<std::tuple<void (__cdecl*)(void)> > > >::_Go
_TEXT	ENDS
; Function compile flags: /Odtp
;	COMDAT ??$forward@V?$unique_ptr@V?$tuple@P6AXXZ@std@@U?$default_delete@V?$tuple@P6AXXZ@std@@@2@@std@@@std@@YA$$QAV?$unique_ptr@V?$tuple@P6AXXZ@std@@U?$default_delete@V?$tuple@P6AXXZ@std@@@2@@0@AAV10@@Z
_TEXT	SEGMENT
__Arg$ = 8						; size = 4
??$forward@V?$unique_ptr@V?$tuple@P6AXXZ@std@@U?$default_delete@V?$tuple@P6AXXZ@std@@@2@@std@@@std@@YA$$QAV?$unique_ptr@V?$tuple@P6AXXZ@std@@U?$default_delete@V?$tuple@P6AXXZ@std@@@2@@0@AAV10@@Z PROC ; std::forward<std::unique_ptr<std::tuple<void (__cdecl*)(void)>,std::default_delete<std::tuple<void (__cdecl*)(void)> > > >, COMDAT
; File c:\program files (x86)\microsoft visual studio 14.0\vc\include\type_traits
; Line 1275
	push	ebp
	mov	ebp, esp
; Line 1276
	mov	eax, DWORD PTR __Arg$[ebp]
; Line 1277
	pop	ebp
	ret	0
??$forward@V?$unique_ptr@V?$tuple@P6AXXZ@std@@U?$default_delete@V?$tuple@P6AXXZ@std@@@2@@std@@@std@@YA$$QAV?$unique_ptr@V?$tuple@P6AXXZ@std@@U?$default_delete@V?$tuple@P6AXXZ@std@@@2@@0@AAV10@@Z ENDP ; std::forward<std::unique_ptr<std::tuple<void (__cdecl*)(void)>,std::default_delete<std::tuple<void (__cdecl*)(void)> > > >
_TEXT	ENDS
; Function compile flags: /Odtp
;	COMDAT ??$?0P6AXXZ$0A@@?$tuple@P6AXXZ@std@@QAE@ABQ6AXXZ@Z
_TEXT	SEGMENT
_this$ = -8						; size = 4
$T1 = -1						; size = 1
__This_arg$ = 8						; size = 4
??$?0P6AXXZ$0A@@?$tuple@P6AXXZ@std@@QAE@ABQ6AXXZ@Z PROC	; std::tuple<void (__cdecl*)(void)>::tuple<void (__cdecl*)(void)><void (__cdecl*)(void),0>, COMDAT
; _this$ = ecx
; File c:\program files (x86)\microsoft visual studio 14.0\vc\include\tuple
; Line 428
	push	ebp
	mov	ebp, esp
	sub	esp, 8
	mov	DWORD PTR _this$[ebp], ecx
; Line 427
	xor	eax, eax
	mov	BYTE PTR $T1[ebp], al
	movzx	ecx, BYTE PTR $T1[ebp]
	push	ecx
	mov	ecx, DWORD PTR _this$[ebp]
	call	??$?0U_Exact_args_t@std@@$0A@@?$tuple@$$V@std@@QAE@U_Exact_args_t@1@@Z ; std::tuple<>::tuple<><std::_Exact_args_t,0>
	mov	edx, DWORD PTR __This_arg$[ebp]
	push	edx
	mov	ecx, DWORD PTR _this$[ebp]
	call	??$?0ABQ6AXXZ@?$_Tuple_val@P6AXXZ@std@@QAE@ABQ6AXXZ@Z ; std::_Tuple_val<void (__cdecl*)(void)>::_Tuple_val<void (__cdecl*)(void)><void (__cdecl*const &)(void)>
; Line 429
	mov	eax, DWORD PTR _this$[ebp]
	mov	esp, ebp
	pop	ebp
	ret	4
??$?0P6AXXZ$0A@@?$tuple@P6AXXZ@std@@QAE@ABQ6AXXZ@Z ENDP	; std::tuple<void (__cdecl*)(void)>::tuple<void (__cdecl*)(void)><void (__cdecl*)(void),0>
_TEXT	ENDS
; Function compile flags: /Odtp
;	COMDAT ??$construct@PADAAPAD@?$allocator_traits@V?$allocator@D@std@@@std@@SAXAAV?$allocator@D@1@PAPADAAPAD@Z
_TEXT	SEGMENT
__Al$ = 8						; size = 4
__Ptr$ = 12						; size = 4
_<_Args_0>$ = 16					; size = 4
??$construct@PADAAPAD@?$allocator_traits@V?$allocator@D@std@@@std@@SAXAAV?$allocator@D@1@PAPADAAPAD@Z PROC ; std::allocator_traits<std::allocator<char> >::construct<char *,char * &>, COMDAT
; File c:\program files (x86)\microsoft visual studio 14.0\vc\include\xmemory0
; Line 856
	push	ebp
	mov	ebp, esp
; Line 857
	mov	eax, DWORD PTR _<_Args_0>$[ebp]
	push	eax
	call	??$forward@AAPAD@std@@YAAAPADAAPAD@Z	; std::forward<char * &>
	add	esp, 4
	push	eax
	mov	ecx, DWORD PTR __Ptr$[ebp]
	push	ecx
	mov	ecx, DWORD PTR __Al$[ebp]
	call	??$construct@PADAAPAD@?$allocator@D@std@@QAEXPAPADAAPAD@Z ; std::allocator<char>::construct<char *,char * &>
; Line 858
	pop	ebp
	ret	0
??$construct@PADAAPAD@?$allocator_traits@V?$allocator@D@std@@@std@@SAXAAV?$allocator@D@1@PAPADAAPAD@Z ENDP ; std::allocator_traits<std::allocator<char> >::construct<char *,char * &>
_TEXT	ENDS
; Function compile flags: /Odtp
;	COMDAT ??$forward@AAPAD@std@@YAAAPADAAPAD@Z
_TEXT	SEGMENT
__Arg$ = 8						; size = 4
??$forward@AAPAD@std@@YAAAPADAAPAD@Z PROC		; std::forward<char * &>, COMDAT
; File c:\program files (x86)\microsoft visual studio 14.0\vc\include\type_traits
; Line 1275
	push	ebp
	mov	ebp, esp
; Line 1276
	mov	eax, DWORD PTR __Arg$[ebp]
; Line 1277
	pop	ebp
	ret	0
??$forward@AAPAD@std@@YAAAPADAAPAD@Z ENDP		; std::forward<char * &>
_TEXT	ENDS
; Function compile flags: /Odtp
;	COMDAT ??$destroy@PAD@?$allocator_traits@V?$allocator@D@std@@@std@@SAXAAV?$allocator@D@1@PAPAD@Z
_TEXT	SEGMENT
__Al$ = 8						; size = 4
__Ptr$ = 12						; size = 4
??$destroy@PAD@?$allocator_traits@V?$allocator@D@std@@@std@@SAXAAV?$allocator@D@1@PAPAD@Z PROC ; std::allocator_traits<std::allocator<char> >::destroy<char *>, COMDAT
; File c:\program files (x86)\microsoft visual studio 14.0\vc\include\xmemory0
; Line 863
	push	ebp
	mov	ebp, esp
; Line 864
	mov	eax, DWORD PTR __Ptr$[ebp]
	push	eax
	mov	ecx, DWORD PTR __Al$[ebp]
	call	??$destroy@PAD@?$allocator@D@std@@QAEXPAPAD@Z ; std::allocator<char>::destroy<char *>
; Line 865
	pop	ebp
	ret	0
??$destroy@PAD@?$allocator_traits@V?$allocator@D@std@@@std@@SAXAAV?$allocator@D@1@PAPAD@Z ENDP ; std::allocator_traits<std::allocator<char> >::destroy<char *>
_TEXT	ENDS
; Function compile flags: /Odtp
;	COMDAT ??$_Launch@V?$unique_ptr@V?$tuple@P6AXXZ@std@@U?$default_delete@V?$tuple@P6AXXZ@std@@@2@@std@@@std@@YAXPAU_Thrd_imp_t@@$$QAV?$unique_ptr@V?$tuple@P6AXXZ@std@@U?$default_delete@V?$tuple@P6AXXZ@std@@@2@@0@@Z
_TEXT	SEGMENT
__Launcher$ = -20					; size = 20
__Thr$ = 8						; size = 4
__Tg$ = 12						; size = 4
??$_Launch@V?$unique_ptr@V?$tuple@P6AXXZ@std@@U?$default_delete@V?$tuple@P6AXXZ@std@@@2@@std@@@std@@YAXPAU_Thrd_imp_t@@$$QAV?$unique_ptr@V?$tuple@P6AXXZ@std@@U?$default_delete@V?$tuple@P6AXXZ@std@@@2@@0@@Z PROC ; std::_Launch<std::unique_ptr<std::tuple<void (__cdecl*)(void)>,std::default_delete<std::tuple<void (__cdecl*)(void)> > > >, COMDAT
; File c:\program files (x86)\microsoft visual studio 14.0\vc\include\thr\xthread
; Line 258
	push	ebp
	mov	ebp, esp
	sub	esp, 20					; 00000014H
; Line 259
	mov	eax, DWORD PTR __Tg$[ebp]
	push	eax
	call	??$forward@V?$unique_ptr@V?$tuple@P6AXXZ@std@@U?$default_delete@V?$tuple@P6AXXZ@std@@@2@@std@@@std@@YA$$QAV?$unique_ptr@V?$tuple@P6AXXZ@std@@U?$default_delete@V?$tuple@P6AXXZ@std@@@2@@0@AAV10@@Z ; std::forward<std::unique_ptr<std::tuple<void (__cdecl*)(void)>,std::default_delete<std::tuple<void (__cdecl*)(void)> > > >
	add	esp, 4
	push	eax
	lea	ecx, DWORD PTR __Launcher$[ebp]
	call	??$?0V?$unique_ptr@V?$tuple@P6AXXZ@std@@U?$default_delete@V?$tuple@P6AXXZ@std@@@2@@std@@@?$_LaunchPad@V?$unique_ptr@V?$tuple@P6AXXZ@std@@U?$default_delete@V?$tuple@P6AXXZ@std@@@2@@std@@@std@@QAE@$$QAV?$unique_ptr@V?$tuple@P6AXXZ@std@@U?$default_delete@V?$tuple@P6AXXZ@std@@@2@@1@@Z ; std::_LaunchPad<std::unique_ptr<std::tuple<void (__cdecl*)(void)>,std::default_delete<std::tuple<void (__cdecl*)(void)> > > >::_LaunchPad<std::unique_ptr<std::tuple<void (__cdecl*)(void)>,std::default_delete<std::tuple<void (__cdecl*)(void)> > > ><std::unique_ptr<std::tuple<void (__cdecl*)(void)>,std::default_delete<std::tuple<void (__cdecl*)(void)> > > >
; Line 260
	mov	ecx, DWORD PTR __Thr$[ebp]
	push	ecx
	lea	ecx, DWORD PTR __Launcher$[ebp]
	call	?_Launch@_Pad@std@@QAEXPAU_Thrd_imp_t@@@Z ; std::_Pad::_Launch
; Line 261
	lea	ecx, DWORD PTR __Launcher$[ebp]
	call	??1?$_LaunchPad@V?$unique_ptr@V?$tuple@P6AXXZ@std@@U?$default_delete@V?$tuple@P6AXXZ@std@@@2@@std@@@std@@QAE@XZ
	mov	esp, ebp
	pop	ebp
	ret	0
??$_Launch@V?$unique_ptr@V?$tuple@P6AXXZ@std@@U?$default_delete@V?$tuple@P6AXXZ@std@@@2@@std@@@std@@YAXPAU_Thrd_imp_t@@$$QAV?$unique_ptr@V?$tuple@P6AXXZ@std@@U?$default_delete@V?$tuple@P6AXXZ@std@@@2@@0@@Z ENDP ; std::_Launch<std::unique_ptr<std::tuple<void (__cdecl*)(void)>,std::default_delete<std::tuple<void (__cdecl*)(void)> > > >
_TEXT	ENDS
; Function compile flags: /Odtp
;	COMDAT ?release@?$unique_ptr@V?$tuple@P6AXXZ@std@@U?$default_delete@V?$tuple@P6AXXZ@std@@@2@@std@@QAEPAV?$tuple@P6AXXZ@2@XZ
_TEXT	SEGMENT
__Ans$ = -8						; size = 4
_this$ = -4						; size = 4
?release@?$unique_ptr@V?$tuple@P6AXXZ@std@@U?$default_delete@V?$tuple@P6AXXZ@std@@@2@@std@@QAEPAV?$tuple@P6AXXZ@2@XZ PROC ; std::unique_ptr<std::tuple<void (__cdecl*)(void)>,std::default_delete<std::tuple<void (__cdecl*)(void)> > >::release, COMDAT
; _this$ = ecx
; File c:\program files (x86)\microsoft visual studio 14.0\vc\include\memory
; Line 1421
	push	ebp
	mov	ebp, esp
	sub	esp, 8
	mov	DWORD PTR _this$[ebp], ecx
; Line 1422
	mov	ecx, DWORD PTR _this$[ebp]
	call	?get@?$unique_ptr@V?$tuple@P6AXXZ@std@@U?$default_delete@V?$tuple@P6AXXZ@std@@@2@@std@@QBEPAV?$tuple@P6AXXZ@2@XZ ; std::unique_ptr<std::tuple<void (__cdecl*)(void)>,std::default_delete<std::tuple<void (__cdecl*)(void)> > >::get
	mov	DWORD PTR __Ans$[ebp], eax
; Line 1423
	mov	ecx, DWORD PTR _this$[ebp]
	call	?_Myptr@?$_Unique_ptr_base@V?$tuple@P6AXXZ@std@@U?$default_delete@V?$tuple@P6AXXZ@std@@@2@@std@@QAEAAPAV?$tuple@P6AXXZ@2@XZ ; std::_Unique_ptr_base<std::tuple<void (__cdecl*)(void)>,std::default_delete<std::tuple<void (__cdecl*)(void)> > >::_Myptr
	mov	DWORD PTR [eax], 0
; Line 1424
	mov	eax, DWORD PTR __Ans$[ebp]
; Line 1425
	mov	esp, ebp
	pop	ebp
	ret	0
?release@?$unique_ptr@V?$tuple@P6AXXZ@std@@U?$default_delete@V?$tuple@P6AXXZ@std@@@2@@std@@QAEPAV?$tuple@P6AXXZ@2@XZ ENDP ; std::unique_ptr<std::tuple<void (__cdecl*)(void)>,std::default_delete<std::tuple<void (__cdecl*)(void)> > >::release
_TEXT	ENDS
; Function compile flags: /Odtp
;	COMDAT ?get@?$unique_ptr@V?$tuple@P6AXXZ@std@@U?$default_delete@V?$tuple@P6AXXZ@std@@@2@@std@@QBEPAV?$tuple@P6AXXZ@2@XZ
_TEXT	SEGMENT
_this$ = -4						; size = 4
?get@?$unique_ptr@V?$tuple@P6AXXZ@std@@U?$default_delete@V?$tuple@P6AXXZ@std@@@2@@std@@QBEPAV?$tuple@P6AXXZ@2@XZ PROC ; std::unique_ptr<std::tuple<void (__cdecl*)(void)>,std::default_delete<std::tuple<void (__cdecl*)(void)> > >::get, COMDAT
; _this$ = ecx
; File c:\program files (x86)\microsoft visual studio 14.0\vc\include\memory
; Line 1411
	push	ebp
	mov	ebp, esp
	push	ecx
	mov	DWORD PTR _this$[ebp], ecx
; Line 1412
	mov	ecx, DWORD PTR _this$[ebp]
	call	?_Myptr@?$_Unique_ptr_base@V?$tuple@P6AXXZ@std@@U?$default_delete@V?$tuple@P6AXXZ@std@@@2@@std@@QBEABQAV?$tuple@P6AXXZ@2@XZ ; std::_Unique_ptr_base<std::tuple<void (__cdecl*)(void)>,std::default_delete<std::tuple<void (__cdecl*)(void)> > >::_Myptr
	mov	eax, DWORD PTR [eax]
; Line 1413
	mov	esp, ebp
	pop	ebp
	ret	0
?get@?$unique_ptr@V?$tuple@P6AXXZ@std@@U?$default_delete@V?$tuple@P6AXXZ@std@@@2@@std@@QBEPAV?$tuple@P6AXXZ@2@XZ ENDP ; std::unique_ptr<std::tuple<void (__cdecl*)(void)>,std::default_delete<std::tuple<void (__cdecl*)(void)> > >::get
_TEXT	ENDS
; Function compile flags: /Odtp
;	COMDAT ??D?$unique_ptr@V?$tuple@P6AXXZ@std@@U?$default_delete@V?$tuple@P6AXXZ@std@@@2@@std@@QBEAAV?$tuple@P6AXXZ@1@XZ
_TEXT	SEGMENT
_this$ = -4						; size = 4
??D?$unique_ptr@V?$tuple@P6AXXZ@std@@U?$default_delete@V?$tuple@P6AXXZ@std@@@2@@std@@QBEAAV?$tuple@P6AXXZ@1@XZ PROC ; std::unique_ptr<std::tuple<void (__cdecl*)(void)>,std::default_delete<std::tuple<void (__cdecl*)(void)> > >::operator*, COMDAT
; _this$ = ecx
; File c:\program files (x86)\microsoft visual studio 14.0\vc\include\memory
; Line 1401
	push	ebp
	mov	ebp, esp
	push	ecx
	mov	DWORD PTR _this$[ebp], ecx
; Line 1402
	mov	ecx, DWORD PTR _this$[ebp]
	call	?get@?$unique_ptr@V?$tuple@P6AXXZ@std@@U?$default_delete@V?$tuple@P6AXXZ@std@@@2@@std@@QBEPAV?$tuple@P6AXXZ@2@XZ ; std::unique_ptr<std::tuple<void (__cdecl*)(void)>,std::default_delete<std::tuple<void (__cdecl*)(void)> > >::get
; Line 1403
	mov	esp, ebp
	pop	ebp
	ret	0
??D?$unique_ptr@V?$tuple@P6AXXZ@std@@U?$default_delete@V?$tuple@P6AXXZ@std@@@2@@std@@QBEAAV?$tuple@P6AXXZ@1@XZ ENDP ; std::unique_ptr<std::tuple<void (__cdecl*)(void)>,std::default_delete<std::tuple<void (__cdecl*)(void)> > >::operator*
_TEXT	ENDS
; Function compile flags: /Odtp
;	COMDAT ??1?$unique_ptr@V?$tuple@P6AXXZ@std@@U?$default_delete@V?$tuple@P6AXXZ@std@@@2@@std@@QAE@XZ
_TEXT	SEGMENT
_this$ = -4						; size = 4
??1?$unique_ptr@V?$tuple@P6AXXZ@std@@U?$default_delete@V?$tuple@P6AXXZ@std@@@2@@std@@QAE@XZ PROC ; std::unique_ptr<std::tuple<void (__cdecl*)(void)>,std::default_delete<std::tuple<void (__cdecl*)(void)> > >::~unique_ptr<std::tuple<void (__cdecl*)(void)>,std::default_delete<std::tuple<void (__cdecl*)(void)> > >, COMDAT
; _this$ = ecx
; File c:\program files (x86)\microsoft visual studio 14.0\vc\include\memory
; Line 1395
	push	ebp
	mov	ebp, esp
	push	ecx
	mov	DWORD PTR _this$[ebp], ecx
; Line 1396
	mov	ecx, DWORD PTR _this$[ebp]
	call	?get@?$unique_ptr@V?$tuple@P6AXXZ@std@@U?$default_delete@V?$tuple@P6AXXZ@std@@@2@@std@@QBEPAV?$tuple@P6AXXZ@2@XZ ; std::unique_ptr<std::tuple<void (__cdecl*)(void)>,std::default_delete<std::tuple<void (__cdecl*)(void)> > >::get
	test	eax, eax
	je	SHORT $LN1@unique_ptr
; Line 1397
	mov	ecx, DWORD PTR _this$[ebp]
	call	?get@?$unique_ptr@V?$tuple@P6AXXZ@std@@U?$default_delete@V?$tuple@P6AXXZ@std@@@2@@std@@QBEPAV?$tuple@P6AXXZ@2@XZ ; std::unique_ptr<std::tuple<void (__cdecl*)(void)>,std::default_delete<std::tuple<void (__cdecl*)(void)> > >::get
	push	eax
	mov	ecx, DWORD PTR _this$[ebp]
	call	?get_deleter@?$_Unique_ptr_base@V?$tuple@P6AXXZ@std@@U?$default_delete@V?$tuple@P6AXXZ@std@@@2@@std@@QAEAAU?$default_delete@V?$tuple@P6AXXZ@std@@@2@XZ ; std::_Unique_ptr_base<std::tuple<void (__cdecl*)(void)>,std::default_delete<std::tuple<void (__cdecl*)(void)> > >::get_deleter
	mov	ecx, eax
	call	??R?$default_delete@V?$tuple@P6AXXZ@std@@@std@@QBEXPAV?$tuple@P6AXXZ@1@@Z ; std::default_delete<std::tuple<void (__cdecl*)(void)> >::operator()
$LN1@unique_ptr:
; Line 1398
	mov	esp, ebp
	pop	ebp
	ret	0
??1?$unique_ptr@V?$tuple@P6AXXZ@std@@U?$default_delete@V?$tuple@P6AXXZ@std@@@2@@std@@QAE@XZ ENDP ; std::unique_ptr<std::tuple<void (__cdecl*)(void)>,std::default_delete<std::tuple<void (__cdecl*)(void)> > >::~unique_ptr<std::tuple<void (__cdecl*)(void)>,std::default_delete<std::tuple<void (__cdecl*)(void)> > >
_TEXT	ENDS
; Function compile flags: /Odtp
;	COMDAT ??0?$unique_ptr@V?$tuple@P6AXXZ@std@@U?$default_delete@V?$tuple@P6AXXZ@std@@@2@@std@@QAE@$$QAV01@@Z
_TEXT	SEGMENT
_this$ = -4						; size = 4
__Right$ = 8						; size = 4
??0?$unique_ptr@V?$tuple@P6AXXZ@std@@U?$default_delete@V?$tuple@P6AXXZ@std@@@2@@std@@QAE@$$QAV01@@Z PROC ; std::unique_ptr<std::tuple<void (__cdecl*)(void)>,std::default_delete<std::tuple<void (__cdecl*)(void)> > >::unique_ptr<std::tuple<void (__cdecl*)(void)>,std::default_delete<std::tuple<void (__cdecl*)(void)> > >, COMDAT
; _this$ = ecx
; File c:\program files (x86)\microsoft visual studio 14.0\vc\include\memory
; Line 1334
	push	ebp
	mov	ebp, esp
	push	ecx
	mov	DWORD PTR _this$[ebp], ecx
; Line 1332
	mov	ecx, DWORD PTR __Right$[ebp]
	call	?get_deleter@?$_Unique_ptr_base@V?$tuple@P6AXXZ@std@@U?$default_delete@V?$tuple@P6AXXZ@std@@@2@@std@@QAEAAU?$default_delete@V?$tuple@P6AXXZ@std@@@2@XZ ; std::_Unique_ptr_base<std::tuple<void (__cdecl*)(void)>,std::default_delete<std::tuple<void (__cdecl*)(void)> > >::get_deleter
	push	eax
	call	??$forward@U?$default_delete@V?$tuple@P6AXXZ@std@@@std@@@std@@YA$$QAU?$default_delete@V?$tuple@P6AXXZ@std@@@0@AAU10@@Z ; std::forward<std::default_delete<std::tuple<void (__cdecl*)(void)> > >
	add	esp, 4
	push	eax
	mov	ecx, DWORD PTR __Right$[ebp]
	call	?release@?$unique_ptr@V?$tuple@P6AXXZ@std@@U?$default_delete@V?$tuple@P6AXXZ@std@@@2@@std@@QAEPAV?$tuple@P6AXXZ@2@XZ ; std::unique_ptr<std::tuple<void (__cdecl*)(void)>,std::default_delete<std::tuple<void (__cdecl*)(void)> > >::release
	push	eax
	mov	ecx, DWORD PTR _this$[ebp]
	call	??$?0PAV?$tuple@P6AXXZ@std@@U?$default_delete@V?$tuple@P6AXXZ@std@@@1@@?$_Unique_ptr_base@V?$tuple@P6AXXZ@std@@U?$default_delete@V?$tuple@P6AXXZ@std@@@2@@std@@QAE@PAV?$tuple@P6AXXZ@1@$$QAU?$default_delete@V?$tuple@P6AXXZ@std@@@1@@Z ; std::_Unique_ptr_base<std::tuple<void (__cdecl*)(void)>,std::default_delete<std::tuple<void (__cdecl*)(void)> > >::_Unique_ptr_base<std::tuple<void (__cdecl*)(void)>,std::default_delete<std::tuple<void (__cdecl*)(void)> > ><std::tuple<void (__cdecl*)(void)> *,std::default_delete<std::tuple<void (__cdecl*)(void)> > >
; Line 1335
	mov	eax, DWORD PTR _this$[ebp]
	mov	esp, ebp
	pop	ebp
	ret	4
??0?$unique_ptr@V?$tuple@P6AXXZ@std@@U?$default_delete@V?$tuple@P6AXXZ@std@@@2@@std@@QAE@$$QAV01@@Z ENDP ; std::unique_ptr<std::tuple<void (__cdecl*)(void)>,std::default_delete<std::tuple<void (__cdecl*)(void)> > >::unique_ptr<std::tuple<void (__cdecl*)(void)>,std::default_delete<std::tuple<void (__cdecl*)(void)> > >
_TEXT	ENDS
; Function compile flags: /Odtp
;	COMDAT ??0?$unique_ptr@V?$tuple@P6AXXZ@std@@U?$default_delete@V?$tuple@P6AXXZ@std@@@2@@std@@QAE@PAV?$tuple@P6AXXZ@1@@Z
_TEXT	SEGMENT
_this$ = -4						; size = 4
__Ptr$ = 8						; size = 4
??0?$unique_ptr@V?$tuple@P6AXXZ@std@@U?$default_delete@V?$tuple@P6AXXZ@std@@@2@@std@@QAE@PAV?$tuple@P6AXXZ@1@@Z PROC ; std::unique_ptr<std::tuple<void (__cdecl*)(void)>,std::default_delete<std::tuple<void (__cdecl*)(void)> > >::unique_ptr<std::tuple<void (__cdecl*)(void)>,std::default_delete<std::tuple<void (__cdecl*)(void)> > >, COMDAT
; _this$ = ecx
; File c:\program files (x86)\microsoft visual studio 14.0\vc\include\memory
; Line 1311
	push	ebp
	mov	ebp, esp
	push	ecx
	mov	DWORD PTR _this$[ebp], ecx
; Line 1310
	mov	eax, DWORD PTR __Ptr$[ebp]
	push	eax
	mov	ecx, DWORD PTR _this$[ebp]
	call	??$?0PAV?$tuple@P6AXXZ@std@@@?$_Unique_ptr_base@V?$tuple@P6AXXZ@std@@U?$default_delete@V?$tuple@P6AXXZ@std@@@2@@std@@QAE@PAV?$tuple@P6AXXZ@1@@Z ; std::_Unique_ptr_base<std::tuple<void (__cdecl*)(void)>,std::default_delete<std::tuple<void (__cdecl*)(void)> > >::_Unique_ptr_base<std::tuple<void (__cdecl*)(void)>,std::default_delete<std::tuple<void (__cdecl*)(void)> > ><std::tuple<void (__cdecl*)(void)> *>
; Line 1314
	mov	eax, DWORD PTR _this$[ebp]
	mov	esp, ebp
	pop	ebp
	ret	4
??0?$unique_ptr@V?$tuple@P6AXXZ@std@@U?$default_delete@V?$tuple@P6AXXZ@std@@@2@@std@@QAE@PAV?$tuple@P6AXXZ@1@@Z ENDP ; std::unique_ptr<std::tuple<void (__cdecl*)(void)>,std::default_delete<std::tuple<void (__cdecl*)(void)> > >::unique_ptr<std::tuple<void (__cdecl*)(void)>,std::default_delete<std::tuple<void (__cdecl*)(void)> > >
_TEXT	ENDS
; Function compile flags: /Odtp
;	COMDAT ?_Get_second@?$_Compressed_pair@U?$default_delete@V?$tuple@P6AXXZ@std@@@std@@PAV?$tuple@P6AXXZ@2@$00@std@@QBEABQAV?$tuple@P6AXXZ@2@XZ
_TEXT	SEGMENT
_this$ = -4						; size = 4
?_Get_second@?$_Compressed_pair@U?$default_delete@V?$tuple@P6AXXZ@std@@@std@@PAV?$tuple@P6AXXZ@2@$00@std@@QBEABQAV?$tuple@P6AXXZ@2@XZ PROC ; std::_Compressed_pair<std::default_delete<std::tuple<void (__cdecl*)(void)> >,std::tuple<void (__cdecl*)(void)> *,1>::_Get_second, COMDAT
; _this$ = ecx
; File c:\program files (x86)\microsoft visual studio 14.0\vc\include\xutility
; Line 319
	push	ebp
	mov	ebp, esp
	push	ecx
	mov	DWORD PTR _this$[ebp], ecx
; Line 320
	mov	eax, DWORD PTR _this$[ebp]
; Line 321
	mov	esp, ebp
	pop	ebp
	ret	0
?_Get_second@?$_Compressed_pair@U?$default_delete@V?$tuple@P6AXXZ@std@@@std@@PAV?$tuple@P6AXXZ@2@$00@std@@QBEABQAV?$tuple@P6AXXZ@2@XZ ENDP ; std::_Compressed_pair<std::default_delete<std::tuple<void (__cdecl*)(void)> >,std::tuple<void (__cdecl*)(void)> *,1>::_Get_second
_TEXT	ENDS
; Function compile flags: /Odtp
;	COMDAT ?_Get_second@?$_Compressed_pair@U?$default_delete@V?$tuple@P6AXXZ@std@@@std@@PAV?$tuple@P6AXXZ@2@$00@std@@QAEAAPAV?$tuple@P6AXXZ@2@XZ
_TEXT	SEGMENT
_this$ = -4						; size = 4
?_Get_second@?$_Compressed_pair@U?$default_delete@V?$tuple@P6AXXZ@std@@@std@@PAV?$tuple@P6AXXZ@2@$00@std@@QAEAAPAV?$tuple@P6AXXZ@2@XZ PROC ; std::_Compressed_pair<std::default_delete<std::tuple<void (__cdecl*)(void)> >,std::tuple<void (__cdecl*)(void)> *,1>::_Get_second, COMDAT
; _this$ = ecx
; File c:\program files (x86)\microsoft visual studio 14.0\vc\include\xutility
; Line 314
	push	ebp
	mov	ebp, esp
	push	ecx
	mov	DWORD PTR _this$[ebp], ecx
; Line 315
	mov	eax, DWORD PTR _this$[ebp]
; Line 316
	mov	esp, ebp
	pop	ebp
	ret	0
?_Get_second@?$_Compressed_pair@U?$default_delete@V?$tuple@P6AXXZ@std@@@std@@PAV?$tuple@P6AXXZ@2@$00@std@@QAEAAPAV?$tuple@P6AXXZ@2@XZ ENDP ; std::_Compressed_pair<std::default_delete<std::tuple<void (__cdecl*)(void)> >,std::tuple<void (__cdecl*)(void)> *,1>::_Get_second
_TEXT	ENDS
; Function compile flags: /Odtp
;	COMDAT ?_Get_first@?$_Compressed_pair@U?$default_delete@V?$tuple@P6AXXZ@std@@@std@@PAV?$tuple@P6AXXZ@2@$00@std@@QAEAAU?$default_delete@V?$tuple@P6AXXZ@std@@@2@XZ
_TEXT	SEGMENT
_this$ = -4						; size = 4
?_Get_first@?$_Compressed_pair@U?$default_delete@V?$tuple@P6AXXZ@std@@@std@@PAV?$tuple@P6AXXZ@2@$00@std@@QAEAAU?$default_delete@V?$tuple@P6AXXZ@std@@@2@XZ PROC ; std::_Compressed_pair<std::default_delete<std::tuple<void (__cdecl*)(void)> >,std::tuple<void (__cdecl*)(void)> *,1>::_Get_first, COMDAT
; _this$ = ecx
; File c:\program files (x86)\microsoft visual studio 14.0\vc\include\xutility
; Line 294
	push	ebp
	mov	ebp, esp
	push	ecx
	mov	DWORD PTR _this$[ebp], ecx
; Line 295
	mov	eax, DWORD PTR _this$[ebp]
; Line 296
	mov	esp, ebp
	pop	ebp
	ret	0
?_Get_first@?$_Compressed_pair@U?$default_delete@V?$tuple@P6AXXZ@std@@@std@@PAV?$tuple@P6AXXZ@2@$00@std@@QAEAAU?$default_delete@V?$tuple@P6AXXZ@std@@@2@XZ ENDP ; std::_Compressed_pair<std::default_delete<std::tuple<void (__cdecl*)(void)> >,std::tuple<void (__cdecl*)(void)> *,1>::_Get_first
_TEXT	ENDS
; Function compile flags: /Odtp
;	COMDAT ?_Myptr@?$_Unique_ptr_base@V?$tuple@P6AXXZ@std@@U?$default_delete@V?$tuple@P6AXXZ@std@@@2@@std@@QBEABQAV?$tuple@P6AXXZ@2@XZ
_TEXT	SEGMENT
_this$ = -4						; size = 4
?_Myptr@?$_Unique_ptr_base@V?$tuple@P6AXXZ@std@@U?$default_delete@V?$tuple@P6AXXZ@std@@@2@@std@@QBEABQAV?$tuple@P6AXXZ@2@XZ PROC ; std::_Unique_ptr_base<std::tuple<void (__cdecl*)(void)>,std::default_delete<std::tuple<void (__cdecl*)(void)> > >::_Myptr, COMDAT
; _this$ = ecx
; File c:\program files (x86)\microsoft visual studio 14.0\vc\include\memory
; Line 1267
	push	ebp
	mov	ebp, esp
	push	ecx
	mov	DWORD PTR _this$[ebp], ecx
; Line 1268
	mov	ecx, DWORD PTR _this$[ebp]
	call	?_Get_second@?$_Compressed_pair@U?$default_delete@V?$tuple@P6AXXZ@std@@@std@@PAV?$tuple@P6AXXZ@2@$00@std@@QBEABQAV?$tuple@P6AXXZ@2@XZ ; std::_Compressed_pair<std::default_delete<std::tuple<void (__cdecl*)(void)> >,std::tuple<void (__cdecl*)(void)> *,1>::_Get_second
; Line 1269
	mov	esp, ebp
	pop	ebp
	ret	0
?_Myptr@?$_Unique_ptr_base@V?$tuple@P6AXXZ@std@@U?$default_delete@V?$tuple@P6AXXZ@std@@@2@@std@@QBEABQAV?$tuple@P6AXXZ@2@XZ ENDP ; std::_Unique_ptr_base<std::tuple<void (__cdecl*)(void)>,std::default_delete<std::tuple<void (__cdecl*)(void)> > >::_Myptr
_TEXT	ENDS
; Function compile flags: /Odtp
;	COMDAT ?_Myptr@?$_Unique_ptr_base@V?$tuple@P6AXXZ@std@@U?$default_delete@V?$tuple@P6AXXZ@std@@@2@@std@@QAEAAPAV?$tuple@P6AXXZ@2@XZ
_TEXT	SEGMENT
_this$ = -4						; size = 4
?_Myptr@?$_Unique_ptr_base@V?$tuple@P6AXXZ@std@@U?$default_delete@V?$tuple@P6AXXZ@std@@@2@@std@@QAEAAPAV?$tuple@P6AXXZ@2@XZ PROC ; std::_Unique_ptr_base<std::tuple<void (__cdecl*)(void)>,std::default_delete<std::tuple<void (__cdecl*)(void)> > >::_Myptr, COMDAT
; _this$ = ecx
; File c:\program files (x86)\microsoft visual studio 14.0\vc\include\memory
; Line 1262
	push	ebp
	mov	ebp, esp
	push	ecx
	mov	DWORD PTR _this$[ebp], ecx
; Line 1263
	mov	ecx, DWORD PTR _this$[ebp]
	call	?_Get_second@?$_Compressed_pair@U?$default_delete@V?$tuple@P6AXXZ@std@@@std@@PAV?$tuple@P6AXXZ@2@$00@std@@QAEAAPAV?$tuple@P6AXXZ@2@XZ ; std::_Compressed_pair<std::default_delete<std::tuple<void (__cdecl*)(void)> >,std::tuple<void (__cdecl*)(void)> *,1>::_Get_second
; Line 1264
	mov	esp, ebp
	pop	ebp
	ret	0
?_Myptr@?$_Unique_ptr_base@V?$tuple@P6AXXZ@std@@U?$default_delete@V?$tuple@P6AXXZ@std@@@2@@std@@QAEAAPAV?$tuple@P6AXXZ@2@XZ ENDP ; std::_Unique_ptr_base<std::tuple<void (__cdecl*)(void)>,std::default_delete<std::tuple<void (__cdecl*)(void)> > >::_Myptr
_TEXT	ENDS
; Function compile flags: /Odtp
;	COMDAT ?get_deleter@?$_Unique_ptr_base@V?$tuple@P6AXXZ@std@@U?$default_delete@V?$tuple@P6AXXZ@std@@@2@@std@@QAEAAU?$default_delete@V?$tuple@P6AXXZ@std@@@2@XZ
_TEXT	SEGMENT
_this$ = -4						; size = 4
?get_deleter@?$_Unique_ptr_base@V?$tuple@P6AXXZ@std@@U?$default_delete@V?$tuple@P6AXXZ@std@@@2@@std@@QAEAAU?$default_delete@V?$tuple@P6AXXZ@std@@@2@XZ PROC ; std::_Unique_ptr_base<std::tuple<void (__cdecl*)(void)>,std::default_delete<std::tuple<void (__cdecl*)(void)> > >::get_deleter, COMDAT
; _this$ = ecx
; File c:\program files (x86)\microsoft visual studio 14.0\vc\include\memory
; Line 1252
	push	ebp
	mov	ebp, esp
	push	ecx
	mov	DWORD PTR _this$[ebp], ecx
; Line 1253
	mov	ecx, DWORD PTR _this$[ebp]
	call	?_Get_first@?$_Compressed_pair@U?$default_delete@V?$tuple@P6AXXZ@std@@@std@@PAV?$tuple@P6AXXZ@2@$00@std@@QAEAAU?$default_delete@V?$tuple@P6AXXZ@std@@@2@XZ ; std::_Compressed_pair<std::default_delete<std::tuple<void (__cdecl*)(void)> >,std::tuple<void (__cdecl*)(void)> *,1>::_Get_first
; Line 1254
	mov	esp, ebp
	pop	ebp
	ret	0
?get_deleter@?$_Unique_ptr_base@V?$tuple@P6AXXZ@std@@U?$default_delete@V?$tuple@P6AXXZ@std@@@2@@std@@QAEAAU?$default_delete@V?$tuple@P6AXXZ@std@@@2@XZ ENDP ; std::_Unique_ptr_base<std::tuple<void (__cdecl*)(void)>,std::default_delete<std::tuple<void (__cdecl*)(void)> > >::get_deleter
_TEXT	ENDS
; Function compile flags: /Odtp
;	COMDAT ??R?$default_delete@V?$tuple@P6AXXZ@std@@@std@@QBEXPAV?$tuple@P6AXXZ@1@@Z
_TEXT	SEGMENT
_this$ = -8						; size = 4
$T1 = -4						; size = 4
__Ptr$ = 8						; size = 4
??R?$default_delete@V?$tuple@P6AXXZ@std@@@std@@QBEXPAV?$tuple@P6AXXZ@1@@Z PROC ; std::default_delete<std::tuple<void (__cdecl*)(void)> >::operator(), COMDAT
; _this$ = ecx
; File c:\program files (x86)\microsoft visual studio 14.0\vc\include\memory
; Line 1192
	push	ebp
	mov	ebp, esp
	sub	esp, 8
	mov	DWORD PTR _this$[ebp], ecx
; Line 1195
	mov	eax, DWORD PTR __Ptr$[ebp]
	mov	DWORD PTR $T1[ebp], eax
	push	4
	mov	ecx, DWORD PTR $T1[ebp]
	push	ecx
	call	??3@YAXPAXI@Z				; operator delete
	add	esp, 8
; Line 1196
	mov	esp, ebp
	pop	ebp
	ret	4
??R?$default_delete@V?$tuple@P6AXXZ@std@@@std@@QBEXPAV?$tuple@P6AXXZ@1@@Z ENDP ; std::default_delete<std::tuple<void (__cdecl*)(void)> >::operator()
_TEXT	ENDS
; Function compile flags: /Odtp
;	COMDAT ??$make_unique@V?$tuple@P6AXXZ@std@@A6AXXZ@std@@YA?AV?$unique_ptr@V?$tuple@P6AXXZ@std@@U?$default_delete@V?$tuple@P6AXXZ@std@@@2@@0@A6AXXZ@Z
_TEXT	SEGMENT
$T1 = -12						; size = 4
tv77 = -8						; size = 4
$T2 = -4						; size = 4
___$ReturnUdt$ = 8					; size = 4
_<_Args_0>$ = 12					; size = 4
??$make_unique@V?$tuple@P6AXXZ@std@@A6AXXZ@std@@YA?AV?$unique_ptr@V?$tuple@P6AXXZ@std@@U?$default_delete@V?$tuple@P6AXXZ@std@@@2@@0@A6AXXZ@Z PROC ; std::make_unique<std::tuple<void (__cdecl*)(void)>,void (__cdecl&)(void)>, COMDAT
; File c:\program files (x86)\microsoft visual studio 14.0\vc\include\memory
; Line 1629
	push	ebp
	mov	ebp, esp
	sub	esp, 12					; 0000000cH
; Line 1630
	push	4
	call	??2@YAPAXI@Z				; operator new
	add	esp, 4
	mov	DWORD PTR $T2[ebp], eax
	cmp	DWORD PTR $T2[ebp], 0
	je	SHORT $LN3@make_uniqu
	mov	eax, DWORD PTR _<_Args_0>$[ebp]
	push	eax
	call	??$forward@A6AXXZ@std@@YAA6AXXZA6AXXZ@Z	; std::forward<void (__cdecl&)(void)>
	add	esp, 4
	mov	DWORD PTR $T1[ebp], eax
	lea	ecx, DWORD PTR $T1[ebp]
	push	ecx
	mov	ecx, DWORD PTR $T2[ebp]
	call	??$?0P6AXXZ$0A@@?$tuple@P6AXXZ@std@@QAE@ABQ6AXXZ@Z ; std::tuple<void (__cdecl*)(void)>::tuple<void (__cdecl*)(void)><void (__cdecl*)(void),0>
	mov	DWORD PTR tv77[ebp], eax
	jmp	SHORT $LN4@make_uniqu
$LN3@make_uniqu:
	mov	DWORD PTR tv77[ebp], 0
$LN4@make_uniqu:
	mov	edx, DWORD PTR tv77[ebp]
	push	edx
	mov	ecx, DWORD PTR ___$ReturnUdt$[ebp]
	call	??0?$unique_ptr@V?$tuple@P6AXXZ@std@@U?$default_delete@V?$tuple@P6AXXZ@std@@@2@@std@@QAE@PAV?$tuple@P6AXXZ@1@@Z ; std::unique_ptr<std::tuple<void (__cdecl*)(void)>,std::default_delete<std::tuple<void (__cdecl*)(void)> > >::unique_ptr<std::tuple<void (__cdecl*)(void)>,std::default_delete<std::tuple<void (__cdecl*)(void)> > >
	mov	eax, DWORD PTR ___$ReturnUdt$[ebp]
; Line 1631
	mov	esp, ebp
	pop	ebp
	ret	0
??$make_unique@V?$tuple@P6AXXZ@std@@A6AXXZ@std@@YA?AV?$unique_ptr@V?$tuple@P6AXXZ@std@@U?$default_delete@V?$tuple@P6AXXZ@std@@@2@@0@A6AXXZ@Z ENDP ; std::make_unique<std::tuple<void (__cdecl*)(void)>,void (__cdecl&)(void)>
_TEXT	ENDS
; Function compile flags: /Odtp
;	COMDAT ??$forward@A6AXXZ@std@@YAA6AXXZA6AXXZ@Z
_TEXT	SEGMENT
__Arg$ = 8						; size = 4
??$forward@A6AXXZ@std@@YAA6AXXZA6AXXZ@Z PROC		; std::forward<void (__cdecl&)(void)>, COMDAT
; File c:\program files (x86)\microsoft visual studio 14.0\vc\include\type_traits
; Line 1275
	push	ebp
	mov	ebp, esp
; Line 1276
	mov	eax, DWORD PTR __Arg$[ebp]
; Line 1277
	pop	ebp
	ret	0
??$forward@A6AXXZ@std@@YAA6AXXZA6AXXZ@Z ENDP		; std::forward<void (__cdecl&)(void)>
_TEXT	ENDS
; Function compile flags: /Odtp
;	COMDAT ??$construct@PADAAPAD@?$_Wrap_alloc@V?$allocator@D@std@@@std@@QAEXPAPADAAPAD@Z
_TEXT	SEGMENT
_this$ = -4						; size = 4
__Ptr$ = 8						; size = 4
_<_Args_0>$ = 12					; size = 4
??$construct@PADAAPAD@?$_Wrap_alloc@V?$allocator@D@std@@@std@@QAEXPAPADAAPAD@Z PROC ; std::_Wrap_alloc<std::allocator<char> >::construct<char *,char * &>, COMDAT
; _this$ = ecx
; File c:\program files (x86)\microsoft visual studio 14.0\vc\include\xmemory0
; Line 994
	push	ebp
	mov	ebp, esp
	push	ecx
	mov	DWORD PTR _this$[ebp], ecx
; Line 995
	mov	eax, DWORD PTR _<_Args_0>$[ebp]
	push	eax
	call	??$forward@AAPAD@std@@YAAAPADAAPAD@Z	; std::forward<char * &>
	add	esp, 4
	push	eax
	mov	ecx, DWORD PTR __Ptr$[ebp]
	push	ecx
	mov	edx, DWORD PTR _this$[ebp]
	push	edx
	call	??$construct@PADAAPAD@?$allocator_traits@V?$allocator@D@std@@@std@@SAXAAV?$allocator@D@1@PAPADAAPAD@Z ; std::allocator_traits<std::allocator<char> >::construct<char *,char * &>
	add	esp, 12					; 0000000cH
; Line 997
	mov	esp, ebp
	pop	ebp
	ret	8
??$construct@PADAAPAD@?$_Wrap_alloc@V?$allocator@D@std@@@std@@QAEXPAPADAAPAD@Z ENDP ; std::_Wrap_alloc<std::allocator<char> >::construct<char *,char * &>
_TEXT	ENDS
; Function compile flags: /Odtp
;	COMDAT ??$_Unfancy@D@std@@YAPADPAD@Z
_TEXT	SEGMENT
__Ptr$ = 8						; size = 4
??$_Unfancy@D@std@@YAPADPAD@Z PROC			; std::_Unfancy<char>, COMDAT
; File c:\program files (x86)\microsoft visual studio 14.0\vc\include\xstddef
; Line 739
	push	ebp
	mov	ebp, esp
; Line 740
	mov	eax, DWORD PTR __Ptr$[ebp]
; Line 741
	pop	ebp
	ret	0
??$_Unfancy@D@std@@YAPADPAD@Z ENDP			; std::_Unfancy<char>
_TEXT	ENDS
; Function compile flags: /Odtp
;	COMDAT ??$destroy@PAD@?$_Wrap_alloc@V?$allocator@D@std@@@std@@QAEXPAPAD@Z
_TEXT	SEGMENT
_this$ = -4						; size = 4
__Ptr$ = 8						; size = 4
??$destroy@PAD@?$_Wrap_alloc@V?$allocator@D@std@@@std@@QAEXPAPAD@Z PROC ; std::_Wrap_alloc<std::allocator<char> >::destroy<char *>, COMDAT
; _this$ = ecx
; File c:\program files (x86)\microsoft visual studio 14.0\vc\include\xmemory0
; Line 1002
	push	ebp
	mov	ebp, esp
	push	ecx
	mov	DWORD PTR _this$[ebp], ecx
; Line 1003
	mov	eax, DWORD PTR __Ptr$[ebp]
	push	eax
	mov	ecx, DWORD PTR _this$[ebp]
	push	ecx
	call	??$destroy@PAD@?$allocator_traits@V?$allocator@D@std@@@std@@SAXAAV?$allocator@D@1@PAPAD@Z ; std::allocator_traits<std::allocator<char> >::destroy<char *>
	add	esp, 8
; Line 1004
	mov	esp, ebp
	pop	ebp
	ret	4
??$destroy@PAD@?$_Wrap_alloc@V?$allocator@D@std@@@std@@QAEXPAPAD@Z ENDP ; std::_Wrap_alloc<std::allocator<char> >::destroy<char *>
_TEXT	ENDS
; Function compile flags: /Odtp
;	COMDAT ??$addressof@PAD@std@@YAPAPADAAPAD@Z
_TEXT	SEGMENT
__Val$ = 8						; size = 4
??$addressof@PAD@std@@YAPAPADAAPAD@Z PROC		; std::addressof<char *>, COMDAT
; File c:\program files (x86)\microsoft visual studio 14.0\vc\include\xstddef
; Line 724
	push	ebp
	mov	ebp, esp
; Line 725
	mov	eax, DWORD PTR __Val$[ebp]
; Line 726
	pop	ebp
	ret	0
??$addressof@PAD@std@@YAPAPADAAPAD@Z ENDP		; std::addressof<char *>
_TEXT	ENDS
; Function compile flags: /Odtp
;	COMDAT ??$?0$$V@?$_Compressed_pair@U?$_Wrap_alloc@V?$allocator@D@std@@@std@@V?$_String_val@U?$_Simple_types@D@std@@@2@$00@std@@QAE@U_Zero_then_variadic_args_t@1@@Z
_TEXT	SEGMENT
_this$ = -4						; size = 4
___formal$ = 8						; size = 1
??$?0$$V@?$_Compressed_pair@U?$_Wrap_alloc@V?$allocator@D@std@@@std@@V?$_String_val@U?$_Simple_types@D@std@@@2@$00@std@@QAE@U_Zero_then_variadic_args_t@1@@Z PROC ; std::_Compressed_pair<std::_Wrap_alloc<std::allocator<char> >,std::_String_val<std::_Simple_types<char> >,1>::_Compressed_pair<std::_Wrap_alloc<std::allocator<char> >,std::_String_val<std::_Simple_types<char> >,1><>, COMDAT
; _this$ = ecx
; File c:\program files (x86)\microsoft visual studio 14.0\vc\include\xutility
; Line 280
	push	ebp
	mov	ebp, esp
	push	ecx
	mov	DWORD PTR _this$[ebp], ecx
; Line 279
	mov	ecx, DWORD PTR _this$[ebp]
	call	??0?$_Wrap_alloc@V?$allocator@D@std@@@std@@QAE@XZ ; std::_Wrap_alloc<std::allocator<char> >::_Wrap_alloc<std::allocator<char> >
	mov	ecx, DWORD PTR _this$[ebp]
	call	??0?$_String_val@U?$_Simple_types@D@std@@@std@@QAE@XZ ; std::_String_val<std::_Simple_types<char> >::_String_val<std::_Simple_types<char> >
; Line 281
	mov	eax, DWORD PTR _this$[ebp]
	mov	esp, ebp
	pop	ebp
	ret	4
??$?0$$V@?$_Compressed_pair@U?$_Wrap_alloc@V?$allocator@D@std@@@std@@V?$_String_val@U?$_Simple_types@D@std@@@2@$00@std@@QAE@U_Zero_then_variadic_args_t@1@@Z ENDP ; std::_Compressed_pair<std::_Wrap_alloc<std::allocator<char> >,std::_String_val<std::_Simple_types<char> >,1>::_Compressed_pair<std::_Wrap_alloc<std::allocator<char> >,std::_String_val<std::_Simple_types<char> >,1><>
_TEXT	ENDS
; Function compile flags: /Odtp
;	COMDAT ??$?0A6AXXZ$$VX@thread@std@@QAE@A6AXXZ@Z
_TEXT	SEGMENT
$T1 = -8						; size = 4
_this$ = -4						; size = 4
__Fx$ = 8						; size = 4
??$?0A6AXXZ$$VX@thread@std@@QAE@A6AXXZ@Z PROC		; std::thread::thread<void (__cdecl&)(void),void>, COMDAT
; _this$ = ecx
; File c:\program files (x86)\microsoft visual studio 14.0\vc\include\thread
; Line 47
	push	ebp
	mov	ebp, esp
	sub	esp, 8
	mov	DWORD PTR _this$[ebp], ecx
; Line 48
	mov	eax, DWORD PTR __Fx$[ebp]
	push	eax
	call	??$forward@A6AXXZ@std@@YAA6AXXZA6AXXZ@Z	; std::forward<void (__cdecl&)(void)>
	add	esp, 4
	push	eax
	lea	ecx, DWORD PTR $T1[ebp]
	push	ecx
	call	??$make_unique@V?$tuple@P6AXXZ@std@@A6AXXZ@std@@YA?AV?$unique_ptr@V?$tuple@P6AXXZ@std@@U?$default_delete@V?$tuple@P6AXXZ@std@@@2@@0@A6AXXZ@Z ; std::make_unique<std::tuple<void (__cdecl*)(void)>,void (__cdecl&)(void)>
	add	esp, 8
	push	eax
	mov	edx, DWORD PTR _this$[ebp]
	push	edx
	call	??$_Launch@V?$unique_ptr@V?$tuple@P6AXXZ@std@@U?$default_delete@V?$tuple@P6AXXZ@std@@@2@@std@@@std@@YAXPAU_Thrd_imp_t@@$$QAV?$unique_ptr@V?$tuple@P6AXXZ@std@@U?$default_delete@V?$tuple@P6AXXZ@std@@@2@@0@@Z ; std::_Launch<std::unique_ptr<std::tuple<void (__cdecl*)(void)>,std::default_delete<std::tuple<void (__cdecl*)(void)> > > >
	add	esp, 8
	lea	ecx, DWORD PTR $T1[ebp]
	call	??1?$unique_ptr@V?$tuple@P6AXXZ@std@@U?$default_delete@V?$tuple@P6AXXZ@std@@@2@@std@@QAE@XZ ; std::unique_ptr<std::tuple<void (__cdecl*)(void)>,std::default_delete<std::tuple<void (__cdecl*)(void)> > >::~unique_ptr<std::tuple<void (__cdecl*)(void)>,std::default_delete<std::tuple<void (__cdecl*)(void)> > >
; Line 51
	mov	eax, DWORD PTR _this$[ebp]
	mov	esp, ebp
	pop	ebp
	ret	4
??$?0A6AXXZ$$VX@thread@std@@QAE@A6AXXZ@Z ENDP		; std::thread::thread<void (__cdecl&)(void),void>
_TEXT	ENDS
; Function compile flags: /Odtp
_TEXT	SEGMENT
_t1$ = -16						; size = 8
_t2$ = -8						; size = 8
_main	PROC
; File c:\users\tony\cpp-learning\memory_barrier_intel.cpp
; Line 31
	push	ebp
	mov	ebp, esp
	sub	esp, 16					; 00000010H
; Line 32
	push	OFFSET ?producer@@YAXXZ			; producer
	lea	ecx, DWORD PTR _t1$[ebp]
	call	??$?0A6AXXZ$$VX@thread@std@@QAE@A6AXXZ@Z ; std::thread::thread<void (__cdecl&)(void),void>
; Line 33
	push	OFFSET ?consumer@@YAXXZ			; consumer
	lea	ecx, DWORD PTR _t2$[ebp]
	call	??$?0A6AXXZ$$VX@thread@std@@QAE@A6AXXZ@Z ; std::thread::thread<void (__cdecl&)(void),void>
; Line 34
	lea	ecx, DWORD PTR _t1$[ebp]
	call	?join@thread@std@@QAEXXZ		; std::thread::join
; Line 35
	lea	ecx, DWORD PTR _t2$[ebp]
	call	?join@thread@std@@QAEXXZ		; std::thread::join
; Line 36
	lea	ecx, DWORD PTR _t2$[ebp]
	call	??1thread@std@@QAE@XZ			; std::thread::~thread
	lea	ecx, DWORD PTR _t1$[ebp]
	call	??1thread@std@@QAE@XZ			; std::thread::~thread
	xor	eax, eax
	mov	esp, ebp
	pop	ebp
	ret	0
_main	ENDP
_TEXT	ENDS
; Function compile flags: /Odtp
;	COMDAT ??$?8DU?$char_traits@D@std@@V?$allocator@D@1@@std@@YA_NABV?$basic_string@DU?$char_traits@D@std@@V?$allocator@D@2@@0@PBD@Z
_TEXT	SEGMENT
tv68 = -4						; size = 4
__Left$ = 8						; size = 4
__Right$ = 12						; size = 4
??$?8DU?$char_traits@D@std@@V?$allocator@D@1@@std@@YA_NABV?$basic_string@DU?$char_traits@D@std@@V?$allocator@D@2@@0@PBD@Z PROC ; std::operator==<char,std::char_traits<char>,std::allocator<char> >, COMDAT
; File c:\program files (x86)\microsoft visual studio 14.0\vc\include\xstring
; Line 2479
	push	ebp
	mov	ebp, esp
	push	ecx
; Line 2480
	mov	eax, DWORD PTR __Right$[ebp]
	push	eax
	mov	ecx, DWORD PTR __Left$[ebp]
	call	?compare@?$basic_string@DU?$char_traits@D@std@@V?$allocator@D@2@@std@@QBEHPBD@Z ; std::basic_string<char,std::char_traits<char>,std::allocator<char> >::compare
	test	eax, eax
	jne	SHORT $LN3@operator
	mov	DWORD PTR tv68[ebp], 1
	jmp	SHORT $LN4@operator
$LN3@operator:
	mov	DWORD PTR tv68[ebp], 0
$LN4@operator:
	mov	al, BYTE PTR tv68[ebp]
; Line 2481
	mov	esp, ebp
	pop	ebp
	ret	0
??$?8DU?$char_traits@D@std@@V?$allocator@D@1@@std@@YA_NABV?$basic_string@DU?$char_traits@D@std@@V?$allocator@D@2@@0@PBD@Z ENDP ; std::operator==<char,std::char_traits<char>,std::allocator<char> >
_TEXT	ENDS
; Function compile flags: /Odtp
_TEXT	SEGMENT
_p2$ = -4						; size = 4
?consumer@@YAXXZ PROC					; consumer
; File c:\users\tony\cpp-learning\memory_barrier_intel.cpp
; Line 22
	push	ebp
	mov	ebp, esp
	push	ecx
$LN2@consumer:
; Line 26
	push	1
	mov	ecx, OFFSET ?ptr@@3U?$atomic@PAV?$basic_string@DU?$char_traits@D@std@@V?$allocator@D@2@@std@@@std@@A ; ptr
	call	?load@?$atomic@PAV?$basic_string@DU?$char_traits@D@std@@V?$allocator@D@2@@std@@@std@@QBEPAV?$basic_string@DU?$char_traits@D@std@@V?$allocator@D@2@@2@W4memory_order@2@@Z ; std::atomic<std::basic_string<char,std::char_traits<char>,std::allocator<char> > *>::load
	mov	DWORD PTR _p2$[ebp], eax
	cmp	DWORD PTR _p2$[ebp], 0
	jne	SHORT $LN3@consumer
	jmp	SHORT $LN2@consumer
$LN3@consumer:
; Line 27
	push	OFFSET $SG60101
	mov	eax, DWORD PTR _p2$[ebp]
	push	eax
	call	??$?8DU?$char_traits@D@std@@V?$allocator@D@1@@std@@YA_NABV?$basic_string@DU?$char_traits@D@std@@V?$allocator@D@2@@0@PBD@Z ; std::operator==<char,std::char_traits<char>,std::allocator<char> >
	add	esp, 8
	movzx	ecx, al
	test	ecx, ecx
	jne	SHORT $LN5@consumer
	push	27					; 0000001bH
	push	OFFSET $SG60102
	push	OFFSET $SG60103
	call	__wassert
	add	esp, 12					; 0000000cH
$LN5@consumer:
; Line 28
	cmp	DWORD PTR ?data@@3HA, 42		; data, 0000002aH
	je	SHORT $LN1@consumer
	push	28					; 0000001cH
	push	OFFSET $SG60104
	push	OFFSET $SG60105
	call	__wassert
	add	esp, 12					; 0000000cH
$LN1@consumer:
; Line 29
	mov	esp, ebp
	pop	ebp
	ret	0
?consumer@@YAXXZ ENDP					; consumer
_TEXT	ENDS
; Function compile flags: /Odtp
_TEXT	SEGMENT
_p$ = -12						; size = 4
tv73 = -8						; size = 4
$T1 = -4						; size = 4
?producer@@YAXXZ PROC					; producer
; File c:\users\tony\cpp-learning\memory_barrier_intel.cpp
; Line 14
	push	ebp
	mov	ebp, esp
	sub	esp, 12					; 0000000cH



; Line 15
	push	24					; 00000018H
	call	??2@YAPAXI@Z				; operator new
	add	esp, 4
	mov	DWORD PTR $T1[ebp], eax
	cmp	DWORD PTR $T1[ebp], 0
	je	SHORT $LN3@producer
	push	OFFSET $SG60052
	mov	ecx, DWORD PTR $T1[ebp]
	call	??0?$basic_string@DU?$char_traits@D@std@@V?$allocator@D@2@@std@@QAE@PBD@Z ; std::basic_string<char,std::char_traits<char>,std::allocator<char> >::basic_string<char,std::char_traits<char>,std::allocator<char> >
	mov	DWORD PTR tv73[ebp], eax
	jmp	SHORT $LN4@producer
$LN3@producer:
	mov	DWORD PTR tv73[ebp], 0
$LN4@producer:
	mov	eax, DWORD PTR tv73[ebp]


	mov	DWORD PTR _p$[ebp], eax


; Line 17
	mov	DWORD PTR ?data@@3HA, 42		; data, 0000002aH
	//  STORE  ATOMIC

; Line 19
	push	3
	mov	ecx, DWORD PTR _p$[ebp]
	push	ecx
	mov	ecx, OFFSET ?ptr@@3U?$atomic@PAV?$basic_string@DU?$char_traits@D@std@@V?$allocator@D@2@@std@@@std@@A ; ptr
	call	?store@?$atomic@PAV?$basic_string@DU?$char_traits@D@std@@V?$allocator@D@2@@std@@@std@@QAEXPAV?$basic_string@DU?$char_traits@D@std@@V?$allocator@D@2@@2@W4memory_order@2@@Z ; std::atomic<std::basic_string<char,std::char_traits<char>,std::allocator<char> > *>::store



; Line 20
	mov	esp, ebp
	pop	ebp
	ret	0
?producer@@YAXXZ ENDP					; producer
_TEXT	ENDS
; Function compile flags: /Odtp
;	COMDAT ?load@?$atomic@PAV?$basic_string@DU?$char_traits@D@std@@V?$allocator@D@2@@std@@@std@@QBEPAV?$basic_string@DU?$char_traits@D@std@@V?$allocator@D@2@@2@W4memory_order@2@@Z
_TEXT	SEGMENT
_this$ = -4						; size = 4
__Order$ = 8						; size = 4
?load@?$atomic@PAV?$basic_string@DU?$char_traits@D@std@@V?$allocator@D@2@@std@@@std@@QBEPAV?$basic_string@DU?$char_traits@D@std@@V?$allocator@D@2@@2@W4memory_order@2@@Z PROC ; std::atomic<std::basic_string<char,std::char_traits<char>,std::allocator<char> > *>::load, COMDAT
; _this$ = ecx
; File c:\program files (x86)\microsoft visual studio 14.0\vc\include\xxatomic
; Line 255
	push	ebp
	mov	ebp, esp
	push	ecx
	mov	DWORD PTR _this$[ebp], ecx
; Line 256
	mov	eax, DWORD PTR __Order$[ebp]
	push	eax
	mov	ecx, DWORD PTR _this$[ebp]
	call	?load@_Atomic_address@std@@QBEPAXW4memory_order@2@@Z ; std::_Atomic_address::load
; Line 257
	mov	esp, ebp
	pop	ebp
	ret	4
?load@?$atomic@PAV?$basic_string@DU?$char_traits@D@std@@V?$allocator@D@2@@std@@@std@@QBEPAV?$basic_string@DU?$char_traits@D@std@@V?$allocator@D@2@@2@W4memory_order@2@@Z ENDP ; std::atomic<std::basic_string<char,std::char_traits<char>,std::allocator<char> > *>::load
_TEXT	ENDS
; Function compile flags: /Odtp
;	COMDAT ?store@?$atomic@PAV?$basic_string@DU?$char_traits@D@std@@V?$allocator@D@2@@std@@@std@@QAEXPAV?$basic_string@DU?$char_traits@D@std@@V?$allocator@D@2@@2@W4memory_order@2@@Z
_TEXT	SEGMENT
_this$ = -4						; size = 4
__Value$ = 8						; size = 4
__Order$ = 12						; size = 4
?store@?$atomic@PAV?$basic_string@DU?$char_traits@D@std@@V?$allocator@D@2@@std@@@std@@QAEXPAV?$basic_string@DU?$char_traits@D@std@@V?$allocator@D@2@@2@W4memory_order@2@@Z PROC ; std::atomic<std::basic_string<char,std::char_traits<char>,std::allocator<char> > *>::store, COMDAT
; _this$ = ecx
; File c:\program files (x86)\microsoft visual studio 14.0\vc\include\xxatomic
; Line 243
	push	ebp
	mov	ebp, esp
	push	ecx
	mov	DWORD PTR _this$[ebp], ecx
; Line 244
	mov	eax, DWORD PTR __Order$[ebp]
	push	eax
	mov	ecx, DWORD PTR __Value$[ebp]
	push	ecx
	mov	ecx, DWORD PTR _this$[ebp]
	call	?store@_Atomic_address@std@@QAEXPAXW4memory_order@2@@Z ; std::_Atomic_address::store
; Line 245
	mov	esp, ebp
	pop	ebp
	ret	8
?store@?$atomic@PAV?$basic_string@DU?$char_traits@D@std@@V?$allocator@D@2@@std@@@std@@QAEXPAV?$basic_string@DU?$char_traits@D@std@@V?$allocator@D@2@@2@W4memory_order@2@@Z ENDP ; std::atomic<std::basic_string<char,std::char_traits<char>,std::allocator<char> > *>::store
_TEXT	ENDS
; Function compile flags: /Odtp
;	COMDAT ?_Xran@?$basic_string@DU?$char_traits@D@std@@V?$allocator@D@2@@std@@QBEXXZ
_TEXT	SEGMENT
_this$ = -4						; size = 4
?_Xran@?$basic_string@DU?$char_traits@D@std@@V?$allocator@D@2@@std@@QBEXXZ PROC ; std::basic_string<char,std::char_traits<char>,std::allocator<char> >::_Xran, COMDAT
; _this$ = ecx
; File c:\program files (x86)\microsoft visual studio 14.0\vc\include\xstring
; Line 2282
	push	ebp
	mov	ebp, esp
	push	ecx
	mov	DWORD PTR _this$[ebp], ecx
; Line 2283
	push	OFFSET ??_C@_0BI@CFPLBAOH@invalid?5string?5position?$AA@
	call	?_Xout_of_range@std@@YAXPBD@Z		; std::_Xout_of_range
$LN2@Xran:
; Line 2284
	mov	esp, ebp
	pop	ebp
	ret	0
?_Xran@?$basic_string@DU?$char_traits@D@std@@V?$allocator@D@2@@std@@QBEXXZ ENDP ; std::basic_string<char,std::char_traits<char>,std::allocator<char> >::_Xran
_TEXT	ENDS
; Function compile flags: /Odtp
;	COMDAT ?_Check_offset@?$basic_string@DU?$char_traits@D@std@@V?$allocator@D@2@@std@@QBEXI@Z
_TEXT	SEGMENT
_this$ = -4						; size = 4
__Off$ = 8						; size = 4
?_Check_offset@?$basic_string@DU?$char_traits@D@std@@V?$allocator@D@2@@std@@QBEXI@Z PROC ; std::basic_string<char,std::char_traits<char>,std::allocator<char> >::_Check_offset, COMDAT
; _this$ = ecx
; File c:\program files (x86)\microsoft visual studio 14.0\vc\include\xstring
; Line 2270
	push	ebp
	mov	ebp, esp
	push	ecx
	mov	DWORD PTR _this$[ebp], ecx
; Line 2271
	mov	ecx, DWORD PTR _this$[ebp]
	call	?_Mysize@?$_String_alloc@U?$_String_base_types@DV?$allocator@D@std@@@std@@@std@@QBEABIXZ ; std::_String_alloc<std::_String_base_types<char,std::allocator<char> > >::_Mysize
	mov	eax, DWORD PTR [eax]
	cmp	eax, DWORD PTR __Off$[ebp]
	jae	SHORT $LN3@Check_offs
; Line 2272
	mov	ecx, DWORD PTR _this$[ebp]
	call	?_Xran@?$basic_string@DU?$char_traits@D@std@@V?$allocator@D@2@@std@@QBEXXZ ; std::basic_string<char,std::char_traits<char>,std::allocator<char> >::_Xran
$LN3@Check_offs:
; Line 2273
	mov	esp, ebp
	pop	ebp
	ret	4
?_Check_offset@?$basic_string@DU?$char_traits@D@std@@V?$allocator@D@2@@std@@QBEXI@Z ENDP ; std::basic_string<char,std::char_traits<char>,std::allocator<char> >::_Check_offset
_TEXT	ENDS
; Function compile flags: /Odtp
;	COMDAT ?_Xlen@?$basic_string@DU?$char_traits@D@std@@V?$allocator@D@2@@std@@QBEXXZ
_TEXT	SEGMENT
_this$ = -4						; size = 4
?_Xlen@?$basic_string@DU?$char_traits@D@std@@V?$allocator@D@2@@std@@QBEXXZ PROC ; std::basic_string<char,std::char_traits<char>,std::allocator<char> >::_Xlen, COMDAT
; _this$ = ecx
; File c:\program files (x86)\microsoft visual studio 14.0\vc\include\xstring
; Line 2265
	push	ebp
	mov	ebp, esp
	push	ecx
	mov	DWORD PTR _this$[ebp], ecx
; Line 2266
	push	OFFSET ??_C@_0BA@JFNIOLAK@string?5too?5long?$AA@
	call	?_Xlength_error@std@@YAXPBD@Z		; std::_Xlength_error
$LN2@Xlen:
; Line 2267
	mov	esp, ebp
	pop	ebp
	ret	0
?_Xlen@?$basic_string@DU?$char_traits@D@std@@V?$allocator@D@2@@std@@QBEXXZ ENDP ; std::basic_string<char,std::char_traits<char>,std::allocator<char> >::_Xlen
_TEXT	ENDS
; Function compile flags: /Odtp
;	COMDAT ?_Tidy@?$basic_string@DU?$char_traits@D@std@@V?$allocator@D@2@@std@@QAEX_NI@Z
_TEXT	SEGMENT
__Ptr$1 = -8						; size = 4
_this$ = -4						; size = 4
__Built$ = 8						; size = 1
__Newsize$ = 12						; size = 4
?_Tidy@?$basic_string@DU?$char_traits@D@std@@V?$allocator@D@2@@std@@QAEX_NI@Z PROC ; std::basic_string<char,std::char_traits<char>,std::allocator<char> >::_Tidy, COMDAT
; _this$ = ecx
; File c:\program files (x86)\microsoft visual studio 14.0\vc\include\xstring
; Line 2248
	push	ebp
	mov	ebp, esp
	sub	esp, 8
	mov	DWORD PTR _this$[ebp], ecx
; Line 2249
	movzx	eax, BYTE PTR __Built$[ebp]
	test	eax, eax
	jne	SHORT $LN2@Tidy
	jmp	$LN3@Tidy
$LN2@Tidy:
; Line 2251
	mov	ecx, DWORD PTR _this$[ebp]
	call	?_Myres@?$_String_alloc@U?$_String_base_types@DV?$allocator@D@std@@@std@@@std@@QAEAAIXZ ; std::_String_alloc<std::_String_base_types<char,std::allocator<char> > >::_Myres
	cmp	DWORD PTR [eax], 16			; 00000010H
	jb	SHORT $LN3@Tidy
; Line 2253
	mov	ecx, DWORD PTR _this$[ebp]
	call	?_Bx@?$_String_alloc@U?$_String_base_types@DV?$allocator@D@std@@@std@@@std@@QAEAAT_Bxty@?$_String_val@U?$_Simple_types@D@std@@@2@XZ ; std::_String_alloc<std::_String_base_types<char,std::allocator<char> > >::_Bx
	mov	ecx, DWORD PTR [eax]
	mov	DWORD PTR __Ptr$1[ebp], ecx
; Line 2254
	mov	ecx, DWORD PTR _this$[ebp]
	call	?_Bx@?$_String_alloc@U?$_String_base_types@DV?$allocator@D@std@@@std@@@std@@QAEAAT_Bxty@?$_String_val@U?$_Simple_types@D@std@@@2@XZ ; std::_String_alloc<std::_String_base_types<char,std::allocator<char> > >::_Bx
	push	eax
	call	??$addressof@PAD@std@@YAPAPADAAPAD@Z	; std::addressof<char *>
	add	esp, 4
	push	eax
	mov	ecx, DWORD PTR _this$[ebp]
	call	?_Getal@?$_String_alloc@U?$_String_base_types@DV?$allocator@D@std@@@std@@@std@@QAEAAU?$_Wrap_alloc@V?$allocator@D@std@@@2@XZ ; std::_String_alloc<std::_String_base_types<char,std::allocator<char> > >::_Getal
	mov	ecx, eax
	call	??$destroy@PAD@?$_Wrap_alloc@V?$allocator@D@std@@@std@@QAEXPAPAD@Z ; std::_Wrap_alloc<std::allocator<char> >::destroy<char *>
; Line 2255
	cmp	DWORD PTR __Newsize$[ebp], 0
	jbe	SHORT $LN5@Tidy
; Line 2256
	mov	edx, DWORD PTR __Newsize$[ebp]
	push	edx
	mov	eax, DWORD PTR __Ptr$1[ebp]
	push	eax
	call	??$_Unfancy@D@std@@YAPADPAD@Z		; std::_Unfancy<char>
	add	esp, 4
	push	eax
	mov	ecx, DWORD PTR _this$[ebp]
	call	?_Bx@?$_String_alloc@U?$_String_base_types@DV?$allocator@D@std@@@std@@@std@@QAEAAT_Bxty@?$_String_val@U?$_Simple_types@D@std@@@2@XZ ; std::_String_alloc<std::_String_base_types<char,std::allocator<char> > >::_Bx
	push	eax
	call	?copy@?$char_traits@D@std@@SAPADPADPBDI@Z ; std::char_traits<char>::copy
	add	esp, 12					; 0000000cH
$LN5@Tidy:
; Line 2258
	mov	ecx, DWORD PTR _this$[ebp]
	call	?_Myres@?$_String_alloc@U?$_String_base_types@DV?$allocator@D@std@@@std@@@std@@QAEAAIXZ ; std::_String_alloc<std::_String_base_types<char,std::allocator<char> > >::_Myres
	mov	ecx, DWORD PTR [eax]
	add	ecx, 1
	push	ecx
	mov	edx, DWORD PTR __Ptr$1[ebp]
	push	edx
	mov	ecx, DWORD PTR _this$[ebp]
	call	?_Getal@?$_String_alloc@U?$_String_base_types@DV?$allocator@D@std@@@std@@@std@@QAEAAU?$_Wrap_alloc@V?$allocator@D@std@@@2@XZ ; std::_String_alloc<std::_String_base_types<char,std::allocator<char> > >::_Getal
	mov	ecx, eax
	call	?deallocate@?$_Wrap_alloc@V?$allocator@D@std@@@std@@QAEXPADI@Z ; std::_Wrap_alloc<std::allocator<char> >::deallocate
$LN3@Tidy:
; Line 2260
	mov	ecx, DWORD PTR _this$[ebp]
	call	?_Myres@?$_String_alloc@U?$_String_base_types@DV?$allocator@D@std@@@std@@@std@@QAEAAIXZ ; std::_String_alloc<std::_String_base_types<char,std::allocator<char> > >::_Myres
	mov	DWORD PTR [eax], 15			; 0000000fH
; Line 2261
	mov	eax, DWORD PTR __Newsize$[ebp]
	push	eax
	mov	ecx, DWORD PTR _this$[ebp]
	call	?_Eos@?$basic_string@DU?$char_traits@D@std@@V?$allocator@D@2@@std@@QAEXI@Z ; std::basic_string<char,std::char_traits<char>,std::allocator<char> >::_Eos
; Line 2262
	mov	esp, ebp
	pop	ebp
	ret	8
?_Tidy@?$basic_string@DU?$char_traits@D@std@@V?$allocator@D@2@@std@@QAEX_NI@Z ENDP ; std::basic_string<char,std::char_traits<char>,std::allocator<char> >::_Tidy
_TEXT	ENDS
; Function compile flags: /Odtp
;	COMDAT ?_Inside@?$basic_string@DU?$char_traits@D@std@@V?$allocator@D@2@@std@@QAE_NPBD@Z
_TEXT	SEGMENT
_this$ = -4						; size = 4
__Ptr$ = 8						; size = 4
?_Inside@?$basic_string@DU?$char_traits@D@std@@V?$allocator@D@2@@std@@QAE_NPBD@Z PROC ; std::basic_string<char,std::char_traits<char>,std::allocator<char> >::_Inside, COMDAT
; _this$ = ecx
; File c:\program files (x86)\microsoft visual studio 14.0\vc\include\xstring
; Line 2238
	push	ebp
	mov	ebp, esp
	push	ecx
	push	esi
	mov	DWORD PTR _this$[ebp], ecx
; Line 2240
	cmp	DWORD PTR __Ptr$[ebp], 0
	je	SHORT $LN4@Inside
	mov	ecx, DWORD PTR _this$[ebp]
	call	?_Myptr@?$_String_alloc@U?$_String_base_types@DV?$allocator@D@std@@@std@@@std@@QAEPADXZ ; std::_String_alloc<std::_String_base_types<char,std::allocator<char> > >::_Myptr
	cmp	DWORD PTR __Ptr$[ebp], eax
	jb	SHORT $LN4@Inside
	mov	ecx, DWORD PTR _this$[ebp]
	call	?_Myptr@?$_String_alloc@U?$_String_base_types@DV?$allocator@D@std@@@std@@@std@@QAEPADXZ ; std::_String_alloc<std::_String_base_types<char,std::allocator<char> > >::_Myptr
	mov	esi, eax
	mov	ecx, DWORD PTR _this$[ebp]
	call	?_Mysize@?$_String_alloc@U?$_String_base_types@DV?$allocator@D@std@@@std@@@std@@QAEAAIXZ ; std::_String_alloc<std::_String_base_types<char,std::allocator<char> > >::_Mysize
	add	esi, DWORD PTR [eax]
	cmp	esi, DWORD PTR __Ptr$[ebp]
	ja	SHORT $LN2@Inside
$LN4@Inside:
; Line 2241
	xor	al, al
	jmp	SHORT $LN1@Inside
; Line 2242
	jmp	SHORT $LN1@Inside
$LN2@Inside:
; Line 2243
	mov	al, 1
$LN1@Inside:
; Line 2244
	pop	esi
	mov	esp, ebp
	pop	ebp
	ret	4
?_Inside@?$basic_string@DU?$char_traits@D@std@@V?$allocator@D@2@@std@@QAE_NPBD@Z ENDP ; std::basic_string<char,std::char_traits<char>,std::allocator<char> >::_Inside
_TEXT	ENDS
; Function compile flags: /Odtp
;	COMDAT ?_Grow@?$basic_string@DU?$char_traits@D@std@@V?$allocator@D@2@@std@@QAE_NI_N@Z
_TEXT	SEGMENT
tv140 = -12						; size = 4
tv133 = -8						; size = 4
_this$ = -4						; size = 4
__Newsize$ = 8						; size = 4
__Trim$ = 12						; size = 1
?_Grow@?$basic_string@DU?$char_traits@D@std@@V?$allocator@D@2@@std@@QAE_NI_N@Z PROC ; std::basic_string<char,std::char_traits<char>,std::allocator<char> >::_Grow, COMDAT
; _this$ = ecx
; File c:\program files (x86)\microsoft visual studio 14.0\vc\include\xstring
; Line 2224
	push	ebp
	mov	ebp, esp
	sub	esp, 12					; 0000000cH
	mov	DWORD PTR _this$[ebp], ecx
; Line 2225
	mov	ecx, DWORD PTR _this$[ebp]
	call	?max_size@?$basic_string@DU?$char_traits@D@std@@V?$allocator@D@2@@std@@QBEIXZ ; std::basic_string<char,std::char_traits<char>,std::allocator<char> >::max_size
	cmp	eax, DWORD PTR __Newsize$[ebp]
	jae	SHORT $LN2@Grow
; Line 2226
	mov	ecx, DWORD PTR _this$[ebp]
	call	?_Xlen@?$basic_string@DU?$char_traits@D@std@@V?$allocator@D@2@@std@@QBEXXZ ; std::basic_string<char,std::char_traits<char>,std::allocator<char> >::_Xlen
$LN2@Grow:
; Line 2227
	mov	ecx, DWORD PTR _this$[ebp]
	call	?_Myres@?$_String_alloc@U?$_String_base_types@DV?$allocator@D@std@@@std@@@std@@QAEAAIXZ ; std::_String_alloc<std::_String_base_types<char,std::allocator<char> > >::_Myres
	mov	eax, DWORD PTR [eax]
	cmp	eax, DWORD PTR __Newsize$[ebp]
	jae	SHORT $LN3@Grow
; Line 2228
	mov	ecx, DWORD PTR _this$[ebp]
	call	?_Mysize@?$_String_alloc@U?$_String_base_types@DV?$allocator@D@std@@@std@@@std@@QAEAAIXZ ; std::_String_alloc<std::_String_base_types<char,std::allocator<char> > >::_Mysize
	mov	ecx, DWORD PTR [eax]
	push	ecx
	mov	edx, DWORD PTR __Newsize$[ebp]
	push	edx
	mov	ecx, DWORD PTR _this$[ebp]
	call	?_Copy@?$basic_string@DU?$char_traits@D@std@@V?$allocator@D@2@@std@@QAEXII@Z ; std::basic_string<char,std::char_traits<char>,std::allocator<char> >::_Copy
	jmp	SHORT $LN4@Grow
$LN3@Grow:
; Line 2229
	movzx	eax, BYTE PTR __Trim$[ebp]
	test	eax, eax
	je	SHORT $LN5@Grow
	cmp	DWORD PTR __Newsize$[ebp], 16		; 00000010H
	jae	SHORT $LN5@Grow
; Line 2230
	mov	ecx, DWORD PTR _this$[ebp]
	call	?_Mysize@?$_String_alloc@U?$_String_base_types@DV?$allocator@D@std@@@std@@@std@@QAEAAIXZ ; std::_String_alloc<std::_String_base_types<char,std::allocator<char> > >::_Mysize
	mov	ecx, DWORD PTR __Newsize$[ebp]
	cmp	ecx, DWORD PTR [eax]
	jae	SHORT $LN9@Grow
	mov	edx, DWORD PTR __Newsize$[ebp]
	mov	DWORD PTR tv133[ebp], edx
	jmp	SHORT $LN10@Grow
$LN9@Grow:
	mov	ecx, DWORD PTR _this$[ebp]
	call	?_Mysize@?$_String_alloc@U?$_String_base_types@DV?$allocator@D@std@@@std@@@std@@QAEAAIXZ ; std::_String_alloc<std::_String_base_types<char,std::allocator<char> > >::_Mysize
	mov	eax, DWORD PTR [eax]
	mov	DWORD PTR tv133[ebp], eax
$LN10@Grow:
	mov	ecx, DWORD PTR tv133[ebp]
	push	ecx
	push	1
	mov	ecx, DWORD PTR _this$[ebp]
	call	?_Tidy@?$basic_string@DU?$char_traits@D@std@@V?$allocator@D@2@@std@@QAEX_NI@Z ; std::basic_string<char,std::char_traits<char>,std::allocator<char> >::_Tidy
	jmp	SHORT $LN4@Grow
$LN5@Grow:
; Line 2232
	cmp	DWORD PTR __Newsize$[ebp], 0
	jne	SHORT $LN4@Grow
; Line 2233
	push	0
	mov	ecx, DWORD PTR _this$[ebp]
	call	?_Eos@?$basic_string@DU?$char_traits@D@std@@V?$allocator@D@2@@std@@QAEXI@Z ; std::basic_string<char,std::char_traits<char>,std::allocator<char> >::_Eos
$LN4@Grow:
; Line 2234
	cmp	DWORD PTR __Newsize$[ebp], 0
	jbe	SHORT $LN11@Grow
	mov	DWORD PTR tv140[ebp], 1
	jmp	SHORT $LN12@Grow
$LN11@Grow:
	mov	DWORD PTR tv140[ebp], 0
$LN12@Grow:
	mov	al, BYTE PTR tv140[ebp]
$LN8@Grow:
; Line 2235
	mov	esp, ebp
	pop	ebp
	ret	8
?_Grow@?$basic_string@DU?$char_traits@D@std@@V?$allocator@D@2@@std@@QAE_NI_N@Z ENDP ; std::basic_string<char,std::char_traits<char>,std::allocator<char> >::_Grow
_TEXT	ENDS
; Function compile flags: /Odtp
;	COMDAT ?_Eos@?$basic_string@DU?$char_traits@D@std@@V?$allocator@D@2@@std@@QAEXI@Z
_TEXT	SEGMENT
_this$ = -12						; size = 4
__Dx$ = -8						; size = 4
$T1 = -1						; size = 1
__Newsize$ = 8						; size = 4
?_Eos@?$basic_string@DU?$char_traits@D@std@@V?$allocator@D@2@@std@@QAEXI@Z PROC ; std::basic_string<char,std::char_traits<char>,std::allocator<char> >::_Eos, COMDAT
; _this$ = ecx
; File c:\program files (x86)\microsoft visual studio 14.0\vc\include\xstring
; Line 2217
	push	ebp
	mov	ebp, esp
	sub	esp, 12					; 0000000cH
	mov	DWORD PTR _this$[ebp], ecx
; Line 2218
	mov	ecx, DWORD PTR _this$[ebp]
	call	?_Get_data@?$_String_alloc@U?$_String_base_types@DV?$allocator@D@std@@@std@@@std@@QAEAAV?$_String_val@U?$_Simple_types@D@std@@@2@XZ ; std::_String_alloc<std::_String_base_types<char,std::allocator<char> > >::_Get_data
	mov	DWORD PTR __Dx$[ebp], eax
; Line 2219
	mov	BYTE PTR $T1[ebp], 0
	mov	eax, DWORD PTR __Dx$[ebp]
	mov	ecx, DWORD PTR __Newsize$[ebp]
	mov	DWORD PTR [eax+16], ecx
	lea	edx, DWORD PTR $T1[ebp]
	push	edx
	mov	ecx, DWORD PTR __Dx$[ebp]
	call	?_Myptr@?$_String_val@U?$_Simple_types@D@std@@@std@@QAEPADXZ ; std::_String_val<std::_Simple_types<char> >::_Myptr
	add	eax, DWORD PTR __Newsize$[ebp]
	push	eax
	call	?assign@?$char_traits@D@std@@SAXAADABD@Z ; std::char_traits<char>::assign
	add	esp, 8
; Line 2220
	mov	esp, ebp
	pop	ebp
	ret	4
?_Eos@?$basic_string@DU?$char_traits@D@std@@V?$allocator@D@2@@std@@QAEXI@Z ENDP ; std::basic_string<char,std::char_traits<char>,std::allocator<char> >::_Eos
_TEXT	ENDS
; Function compile flags: /Odtp
;	COMDAT ?_Copy@?$basic_string@DU?$char_traits@D@std@@V?$allocator@D@2@@std@@QAEXII@Z
_TEXT	SEGMENT
__Ptr$ = -28						; size = 4
__Newres$ = -24						; size = 4
_this$ = -20						; size = 4
__$EHRec$ = -16						; size = 16
__Newsize$ = 8						; size = 4
__Oldlen$ = 12						; size = 4
?_Copy@?$basic_string@DU?$char_traits@D@std@@V?$allocator@D@2@@std@@QAEXII@Z PROC ; std::basic_string<char,std::char_traits<char>,std::allocator<char> >::_Copy, COMDAT
; _this$ = ecx
; File c:\program files (x86)\microsoft visual studio 14.0\vc\include\xstring
; Line 2182
	push	ebp
	mov	ebp, esp
	push	-1
	push	__ehhandler$?_Copy@?$basic_string@DU?$char_traits@D@std@@V?$allocator@D@2@@std@@QAEXII@Z
	mov	eax, DWORD PTR fs:0
	push	eax
	push	ecx
	sub	esp, 12					; 0000000cH
	push	ebx
	push	esi
	push	edi
	mov	eax, DWORD PTR ___security_cookie
	xor	eax, ebp
	push	eax
	lea	eax, DWORD PTR __$EHRec$[ebp+4]
	mov	DWORD PTR fs:0, eax
	mov	DWORD PTR __$EHRec$[ebp], esp
	mov	DWORD PTR _this$[ebp], ecx
; Line 2183
	mov	eax, DWORD PTR __Newsize$[ebp]
	or	eax, 15					; 0000000fH
	mov	DWORD PTR __Newres$[ebp], eax
; Line 2184
	mov	ecx, DWORD PTR _this$[ebp]
	call	?max_size@?$basic_string@DU?$char_traits@D@std@@V?$allocator@D@2@@std@@QBEIXZ ; std::basic_string<char,std::char_traits<char>,std::allocator<char> >::max_size
	cmp	eax, DWORD PTR __Newres$[ebp]
	jae	SHORT $LN2@Copy
; Line 2185
	mov	ecx, DWORD PTR __Newsize$[ebp]
	mov	DWORD PTR __Newres$[ebp], ecx
	jmp	SHORT $LN3@Copy
$LN2@Copy:
; Line 2186
	mov	ecx, DWORD PTR _this$[ebp]
	call	?_Myres@?$_String_alloc@U?$_String_base_types@DV?$allocator@D@std@@@std@@@std@@QAEAAIXZ ; std::_String_alloc<std::_String_base_types<char,std::allocator<char> > >::_Myres
	mov	ecx, DWORD PTR [eax]
	shr	ecx, 1
	mov	eax, DWORD PTR __Newres$[ebp]
	xor	edx, edx
	mov	esi, 3
	div	esi
	cmp	ecx, eax
	ja	SHORT $LN4@Copy
	jmp	SHORT $LN3@Copy
$LN4@Copy:
; Line 2188
	mov	ecx, DWORD PTR _this$[ebp]
	call	?_Myres@?$_String_alloc@U?$_String_base_types@DV?$allocator@D@std@@@std@@@std@@QAEAAIXZ ; std::_String_alloc<std::_String_base_types<char,std::allocator<char> > >::_Myres
	mov	esi, eax
	mov	ecx, DWORD PTR _this$[ebp]
	call	?max_size@?$basic_string@DU?$char_traits@D@std@@V?$allocator@D@2@@std@@QBEIXZ ; std::basic_string<char,std::char_traits<char>,std::allocator<char> >::max_size
	mov	edi, eax
	mov	ecx, DWORD PTR _this$[ebp]
	call	?_Myres@?$_String_alloc@U?$_String_base_types@DV?$allocator@D@std@@@std@@@std@@QAEAAIXZ ; std::_String_alloc<std::_String_base_types<char,std::allocator<char> > >::_Myres
	mov	edx, DWORD PTR [eax]
	shr	edx, 1
	sub	edi, edx
	cmp	DWORD PTR [esi], edi
	ja	SHORT $LN6@Copy
; Line 2189
	mov	ecx, DWORD PTR _this$[ebp]
	call	?_Myres@?$_String_alloc@U?$_String_base_types@DV?$allocator@D@std@@@std@@@std@@QAEAAIXZ ; std::_String_alloc<std::_String_base_types<char,std::allocator<char> > >::_Myres
	mov	esi, eax
	mov	ecx, DWORD PTR _this$[ebp]
	call	?_Myres@?$_String_alloc@U?$_String_base_types@DV?$allocator@D@std@@@std@@@std@@QAEAAIXZ ; std::_String_alloc<std::_String_base_types<char,std::allocator<char> > >::_Myres
	mov	eax, DWORD PTR [eax]
	shr	eax, 1
	add	eax, DWORD PTR [esi]
	mov	DWORD PTR __Newres$[ebp], eax
; Line 2191
	jmp	SHORT $LN3@Copy
$LN6@Copy:
; Line 2192
	mov	ecx, DWORD PTR _this$[ebp]
	call	?max_size@?$basic_string@DU?$char_traits@D@std@@V?$allocator@D@2@@std@@QBEIXZ ; std::basic_string<char,std::char_traits<char>,std::allocator<char> >::max_size
	mov	DWORD PTR __Newres$[ebp], eax
$LN3@Copy:
; Line 2195
	mov	DWORD PTR __$EHRec$[ebp+12], 0
; Line 2196
	mov	ecx, DWORD PTR __Newres$[ebp]
	add	ecx, 1
	push	ecx
	mov	ecx, DWORD PTR _this$[ebp]
	call	?_Getal@?$_String_alloc@U?$_String_base_types@DV?$allocator@D@std@@@std@@@std@@QAEAAU?$_Wrap_alloc@V?$allocator@D@std@@@2@XZ ; std::_String_alloc<std::_String_base_types<char,std::allocator<char> > >::_Getal
	mov	ecx, eax
	call	?allocate@?$_Wrap_alloc@V?$allocator@D@std@@@std@@QAEPADI@Z ; std::_Wrap_alloc<std::allocator<char> >::allocate
	mov	DWORD PTR __Ptr$[ebp], eax
	jmp	SHORT $LN12@Copy
__catch$?_Copy@?$basic_string@DU?$char_traits@D@std@@V?$allocator@D@2@@std@@QAEXII@Z$0:
; Line 2197
	mov	DWORD PTR __$EHRec$[ebp], esp
; Line 2198
	mov	edx, DWORD PTR __Newsize$[ebp]
	mov	DWORD PTR __Newres$[ebp], edx
; Line 2199
	mov	BYTE PTR __$EHRec$[ebp+12], 2
; Line 2200
	mov	eax, DWORD PTR __Newres$[ebp]
	add	eax, 1
	push	eax
	mov	ecx, DWORD PTR _this$[ebp]
	call	?_Getal@?$_String_alloc@U?$_String_base_types@DV?$allocator@D@std@@@std@@@std@@QAEAAU?$_Wrap_alloc@V?$allocator@D@std@@@2@XZ ; std::_String_alloc<std::_String_base_types<char,std::allocator<char> > >::_Getal
	mov	ecx, eax
	call	?allocate@?$_Wrap_alloc@V?$allocator@D@std@@@std@@QAEPADI@Z ; std::_Wrap_alloc<std::allocator<char> >::allocate
	mov	DWORD PTR __Ptr$[ebp], eax
	jmp	SHORT $LN14@Copy
__catch$?_Copy@?$basic_string@DU?$char_traits@D@std@@V?$allocator@D@2@@std@@QAEXII@Z$1:
; Line 2202
	push	0
	push	1
	mov	ecx, DWORD PTR _this$[ebp]
	call	?_Tidy@?$basic_string@DU?$char_traits@D@std@@V?$allocator@D@2@@std@@QAEX_NI@Z ; std::basic_string<char,std::char_traits<char>,std::allocator<char> >::_Tidy
; Line 2203
	push	0
	push	0
	call	__CxxThrowException@8
; Line 2204
	mov	eax, $LN17@Copy
	ret	0
$LN14@Copy:
	mov	DWORD PTR __$EHRec$[ebp+12], 1
	jmp	SHORT __tryend$?_Copy@?$basic_string@DU?$char_traits@D@std@@V?$allocator@D@2@@std@@QAEXII@Z$2
$LN17@Copy:
	mov	DWORD PTR __$EHRec$[ebp+12], 1
__tryend$?_Copy@?$basic_string@DU?$char_traits@D@std@@V?$allocator@D@2@@std@@QAEXII@Z$2:
; Line 2205
	mov	eax, $LN19@Copy
	ret	0
$LN12@Copy:
	mov	DWORD PTR __$EHRec$[ebp+12], -1
	jmp	SHORT __tryend$?_Copy@?$basic_string@DU?$char_traits@D@std@@V?$allocator@D@2@@std@@QAEXII@Z$3
$LN19@Copy:
	mov	DWORD PTR __$EHRec$[ebp+12], -1
__tryend$?_Copy@?$basic_string@DU?$char_traits@D@std@@V?$allocator@D@2@@std@@QAEXII@Z$3:
; Line 2207
	cmp	DWORD PTR __Oldlen$[ebp], 0
	jbe	SHORT $LN10@Copy
; Line 2208
	mov	ecx, DWORD PTR __Oldlen$[ebp]
	push	ecx
	mov	ecx, DWORD PTR _this$[ebp]
	call	?_Myptr@?$_String_alloc@U?$_String_base_types@DV?$allocator@D@std@@@std@@@std@@QAEPADXZ ; std::_String_alloc<std::_String_base_types<char,std::allocator<char> > >::_Myptr
	push	eax
	mov	edx, DWORD PTR __Ptr$[ebp]
	push	edx
	call	??$_Unfancy@D@std@@YAPADPAD@Z		; std::_Unfancy<char>
	add	esp, 4
	push	eax
	call	?copy@?$char_traits@D@std@@SAPADPADPBDI@Z ; std::char_traits<char>::copy
	add	esp, 12					; 0000000cH
$LN10@Copy:
; Line 2210
	push	0
	push	1
	mov	ecx, DWORD PTR _this$[ebp]
	call	?_Tidy@?$basic_string@DU?$char_traits@D@std@@V?$allocator@D@2@@std@@QAEX_NI@Z ; std::basic_string<char,std::char_traits<char>,std::allocator<char> >::_Tidy
; Line 2211
	lea	eax, DWORD PTR __Ptr$[ebp]
	push	eax
	mov	ecx, DWORD PTR _this$[ebp]
	call	?_Bx@?$_String_alloc@U?$_String_base_types@DV?$allocator@D@std@@@std@@@std@@QAEAAT_Bxty@?$_String_val@U?$_Simple_types@D@std@@@2@XZ ; std::_String_alloc<std::_String_base_types<char,std::allocator<char> > >::_Bx
	push	eax
	call	??$addressof@PAD@std@@YAPAPADAAPAD@Z	; std::addressof<char *>
	add	esp, 4
	push	eax
	mov	ecx, DWORD PTR _this$[ebp]
	call	?_Getal@?$_String_alloc@U?$_String_base_types@DV?$allocator@D@std@@@std@@@std@@QAEAAU?$_Wrap_alloc@V?$allocator@D@std@@@2@XZ ; std::_String_alloc<std::_String_base_types<char,std::allocator<char> > >::_Getal
	mov	ecx, eax
	call	??$construct@PADAAPAD@?$_Wrap_alloc@V?$allocator@D@std@@@std@@QAEXPAPADAAPAD@Z ; std::_Wrap_alloc<std::allocator<char> >::construct<char *,char * &>
; Line 2212
	mov	ecx, DWORD PTR _this$[ebp]
	call	?_Myres@?$_String_alloc@U?$_String_base_types@DV?$allocator@D@std@@@std@@@std@@QAEAAIXZ ; std::_String_alloc<std::_String_base_types<char,std::allocator<char> > >::_Myres
	mov	ecx, DWORD PTR __Newres$[ebp]
	mov	DWORD PTR [eax], ecx
; Line 2213
	mov	edx, DWORD PTR __Oldlen$[ebp]
	push	edx
	mov	ecx, DWORD PTR _this$[ebp]
	call	?_Eos@?$basic_string@DU?$char_traits@D@std@@V?$allocator@D@2@@std@@QAEXI@Z ; std::basic_string<char,std::char_traits<char>,std::allocator<char> >::_Eos
$LN11@Copy:
; Line 2214
	mov	ecx, DWORD PTR __$EHRec$[ebp+4]
	mov	DWORD PTR fs:0, ecx
	pop	ecx
	pop	edi
	pop	esi
	pop	ebx
	mov	esp, ebp
	pop	ebp
	ret	8
_TEXT	ENDS
;	COMDAT text$x
text$x	SEGMENT
__ehhandler$?_Copy@?$basic_string@DU?$char_traits@D@std@@V?$allocator@D@2@@std@@QAEXII@Z:
	mov	edx, DWORD PTR [esp+8]
	lea	eax, DWORD PTR [edx+12]
	mov	ecx, DWORD PTR [edx-32]
	xor	ecx, eax
	call	@__security_check_cookie@4
	mov	eax, OFFSET __ehfuncinfo$?_Copy@?$basic_string@DU?$char_traits@D@std@@V?$allocator@D@2@@std@@QAEXII@Z
	jmp	___CxxFrameHandler3
text$x	ENDS
?_Copy@?$basic_string@DU?$char_traits@D@std@@V?$allocator@D@2@@std@@QAEXII@Z ENDP ; std::basic_string<char,std::char_traits<char>,std::allocator<char> >::_Copy
; Function compile flags: /Odtp
;	COMDAT ?compare@?$basic_string@DU?$char_traits@D@std@@V?$allocator@D@2@@std@@QBEHPBD@Z
_TEXT	SEGMENT
_this$ = -4						; size = 4
__Ptr$ = 8						; size = 4
?compare@?$basic_string@DU?$char_traits@D@std@@V?$allocator@D@2@@std@@QBEHPBD@Z PROC ; std::basic_string<char,std::char_traits<char>,std::allocator<char> >::compare, COMDAT
; _this$ = ecx
; File c:\program files (x86)\microsoft visual studio 14.0\vc\include\xstring
; Line 2144
	push	ebp
	mov	ebp, esp
	push	ecx
	mov	DWORD PTR _this$[ebp], ecx
; Line 2146
	mov	eax, DWORD PTR __Ptr$[ebp]
	push	eax
	call	?length@?$char_traits@D@std@@SAIPBD@Z	; std::char_traits<char>::length
	add	esp, 4
	push	eax
	mov	ecx, DWORD PTR __Ptr$[ebp]
	push	ecx
	mov	ecx, DWORD PTR _this$[ebp]
	call	?_Mysize@?$_String_alloc@U?$_String_base_types@DV?$allocator@D@std@@@std@@@std@@QBEABIXZ ; std::_String_alloc<std::_String_base_types<char,std::allocator<char> > >::_Mysize
	mov	edx, DWORD PTR [eax]
	push	edx
	mov	ecx, DWORD PTR _this$[ebp]
	call	?_Myptr@?$_String_alloc@U?$_String_base_types@DV?$allocator@D@std@@@std@@@std@@QBEPBDXZ ; std::_String_alloc<std::_String_base_types<char,std::allocator<char> > >::_Myptr
	push	eax
	call	?_Traits_compare@?$basic_string@DU?$char_traits@D@std@@V?$allocator@D@2@@std@@SAHQBDI0I@Z ; std::basic_string<char,std::char_traits<char>,std::allocator<char> >::_Traits_compare
	add	esp, 16					; 00000010H
; Line 2148
	mov	esp, ebp
	pop	ebp
	ret	4
?compare@?$basic_string@DU?$char_traits@D@std@@V?$allocator@D@2@@std@@QBEHPBD@Z ENDP ; std::basic_string<char,std::char_traits<char>,std::allocator<char> >::compare
_TEXT	ENDS
; Function compile flags: /Odtp
;	COMDAT ?_Clamp_suffix_size@?$basic_string@DU?$char_traits@D@std@@V?$allocator@D@2@@std@@QBEIII@Z
_TEXT	SEGMENT
_this$ = -8						; size = 4
__Max_effective_size$ = -4				; size = 4
__Off$ = 8						; size = 4
__Size$ = 12						; size = 4
?_Clamp_suffix_size@?$basic_string@DU?$char_traits@D@std@@V?$allocator@D@2@@std@@QBEIII@Z PROC ; std::basic_string<char,std::char_traits<char>,std::allocator<char> >::_Clamp_suffix_size, COMDAT
; _this$ = ecx
; File c:\program files (x86)\microsoft visual studio 14.0\vc\include\xstring
; Line 2111
	push	ebp
	mov	ebp, esp
	sub	esp, 8
	mov	DWORD PTR _this$[ebp], ecx
; Line 2112
	mov	ecx, DWORD PTR _this$[ebp]
	call	?_Mysize@?$_String_alloc@U?$_String_base_types@DV?$allocator@D@std@@@std@@@std@@QBEABIXZ ; std::_String_alloc<std::_String_base_types<char,std::allocator<char> > >::_Mysize
	mov	eax, DWORD PTR [eax]
	sub	eax, DWORD PTR __Off$[ebp]
	mov	DWORD PTR __Max_effective_size$[ebp], eax
; Line 2113
	mov	ecx, DWORD PTR __Size$[ebp]
	cmp	ecx, DWORD PTR __Max_effective_size$[ebp]
	ja	SHORT $LN2@Clamp_suff
; Line 2114
	mov	eax, DWORD PTR __Size$[ebp]
	jmp	SHORT $LN1@Clamp_suff
; Line 2115
	jmp	SHORT $LN1@Clamp_suff
$LN2@Clamp_suff:
; Line 2116
	mov	eax, DWORD PTR __Max_effective_size$[ebp]
$LN1@Clamp_suff:
; Line 2117
	mov	esp, ebp
	pop	ebp
	ret	8
?_Clamp_suffix_size@?$basic_string@DU?$char_traits@D@std@@V?$allocator@D@2@@std@@QBEIII@Z ENDP ; std::basic_string<char,std::char_traits<char>,std::allocator<char> >::_Clamp_suffix_size
_TEXT	ENDS
; Function compile flags: /Odtp
;	COMDAT ?_Traits_compare@?$basic_string@DU?$char_traits@D@std@@V?$allocator@D@2@@std@@SAHQBDI0I@Z
_TEXT	SEGMENT
__Min_size$ = -12					; size = 4
__Ans$ = -8						; size = 4
tv65 = -4						; size = 4
__Left$ = 8						; size = 4
__Left_size$ = 12					; size = 4
__Right$ = 16						; size = 4
__Right_size$ = 20					; size = 4
?_Traits_compare@?$basic_string@DU?$char_traits@D@std@@V?$allocator@D@2@@std@@SAHQBDI0I@Z PROC ; std::basic_string<char,std::char_traits<char>,std::allocator<char> >::_Traits_compare, COMDAT
; File c:\program files (x86)\microsoft visual studio 14.0\vc\include\xstring
; Line 2094
	push	ebp
	mov	ebp, esp
	sub	esp, 12					; 0000000cH
; Line 2095
	mov	eax, DWORD PTR __Left_size$[ebp]
	cmp	eax, DWORD PTR __Right_size$[ebp]
	jae	SHORT $LN6@Traits_com
	mov	ecx, DWORD PTR __Left_size$[ebp]
	mov	DWORD PTR tv65[ebp], ecx
	jmp	SHORT $LN7@Traits_com
$LN6@Traits_com:
	mov	edx, DWORD PTR __Right_size$[ebp]
	mov	DWORD PTR tv65[ebp], edx
$LN7@Traits_com:
	mov	eax, DWORD PTR tv65[ebp]
	mov	DWORD PTR __Min_size$[ebp], eax
; Line 2096
	mov	ecx, DWORD PTR __Min_size$[ebp]
	push	ecx
	mov	edx, DWORD PTR __Right$[ebp]
	push	edx
	mov	eax, DWORD PTR __Left$[ebp]
	push	eax
	call	?compare@?$char_traits@D@std@@SAHPBD0I@Z ; std::char_traits<char>::compare
	add	esp, 12					; 0000000cH
	mov	DWORD PTR __Ans$[ebp], eax
; Line 2098
	cmp	DWORD PTR __Ans$[ebp], 0
	je	SHORT $LN2@Traits_com
; Line 2099
	mov	eax, DWORD PTR __Ans$[ebp]
	jmp	SHORT $LN1@Traits_com
$LN2@Traits_com:
; Line 2101
	mov	ecx, DWORD PTR __Left_size$[ebp]
	cmp	ecx, DWORD PTR __Right_size$[ebp]
	jae	SHORT $LN3@Traits_com
; Line 2102
	or	eax, -1
	jmp	SHORT $LN1@Traits_com
$LN3@Traits_com:
; Line 2104
	mov	edx, DWORD PTR __Left_size$[ebp]
	cmp	edx, DWORD PTR __Right_size$[ebp]
	jbe	SHORT $LN4@Traits_com
; Line 2105
	mov	eax, 1
	jmp	SHORT $LN1@Traits_com
$LN4@Traits_com:
; Line 2107
	xor	eax, eax
$LN1@Traits_com:
; Line 2108
	mov	esp, ebp
	pop	ebp
	ret	0
?_Traits_compare@?$basic_string@DU?$char_traits@D@std@@V?$allocator@D@2@@std@@SAHQBDI0I@Z ENDP ; std::basic_string<char,std::char_traits<char>,std::allocator<char> >::_Traits_compare
_TEXT	ENDS
; Function compile flags: /Odtp
;	COMDAT ?max_size@?$basic_string@DU?$char_traits@D@std@@V?$allocator@D@2@@std@@QBEIXZ
_TEXT	SEGMENT
_this$ = -16						; size = 4
tv75 = -12						; size = 4
__Num$ = -8						; size = 4
$T1 = -1						; size = 1
?max_size@?$basic_string@DU?$char_traits@D@std@@V?$allocator@D@2@@std@@QBEIXZ PROC ; std::basic_string<char,std::char_traits<char>,std::allocator<char> >::max_size, COMDAT
; _this$ = ecx
; File c:\program files (x86)\microsoft visual studio 14.0\vc\include\xstring
; Line 1769
	push	ebp
	mov	ebp, esp
	sub	esp, 16					; 00000010H
	mov	DWORD PTR _this$[ebp], ecx
; Line 1770
	movzx	eax, BYTE PTR $T1[ebp]
	push	eax
	mov	ecx, DWORD PTR _this$[ebp]
	call	?_Getal@?$_String_alloc@U?$_String_base_types@DV?$allocator@D@std@@@std@@@std@@QBEABU?$_Wrap_alloc@V?$allocator@D@std@@@2@XZ ; std::_String_alloc<std::_String_base_types<char,std::allocator<char> > >::_Getal
	mov	ecx, eax
	call	?max_size@?$_Wrap_alloc@V?$allocator@D@std@@@std@@QBEIU_Nil@2@@Z ; std::_Wrap_alloc<std::allocator<char> >::max_size
	mov	DWORD PTR __Num$[ebp], eax
; Line 1771
	cmp	DWORD PTR __Num$[ebp], 1
	ja	SHORT $LN3@max_size
	mov	DWORD PTR tv75[ebp], 1
	jmp	SHORT $LN4@max_size
$LN3@max_size:
	mov	ecx, DWORD PTR __Num$[ebp]
	sub	ecx, 1
	mov	DWORD PTR tv75[ebp], ecx
$LN4@max_size:
	mov	eax, DWORD PTR tv75[ebp]
; Line 1772
	mov	esp, ebp
	pop	ebp
	ret	0
?max_size@?$basic_string@DU?$char_traits@D@std@@V?$allocator@D@2@@std@@QBEIXZ ENDP ; std::basic_string<char,std::char_traits<char>,std::allocator<char> >::max_size
_TEXT	ENDS
; Function compile flags: /Odtp
;	COMDAT ?erase@?$basic_string@DU?$char_traits@D@std@@V?$allocator@D@2@@std@@QAEAAV12@II@Z
_TEXT	SEGMENT
__Newsize$1 = -12					; size = 4
__Ptr$2 = -8						; size = 4
_this$ = -4						; size = 4
__Off$ = 8						; size = 4
__Count$ = 12						; size = 4
?erase@?$basic_string@DU?$char_traits@D@std@@V?$allocator@D@2@@std@@QAEAAV12@II@Z PROC ; std::basic_string<char,std::char_traits<char>,std::allocator<char> >::erase, COMDAT
; _this$ = ecx
; File c:\program files (x86)\microsoft visual studio 14.0\vc\include\xstring
; Line 1347
	push	ebp
	mov	ebp, esp
	sub	esp, 12					; 0000000cH
	mov	DWORD PTR _this$[ebp], ecx
; Line 1348
	mov	eax, DWORD PTR __Off$[ebp]
	push	eax
	mov	ecx, DWORD PTR _this$[ebp]
	call	?_Check_offset@?$basic_string@DU?$char_traits@D@std@@V?$allocator@D@2@@std@@QBEXI@Z ; std::basic_string<char,std::char_traits<char>,std::allocator<char> >::_Check_offset
; Line 1349
	mov	ecx, DWORD PTR _this$[ebp]
	call	?_Mysize@?$_String_alloc@U?$_String_base_types@DV?$allocator@D@std@@@std@@@std@@QAEAAIXZ ; std::_String_alloc<std::_String_base_types<char,std::allocator<char> > >::_Mysize
	mov	ecx, DWORD PTR [eax]
	sub	ecx, DWORD PTR __Off$[ebp]
	cmp	ecx, DWORD PTR __Count$[ebp]
	ja	SHORT $LN2@erase
; Line 1350
	mov	edx, DWORD PTR __Off$[ebp]
	push	edx
	mov	ecx, DWORD PTR _this$[ebp]
	call	?_Eos@?$basic_string@DU?$char_traits@D@std@@V?$allocator@D@2@@std@@QAEXI@Z ; std::basic_string<char,std::char_traits<char>,std::allocator<char> >::_Eos
	jmp	SHORT $LN3@erase
$LN2@erase:
; Line 1351
	cmp	DWORD PTR __Count$[ebp], 0
	jbe	SHORT $LN3@erase
; Line 1353
	mov	ecx, DWORD PTR _this$[ebp]
	call	?_Myptr@?$_String_alloc@U?$_String_base_types@DV?$allocator@D@std@@@std@@@std@@QAEPADXZ ; std::_String_alloc<std::_String_base_types<char,std::allocator<char> > >::_Myptr
	add	eax, DWORD PTR __Off$[ebp]
	mov	DWORD PTR __Ptr$2[ebp], eax
; Line 1354
	mov	ecx, DWORD PTR _this$[ebp]
	call	?_Mysize@?$_String_alloc@U?$_String_base_types@DV?$allocator@D@std@@@std@@@std@@QAEAAIXZ ; std::_String_alloc<std::_String_base_types<char,std::allocator<char> > >::_Mysize
	mov	eax, DWORD PTR [eax]
	sub	eax, DWORD PTR __Count$[ebp]
	mov	DWORD PTR __Newsize$1[ebp], eax
; Line 1355
	mov	ecx, DWORD PTR __Newsize$1[ebp]
	sub	ecx, DWORD PTR __Off$[ebp]
	push	ecx
	mov	edx, DWORD PTR __Ptr$2[ebp]
	add	edx, DWORD PTR __Count$[ebp]
	push	edx
	mov	eax, DWORD PTR __Ptr$2[ebp]
	push	eax
	call	?move@?$char_traits@D@std@@SAPADPADPBDI@Z ; std::char_traits<char>::move
	add	esp, 12					; 0000000cH
; Line 1356
	mov	ecx, DWORD PTR __Newsize$1[ebp]
	push	ecx
	mov	ecx, DWORD PTR _this$[ebp]
	call	?_Eos@?$basic_string@DU?$char_traits@D@std@@V?$allocator@D@2@@std@@QAEXI@Z ; std::basic_string<char,std::char_traits<char>,std::allocator<char> >::_Eos
$LN3@erase:
; Line 1358
	mov	eax, DWORD PTR _this$[ebp]
; Line 1359
	mov	esp, ebp
	pop	ebp
	ret	8
?erase@?$basic_string@DU?$char_traits@D@std@@V?$allocator@D@2@@std@@QAEAAV12@II@Z ENDP ; std::basic_string<char,std::char_traits<char>,std::allocator<char> >::erase
_TEXT	ENDS
; Function compile flags: /Odtp
;	COMDAT ?erase@?$basic_string@DU?$char_traits@D@std@@V?$allocator@D@2@@std@@QAEAAV12@I@Z
_TEXT	SEGMENT
_this$ = -4						; size = 4
__Off$ = 8						; size = 4
?erase@?$basic_string@DU?$char_traits@D@std@@V?$allocator@D@2@@std@@QAEAAV12@I@Z PROC ; std::basic_string<char,std::char_traits<char>,std::allocator<char> >::erase, COMDAT
; _this$ = ecx
; File c:\program files (x86)\microsoft visual studio 14.0\vc\include\xstring
; Line 1340
	push	ebp
	mov	ebp, esp
	push	ecx
	mov	DWORD PTR _this$[ebp], ecx
; Line 1341
	mov	eax, DWORD PTR __Off$[ebp]
	push	eax
	mov	ecx, DWORD PTR _this$[ebp]
	call	?_Check_offset@?$basic_string@DU?$char_traits@D@std@@V?$allocator@D@2@@std@@QBEXI@Z ; std::basic_string<char,std::char_traits<char>,std::allocator<char> >::_Check_offset
; Line 1342
	mov	ecx, DWORD PTR __Off$[ebp]
	push	ecx
	mov	ecx, DWORD PTR _this$[ebp]
	call	?_Eos@?$basic_string@DU?$char_traits@D@std@@V?$allocator@D@2@@std@@QAEXI@Z ; std::basic_string<char,std::char_traits<char>,std::allocator<char> >::_Eos
; Line 1343
	mov	eax, DWORD PTR _this$[ebp]
; Line 1344
	mov	esp, ebp
	pop	ebp
	ret	4
?erase@?$basic_string@DU?$char_traits@D@std@@V?$allocator@D@2@@std@@QAEAAV12@I@Z ENDP ; std::basic_string<char,std::char_traits<char>,std::allocator<char> >::erase
_TEXT	ENDS
; Function compile flags: /Odtp
;	COMDAT ?assign@?$basic_string@DU?$char_traits@D@std@@V?$allocator@D@2@@std@@QAEAAV12@PBD@Z
_TEXT	SEGMENT
_this$ = -4						; size = 4
__Ptr$ = 8						; size = 4
?assign@?$basic_string@DU?$char_traits@D@std@@V?$allocator@D@2@@std@@QAEAAV12@PBD@Z PROC ; std::basic_string<char,std::char_traits<char>,std::allocator<char> >::assign, COMDAT
; _this$ = ecx
; File c:\program files (x86)\microsoft visual studio 14.0\vc\include\xstring
; Line 1180
	push	ebp
	mov	ebp, esp
	push	ecx
	mov	DWORD PTR _this$[ebp], ecx
; Line 1182
	mov	eax, DWORD PTR __Ptr$[ebp]
	push	eax
	call	?length@?$char_traits@D@std@@SAIPBD@Z	; std::char_traits<char>::length
	add	esp, 4
	push	eax
	mov	ecx, DWORD PTR __Ptr$[ebp]
	push	ecx
	mov	ecx, DWORD PTR _this$[ebp]
	call	?assign@?$basic_string@DU?$char_traits@D@std@@V?$allocator@D@2@@std@@QAEAAV12@PBDI@Z ; std::basic_string<char,std::char_traits<char>,std::allocator<char> >::assign
; Line 1183
	mov	esp, ebp
	pop	ebp
	ret	4
?assign@?$basic_string@DU?$char_traits@D@std@@V?$allocator@D@2@@std@@QAEAAV12@PBD@Z ENDP ; std::basic_string<char,std::char_traits<char>,std::allocator<char> >::assign
_TEXT	ENDS
; Function compile flags: /Odtp
;	COMDAT ?assign@?$basic_string@DU?$char_traits@D@std@@V?$allocator@D@2@@std@@QAEAAV12@PBDI@Z
_TEXT	SEGMENT
_this$ = -4						; size = 4
__Ptr$ = 8						; size = 4
__Count$ = 12						; size = 4
?assign@?$basic_string@DU?$char_traits@D@std@@V?$allocator@D@2@@std@@QAEAAV12@PBDI@Z PROC ; std::basic_string<char,std::char_traits<char>,std::allocator<char> >::assign, COMDAT
; _this$ = ecx
; File c:\program files (x86)\microsoft visual studio 14.0\vc\include\xstring
; Line 1165
	push	ebp
	mov	ebp, esp
	push	ecx
	mov	DWORD PTR _this$[ebp], ecx
; Line 1167
	mov	eax, DWORD PTR __Ptr$[ebp]
	push	eax
	mov	ecx, DWORD PTR _this$[ebp]
	call	?_Inside@?$basic_string@DU?$char_traits@D@std@@V?$allocator@D@2@@std@@QAE_NPBD@Z ; std::basic_string<char,std::char_traits<char>,std::allocator<char> >::_Inside
	movzx	ecx, al
	test	ecx, ecx
	je	SHORT $LN2@assign
; Line 1168
	mov	edx, DWORD PTR __Count$[ebp]
	push	edx
	mov	ecx, DWORD PTR _this$[ebp]
	call	?_Myptr@?$_String_alloc@U?$_String_base_types@DV?$allocator@D@std@@@std@@@std@@QAEPADXZ ; std::_String_alloc<std::_String_base_types<char,std::allocator<char> > >::_Myptr
	mov	ecx, DWORD PTR __Ptr$[ebp]
	sub	ecx, eax
	push	ecx
	mov	edx, DWORD PTR _this$[ebp]
	push	edx
	mov	ecx, DWORD PTR _this$[ebp]
	call	?assign@?$basic_string@DU?$char_traits@D@std@@V?$allocator@D@2@@std@@QAEAAV12@ABV12@II@Z ; std::basic_string<char,std::char_traits<char>,std::allocator<char> >::assign
	jmp	SHORT $LN1@assign
$LN2@assign:
; Line 1171
	push	0
	mov	eax, DWORD PTR __Count$[ebp]
	push	eax
	mov	ecx, DWORD PTR _this$[ebp]
	call	?_Grow@?$basic_string@DU?$char_traits@D@std@@V?$allocator@D@2@@std@@QAE_NI_N@Z ; std::basic_string<char,std::char_traits<char>,std::allocator<char> >::_Grow
	movzx	ecx, al
	test	ecx, ecx
	je	SHORT $LN3@assign
; Line 1173
	mov	edx, DWORD PTR __Count$[ebp]
	push	edx
	mov	eax, DWORD PTR __Ptr$[ebp]
	push	eax
	mov	ecx, DWORD PTR _this$[ebp]
	call	?_Myptr@?$_String_alloc@U?$_String_base_types@DV?$allocator@D@std@@@std@@@std@@QAEPADXZ ; std::_String_alloc<std::_String_base_types<char,std::allocator<char> > >::_Myptr
	push	eax
	call	?copy@?$char_traits@D@std@@SAPADPADPBDI@Z ; std::char_traits<char>::copy
	add	esp, 12					; 0000000cH
; Line 1174
	mov	ecx, DWORD PTR __Count$[ebp]
	push	ecx
	mov	ecx, DWORD PTR _this$[ebp]
	call	?_Eos@?$basic_string@DU?$char_traits@D@std@@V?$allocator@D@2@@std@@QAEXI@Z ; std::basic_string<char,std::char_traits<char>,std::allocator<char> >::_Eos
$LN3@assign:
; Line 1176
	mov	eax, DWORD PTR _this$[ebp]
$LN1@assign:
; Line 1177
	mov	esp, ebp
	pop	ebp
	ret	8
?assign@?$basic_string@DU?$char_traits@D@std@@V?$allocator@D@2@@std@@QAEAAV12@PBDI@Z ENDP ; std::basic_string<char,std::char_traits<char>,std::allocator<char> >::assign
_TEXT	ENDS
; Function compile flags: /Odtp
;	COMDAT ?assign@?$basic_string@DU?$char_traits@D@std@@V?$allocator@D@2@@std@@QAEAAV12@ABV12@II@Z
_TEXT	SEGMENT
_this$ = -4						; size = 4
__Right$ = 8						; size = 4
__Roff$ = 12						; size = 4
__Count$ = 16						; size = 4
?assign@?$basic_string@DU?$char_traits@D@std@@V?$allocator@D@2@@std@@QAEAAV12@ABV12@II@Z PROC ; std::basic_string<char,std::char_traits<char>,std::allocator<char> >::assign, COMDAT
; _this$ = ecx
; File c:\program files (x86)\microsoft visual studio 14.0\vc\include\xstring
; Line 1149
	push	ebp
	mov	ebp, esp
	push	ecx
	mov	DWORD PTR _this$[ebp], ecx
; Line 1150
	mov	eax, DWORD PTR __Roff$[ebp]
	push	eax
	mov	ecx, DWORD PTR __Right$[ebp]
	call	?_Check_offset@?$basic_string@DU?$char_traits@D@std@@V?$allocator@D@2@@std@@QBEXI@Z ; std::basic_string<char,std::char_traits<char>,std::allocator<char> >::_Check_offset
; Line 1151
	mov	ecx, DWORD PTR __Count$[ebp]
	push	ecx
	mov	edx, DWORD PTR __Roff$[ebp]
	push	edx
	mov	ecx, DWORD PTR __Right$[ebp]
	call	?_Clamp_suffix_size@?$basic_string@DU?$char_traits@D@std@@V?$allocator@D@2@@std@@QBEIII@Z ; std::basic_string<char,std::char_traits<char>,std::allocator<char> >::_Clamp_suffix_size
	mov	DWORD PTR __Count$[ebp], eax
; Line 1153
	mov	eax, DWORD PTR _this$[ebp]
	cmp	eax, DWORD PTR __Right$[ebp]
	jne	SHORT $LN2@assign
; Line 1154
	mov	ecx, DWORD PTR __Roff$[ebp]
	add	ecx, DWORD PTR __Count$[ebp]
	push	ecx
	mov	ecx, DWORD PTR _this$[ebp]
	call	?erase@?$basic_string@DU?$char_traits@D@std@@V?$allocator@D@2@@std@@QAEAAV12@I@Z ; std::basic_string<char,std::char_traits<char>,std::allocator<char> >::erase
	mov	edx, DWORD PTR __Roff$[ebp]
	push	edx
	push	0
	mov	ecx, DWORD PTR _this$[ebp]
	call	?erase@?$basic_string@DU?$char_traits@D@std@@V?$allocator@D@2@@std@@QAEAAV12@II@Z ; std::basic_string<char,std::char_traits<char>,std::allocator<char> >::erase
	jmp	SHORT $LN3@assign
$LN2@assign:
; Line 1155
	push	0
	mov	eax, DWORD PTR __Count$[ebp]
	push	eax
	mov	ecx, DWORD PTR _this$[ebp]
	call	?_Grow@?$basic_string@DU?$char_traits@D@std@@V?$allocator@D@2@@std@@QAE_NI_N@Z ; std::basic_string<char,std::char_traits<char>,std::allocator<char> >::_Grow
	movzx	ecx, al
	test	ecx, ecx
	je	SHORT $LN3@assign
; Line 1157
	mov	edx, DWORD PTR __Count$[ebp]
	push	edx
	mov	ecx, DWORD PTR __Right$[ebp]
	call	?_Myptr@?$_String_alloc@U?$_String_base_types@DV?$allocator@D@std@@@std@@@std@@QBEPBDXZ ; std::_String_alloc<std::_String_base_types<char,std::allocator<char> > >::_Myptr
	add	eax, DWORD PTR __Roff$[ebp]
	push	eax
	mov	ecx, DWORD PTR _this$[ebp]
	call	?_Myptr@?$_String_alloc@U?$_String_base_types@DV?$allocator@D@std@@@std@@@std@@QAEPADXZ ; std::_String_alloc<std::_String_base_types<char,std::allocator<char> > >::_Myptr
	push	eax
	call	?copy@?$char_traits@D@std@@SAPADPADPBDI@Z ; std::char_traits<char>::copy
	add	esp, 12					; 0000000cH
; Line 1159
	mov	eax, DWORD PTR __Count$[ebp]
	push	eax
	mov	ecx, DWORD PTR _this$[ebp]
	call	?_Eos@?$basic_string@DU?$char_traits@D@std@@V?$allocator@D@2@@std@@QAEXI@Z ; std::basic_string<char,std::char_traits<char>,std::allocator<char> >::_Eos
$LN3@assign:
; Line 1161
	mov	eax, DWORD PTR _this$[ebp]
; Line 1162
	mov	esp, ebp
	pop	ebp
	ret	12					; 0000000cH
?assign@?$basic_string@DU?$char_traits@D@std@@V?$allocator@D@2@@std@@QAEAAV12@ABV12@II@Z ENDP ; std::basic_string<char,std::char_traits<char>,std::allocator<char> >::assign
_TEXT	ENDS
; Function compile flags: /Odtp
;	COMDAT ??0?$basic_string@DU?$char_traits@D@std@@V?$allocator@D@2@@std@@QAE@PBD@Z
_TEXT	SEGMENT
_this$ = -4						; size = 4
__Ptr$ = 8						; size = 4
??0?$basic_string@DU?$char_traits@D@std@@V?$allocator@D@2@@std@@QAE@PBD@Z PROC ; std::basic_string<char,std::char_traits<char>,std::allocator<char> >::basic_string<char,std::char_traits<char>,std::allocator<char> >, COMDAT
; _this$ = ecx
; File c:\program files (x86)\microsoft visual studio 14.0\vc\include\xstring
; Line 836
	push	ebp
	mov	ebp, esp
	push	ecx
	mov	DWORD PTR _this$[ebp], ecx
; Line 835
	mov	ecx, DWORD PTR _this$[ebp]
	call	??0?$_String_alloc@U?$_String_base_types@DV?$allocator@D@std@@@std@@@std@@QAE@XZ ; std::_String_alloc<std::_String_base_types<char,std::allocator<char> > >::_String_alloc<std::_String_base_types<char,std::allocator<char> > >
; Line 837
	push	0
	push	0
	mov	ecx, DWORD PTR _this$[ebp]
	call	?_Tidy@?$basic_string@DU?$char_traits@D@std@@V?$allocator@D@2@@std@@QAEX_NI@Z ; std::basic_string<char,std::char_traits<char>,std::allocator<char> >::_Tidy
; Line 838
	mov	eax, DWORD PTR __Ptr$[ebp]
	push	eax
	mov	ecx, DWORD PTR _this$[ebp]
	call	?assign@?$basic_string@DU?$char_traits@D@std@@V?$allocator@D@2@@std@@QAEAAV12@PBD@Z ; std::basic_string<char,std::char_traits<char>,std::allocator<char> >::assign
; Line 839
	mov	eax, DWORD PTR _this$[ebp]
	mov	esp, ebp
	pop	ebp
	ret	4
??0?$basic_string@DU?$char_traits@D@std@@V?$allocator@D@2@@std@@QAE@PBD@Z ENDP ; std::basic_string<char,std::char_traits<char>,std::allocator<char> >::basic_string<char,std::char_traits<char>,std::allocator<char> >
_TEXT	ENDS
; Function compile flags: /Odtp
;	COMDAT ?_Get_second@?$_Compressed_pair@U?$_Wrap_alloc@V?$allocator@D@std@@@std@@V?$_String_val@U?$_Simple_types@D@std@@@2@$00@std@@QBEABV?$_String_val@U?$_Simple_types@D@std@@@2@XZ
_TEXT	SEGMENT
_this$ = -4						; size = 4
?_Get_second@?$_Compressed_pair@U?$_Wrap_alloc@V?$allocator@D@std@@@std@@V?$_String_val@U?$_Simple_types@D@std@@@2@$00@std@@QBEABV?$_String_val@U?$_Simple_types@D@std@@@2@XZ PROC ; std::_Compressed_pair<std::_Wrap_alloc<std::allocator<char> >,std::_String_val<std::_Simple_types<char> >,1>::_Get_second, COMDAT
; _this$ = ecx
; File c:\program files (x86)\microsoft visual studio 14.0\vc\include\xutility
; Line 319
	push	ebp
	mov	ebp, esp
	push	ecx
	mov	DWORD PTR _this$[ebp], ecx
; Line 320
	mov	eax, DWORD PTR _this$[ebp]
; Line 321
	mov	esp, ebp
	pop	ebp
	ret	0
?_Get_second@?$_Compressed_pair@U?$_Wrap_alloc@V?$allocator@D@std@@@std@@V?$_String_val@U?$_Simple_types@D@std@@@2@$00@std@@QBEABV?$_String_val@U?$_Simple_types@D@std@@@2@XZ ENDP ; std::_Compressed_pair<std::_Wrap_alloc<std::allocator<char> >,std::_String_val<std::_Simple_types<char> >,1>::_Get_second
_TEXT	ENDS
; Function compile flags: /Odtp
;	COMDAT ?_Get_second@?$_Compressed_pair@U?$_Wrap_alloc@V?$allocator@D@std@@@std@@V?$_String_val@U?$_Simple_types@D@std@@@2@$00@std@@QAEAAV?$_String_val@U?$_Simple_types@D@std@@@2@XZ
_TEXT	SEGMENT
_this$ = -4						; size = 4
?_Get_second@?$_Compressed_pair@U?$_Wrap_alloc@V?$allocator@D@std@@@std@@V?$_String_val@U?$_Simple_types@D@std@@@2@$00@std@@QAEAAV?$_String_val@U?$_Simple_types@D@std@@@2@XZ PROC ; std::_Compressed_pair<std::_Wrap_alloc<std::allocator<char> >,std::_String_val<std::_Simple_types<char> >,1>::_Get_second, COMDAT
; _this$ = ecx
; File c:\program files (x86)\microsoft visual studio 14.0\vc\include\xutility
; Line 314
	push	ebp
	mov	ebp, esp
	push	ecx
	mov	DWORD PTR _this$[ebp], ecx
; Line 315
	mov	eax, DWORD PTR _this$[ebp]
; Line 316
	mov	esp, ebp
	pop	ebp
	ret	0
?_Get_second@?$_Compressed_pair@U?$_Wrap_alloc@V?$allocator@D@std@@@std@@V?$_String_val@U?$_Simple_types@D@std@@@2@$00@std@@QAEAAV?$_String_val@U?$_Simple_types@D@std@@@2@XZ ENDP ; std::_Compressed_pair<std::_Wrap_alloc<std::allocator<char> >,std::_String_val<std::_Simple_types<char> >,1>::_Get_second
_TEXT	ENDS
; Function compile flags: /Odtp
;	COMDAT ?_Get_first@?$_Compressed_pair@U?$_Wrap_alloc@V?$allocator@D@std@@@std@@V?$_String_val@U?$_Simple_types@D@std@@@2@$00@std@@QBEABU?$_Wrap_alloc@V?$allocator@D@std@@@2@XZ
_TEXT	SEGMENT
_this$ = -4						; size = 4
?_Get_first@?$_Compressed_pair@U?$_Wrap_alloc@V?$allocator@D@std@@@std@@V?$_String_val@U?$_Simple_types@D@std@@@2@$00@std@@QBEABU?$_Wrap_alloc@V?$allocator@D@std@@@2@XZ PROC ; std::_Compressed_pair<std::_Wrap_alloc<std::allocator<char> >,std::_String_val<std::_Simple_types<char> >,1>::_Get_first, COMDAT
; _this$ = ecx
; File c:\program files (x86)\microsoft visual studio 14.0\vc\include\xutility
; Line 299
	push	ebp
	mov	ebp, esp
	push	ecx
	mov	DWORD PTR _this$[ebp], ecx
; Line 300
	mov	eax, DWORD PTR _this$[ebp]
; Line 301
	mov	esp, ebp
	pop	ebp
	ret	0
?_Get_first@?$_Compressed_pair@U?$_Wrap_alloc@V?$allocator@D@std@@@std@@V?$_String_val@U?$_Simple_types@D@std@@@2@$00@std@@QBEABU?$_Wrap_alloc@V?$allocator@D@std@@@2@XZ ENDP ; std::_Compressed_pair<std::_Wrap_alloc<std::allocator<char> >,std::_String_val<std::_Simple_types<char> >,1>::_Get_first
_TEXT	ENDS
; Function compile flags: /Odtp
;	COMDAT ?_Get_first@?$_Compressed_pair@U?$_Wrap_alloc@V?$allocator@D@std@@@std@@V?$_String_val@U?$_Simple_types@D@std@@@2@$00@std@@QAEAAU?$_Wrap_alloc@V?$allocator@D@std@@@2@XZ
_TEXT	SEGMENT
_this$ = -4						; size = 4
?_Get_first@?$_Compressed_pair@U?$_Wrap_alloc@V?$allocator@D@std@@@std@@V?$_String_val@U?$_Simple_types@D@std@@@2@$00@std@@QAEAAU?$_Wrap_alloc@V?$allocator@D@std@@@2@XZ PROC ; std::_Compressed_pair<std::_Wrap_alloc<std::allocator<char> >,std::_String_val<std::_Simple_types<char> >,1>::_Get_first, COMDAT
; _this$ = ecx
; File c:\program files (x86)\microsoft visual studio 14.0\vc\include\xutility
; Line 294
	push	ebp
	mov	ebp, esp
	push	ecx
	mov	DWORD PTR _this$[ebp], ecx
; Line 295
	mov	eax, DWORD PTR _this$[ebp]
; Line 296
	mov	esp, ebp
	pop	ebp
	ret	0
?_Get_first@?$_Compressed_pair@U?$_Wrap_alloc@V?$allocator@D@std@@@std@@V?$_String_val@U?$_Simple_types@D@std@@@2@$00@std@@QAEAAU?$_Wrap_alloc@V?$allocator@D@std@@@2@XZ ENDP ; std::_Compressed_pair<std::_Wrap_alloc<std::allocator<char> >,std::_String_val<std::_Simple_types<char> >,1>::_Get_first
_TEXT	ENDS
; Function compile flags: /Odtp
;	COMDAT ?_Myres@?$_String_alloc@U?$_String_base_types@DV?$allocator@D@std@@@std@@@std@@QAEAAIXZ
_TEXT	SEGMENT
_this$ = -4						; size = 4
?_Myres@?$_String_alloc@U?$_String_base_types@DV?$allocator@D@std@@@std@@@std@@QAEAAIXZ PROC ; std::_String_alloc<std::_String_base_types<char,std::allocator<char> > >::_Myres, COMDAT
; _this$ = ecx
; File c:\program files (x86)\microsoft visual studio 14.0\vc\include\xstring
; Line 733
	push	ebp
	mov	ebp, esp
	push	ecx
	mov	DWORD PTR _this$[ebp], ecx
; Line 734
	mov	ecx, DWORD PTR _this$[ebp]
	call	?_Get_data@?$_String_alloc@U?$_String_base_types@DV?$allocator@D@std@@@std@@@std@@QAEAAV?$_String_val@U?$_Simple_types@D@std@@@2@XZ ; std::_String_alloc<std::_String_base_types<char,std::allocator<char> > >::_Get_data
	add	eax, 20					; 00000014H
; Line 735
	mov	esp, ebp
	pop	ebp
	ret	0
?_Myres@?$_String_alloc@U?$_String_base_types@DV?$allocator@D@std@@@std@@@std@@QAEAAIXZ ENDP ; std::_String_alloc<std::_String_base_types<char,std::allocator<char> > >::_Myres
_TEXT	ENDS
; Function compile flags: /Odtp
;	COMDAT ?_Mysize@?$_String_alloc@U?$_String_base_types@DV?$allocator@D@std@@@std@@@std@@QBEABIXZ
_TEXT	SEGMENT
_this$ = -4						; size = 4
?_Mysize@?$_String_alloc@U?$_String_base_types@DV?$allocator@D@std@@@std@@@std@@QBEABIXZ PROC ; std::_String_alloc<std::_String_base_types<char,std::allocator<char> > >::_Mysize, COMDAT
; _this$ = ecx
; File c:\program files (x86)\microsoft visual studio 14.0\vc\include\xstring
; Line 728
	push	ebp
	mov	ebp, esp
	push	ecx
	mov	DWORD PTR _this$[ebp], ecx
; Line 729
	mov	ecx, DWORD PTR _this$[ebp]
	call	?_Get_data@?$_String_alloc@U?$_String_base_types@DV?$allocator@D@std@@@std@@@std@@QBEABV?$_String_val@U?$_Simple_types@D@std@@@2@XZ ; std::_String_alloc<std::_String_base_types<char,std::allocator<char> > >::_Get_data
	add	eax, 16					; 00000010H
; Line 730
	mov	esp, ebp
	pop	ebp
	ret	0
?_Mysize@?$_String_alloc@U?$_String_base_types@DV?$allocator@D@std@@@std@@@std@@QBEABIXZ ENDP ; std::_String_alloc<std::_String_base_types<char,std::allocator<char> > >::_Mysize
_TEXT	ENDS
; Function compile flags: /Odtp
;	COMDAT ?_Mysize@?$_String_alloc@U?$_String_base_types@DV?$allocator@D@std@@@std@@@std@@QAEAAIXZ
_TEXT	SEGMENT
_this$ = -4						; size = 4
?_Mysize@?$_String_alloc@U?$_String_base_types@DV?$allocator@D@std@@@std@@@std@@QAEAAIXZ PROC ; std::_String_alloc<std::_String_base_types<char,std::allocator<char> > >::_Mysize, COMDAT
; _this$ = ecx
; File c:\program files (x86)\microsoft visual studio 14.0\vc\include\xstring
; Line 723
	push	ebp
	mov	ebp, esp
	push	ecx
	mov	DWORD PTR _this$[ebp], ecx
; Line 724
	mov	ecx, DWORD PTR _this$[ebp]
	call	?_Get_data@?$_String_alloc@U?$_String_base_types@DV?$allocator@D@std@@@std@@@std@@QAEAAV?$_String_val@U?$_Simple_types@D@std@@@2@XZ ; std::_String_alloc<std::_String_base_types<char,std::allocator<char> > >::_Get_data
	add	eax, 16					; 00000010H
; Line 725
	mov	esp, ebp
	pop	ebp
	ret	0
?_Mysize@?$_String_alloc@U?$_String_base_types@DV?$allocator@D@std@@@std@@@std@@QAEAAIXZ ENDP ; std::_String_alloc<std::_String_base_types<char,std::allocator<char> > >::_Mysize
_TEXT	ENDS
; Function compile flags: /Odtp
;	COMDAT ?_Bx@?$_String_alloc@U?$_String_base_types@DV?$allocator@D@std@@@std@@@std@@QAEAAT_Bxty@?$_String_val@U?$_Simple_types@D@std@@@2@XZ
_TEXT	SEGMENT
_this$ = -4						; size = 4
?_Bx@?$_String_alloc@U?$_String_base_types@DV?$allocator@D@std@@@std@@@std@@QAEAAT_Bxty@?$_String_val@U?$_Simple_types@D@std@@@2@XZ PROC ; std::_String_alloc<std::_String_base_types<char,std::allocator<char> > >::_Bx, COMDAT
; _this$ = ecx
; File c:\program files (x86)\microsoft visual studio 14.0\vc\include\xstring
; Line 713
	push	ebp
	mov	ebp, esp
	push	ecx
	mov	DWORD PTR _this$[ebp], ecx
; Line 714
	mov	ecx, DWORD PTR _this$[ebp]
	call	?_Get_data@?$_String_alloc@U?$_String_base_types@DV?$allocator@D@std@@@std@@@std@@QAEAAV?$_String_val@U?$_Simple_types@D@std@@@2@XZ ; std::_String_alloc<std::_String_base_types<char,std::allocator<char> > >::_Get_data
; Line 715
	mov	esp, ebp
	pop	ebp
	ret	0
?_Bx@?$_String_alloc@U?$_String_base_types@DV?$allocator@D@std@@@std@@@std@@QAEAAT_Bxty@?$_String_val@U?$_Simple_types@D@std@@@2@XZ ENDP ; std::_String_alloc<std::_String_base_types<char,std::allocator<char> > >::_Bx
_TEXT	ENDS
; Function compile flags: /Odtp
;	COMDAT ?_Get_data@?$_String_alloc@U?$_String_base_types@DV?$allocator@D@std@@@std@@@std@@QBEABV?$_String_val@U?$_Simple_types@D@std@@@2@XZ
_TEXT	SEGMENT
_this$ = -4						; size = 4
?_Get_data@?$_String_alloc@U?$_String_base_types@DV?$allocator@D@std@@@std@@@std@@QBEABV?$_String_val@U?$_Simple_types@D@std@@@2@XZ PROC ; std::_String_alloc<std::_String_base_types<char,std::allocator<char> > >::_Get_data, COMDAT
; _this$ = ecx
; File c:\program files (x86)\microsoft visual studio 14.0\vc\include\xstring
; Line 706
	push	ebp
	mov	ebp, esp
	push	ecx
	mov	DWORD PTR _this$[ebp], ecx
; Line 707
	mov	ecx, DWORD PTR _this$[ebp]
	call	?_Get_second@?$_Compressed_pair@U?$_Wrap_alloc@V?$allocator@D@std@@@std@@V?$_String_val@U?$_Simple_types@D@std@@@2@$00@std@@QBEABV?$_String_val@U?$_Simple_types@D@std@@@2@XZ ; std::_Compressed_pair<std::_Wrap_alloc<std::allocator<char> >,std::_String_val<std::_Simple_types<char> >,1>::_Get_second
; Line 708
	mov	esp, ebp
	pop	ebp
	ret	0
?_Get_data@?$_String_alloc@U?$_String_base_types@DV?$allocator@D@std@@@std@@@std@@QBEABV?$_String_val@U?$_Simple_types@D@std@@@2@XZ ENDP ; std::_String_alloc<std::_String_base_types<char,std::allocator<char> > >::_Get_data
_TEXT	ENDS
; Function compile flags: /Odtp
;	COMDAT ?_Get_data@?$_String_alloc@U?$_String_base_types@DV?$allocator@D@std@@@std@@@std@@QAEAAV?$_String_val@U?$_Simple_types@D@std@@@2@XZ
_TEXT	SEGMENT
_this$ = -4						; size = 4
?_Get_data@?$_String_alloc@U?$_String_base_types@DV?$allocator@D@std@@@std@@@std@@QAEAAV?$_String_val@U?$_Simple_types@D@std@@@2@XZ PROC ; std::_String_alloc<std::_String_base_types<char,std::allocator<char> > >::_Get_data, COMDAT
; _this$ = ecx
; File c:\program files (x86)\microsoft visual studio 14.0\vc\include\xstring
; Line 701
	push	ebp
	mov	ebp, esp
	push	ecx
	mov	DWORD PTR _this$[ebp], ecx
; Line 702
	mov	ecx, DWORD PTR _this$[ebp]
	call	?_Get_second@?$_Compressed_pair@U?$_Wrap_alloc@V?$allocator@D@std@@@std@@V?$_String_val@U?$_Simple_types@D@std@@@2@$00@std@@QAEAAV?$_String_val@U?$_Simple_types@D@std@@@2@XZ ; std::_Compressed_pair<std::_Wrap_alloc<std::allocator<char> >,std::_String_val<std::_Simple_types<char> >,1>::_Get_second
; Line 703
	mov	esp, ebp
	pop	ebp
	ret	0
?_Get_data@?$_String_alloc@U?$_String_base_types@DV?$allocator@D@std@@@std@@@std@@QAEAAV?$_String_val@U?$_Simple_types@D@std@@@2@XZ ENDP ; std::_String_alloc<std::_String_base_types<char,std::allocator<char> > >::_Get_data
_TEXT	ENDS
; Function compile flags: /Odtp
;	COMDAT ?_Getal@?$_String_alloc@U?$_String_base_types@DV?$allocator@D@std@@@std@@@std@@QBEABU?$_Wrap_alloc@V?$allocator@D@std@@@2@XZ
_TEXT	SEGMENT
_this$ = -4						; size = 4
?_Getal@?$_String_alloc@U?$_String_base_types@DV?$allocator@D@std@@@std@@@std@@QBEABU?$_Wrap_alloc@V?$allocator@D@std@@@2@XZ PROC ; std::_String_alloc<std::_String_base_types<char,std::allocator<char> > >::_Getal, COMDAT
; _this$ = ecx
; File c:\program files (x86)\microsoft visual studio 14.0\vc\include\xstring
; Line 696
	push	ebp
	mov	ebp, esp
	push	ecx
	mov	DWORD PTR _this$[ebp], ecx
; Line 697
	mov	ecx, DWORD PTR _this$[ebp]
	call	?_Get_first@?$_Compressed_pair@U?$_Wrap_alloc@V?$allocator@D@std@@@std@@V?$_String_val@U?$_Simple_types@D@std@@@2@$00@std@@QBEABU?$_Wrap_alloc@V?$allocator@D@std@@@2@XZ ; std::_Compressed_pair<std::_Wrap_alloc<std::allocator<char> >,std::_String_val<std::_Simple_types<char> >,1>::_Get_first
; Line 698
	mov	esp, ebp
	pop	ebp
	ret	0
?_Getal@?$_String_alloc@U?$_String_base_types@DV?$allocator@D@std@@@std@@@std@@QBEABU?$_Wrap_alloc@V?$allocator@D@std@@@2@XZ ENDP ; std::_String_alloc<std::_String_base_types<char,std::allocator<char> > >::_Getal
_TEXT	ENDS
; Function compile flags: /Odtp
;	COMDAT ?_Getal@?$_String_alloc@U?$_String_base_types@DV?$allocator@D@std@@@std@@@std@@QAEAAU?$_Wrap_alloc@V?$allocator@D@std@@@2@XZ
_TEXT	SEGMENT
_this$ = -4						; size = 4
?_Getal@?$_String_alloc@U?$_String_base_types@DV?$allocator@D@std@@@std@@@std@@QAEAAU?$_Wrap_alloc@V?$allocator@D@std@@@2@XZ PROC ; std::_String_alloc<std::_String_base_types<char,std::allocator<char> > >::_Getal, COMDAT
; _this$ = ecx
; File c:\program files (x86)\microsoft visual studio 14.0\vc\include\xstring
; Line 691
	push	ebp
	mov	ebp, esp
	push	ecx
	mov	DWORD PTR _this$[ebp], ecx
; Line 692
	mov	ecx, DWORD PTR _this$[ebp]
	call	?_Get_first@?$_Compressed_pair@U?$_Wrap_alloc@V?$allocator@D@std@@@std@@V?$_String_val@U?$_Simple_types@D@std@@@2@$00@std@@QAEAAU?$_Wrap_alloc@V?$allocator@D@std@@@2@XZ ; std::_Compressed_pair<std::_Wrap_alloc<std::allocator<char> >,std::_String_val<std::_Simple_types<char> >,1>::_Get_first
; Line 693
	mov	esp, ebp
	pop	ebp
	ret	0
?_Getal@?$_String_alloc@U?$_String_base_types@DV?$allocator@D@std@@@std@@@std@@QAEAAU?$_Wrap_alloc@V?$allocator@D@std@@@2@XZ ENDP ; std::_String_alloc<std::_String_base_types<char,std::allocator<char> > >::_Getal
_TEXT	ENDS
; Function compile flags: /Odtp
;	COMDAT ??0?$_String_alloc@U?$_String_base_types@DV?$allocator@D@std@@@std@@@std@@QAE@XZ
_TEXT	SEGMENT
_this$ = -8						; size = 4
$T1 = -1						; size = 1
??0?$_String_alloc@U?$_String_base_types@DV?$allocator@D@std@@@std@@@std@@QAE@XZ PROC ; std::_String_alloc<std::_String_base_types<char,std::allocator<char> > >::_String_alloc<std::_String_base_types<char,std::allocator<char> > >, COMDAT
; _this$ = ecx
; File c:\program files (x86)\microsoft visual studio 14.0\vc\include\xstring
; Line 589
	push	ebp
	mov	ebp, esp
	sub	esp, 8
	mov	DWORD PTR _this$[ebp], ecx
; Line 588
	movzx	eax, BYTE PTR $T1[ebp]
	push	eax
	mov	ecx, DWORD PTR _this$[ebp]
	call	??$?0$$V@?$_Compressed_pair@U?$_Wrap_alloc@V?$allocator@D@std@@@std@@V?$_String_val@U?$_Simple_types@D@std@@@2@$00@std@@QAE@U_Zero_then_variadic_args_t@1@@Z ; std::_Compressed_pair<std::_Wrap_alloc<std::allocator<char> >,std::_String_val<std::_Simple_types<char> >,1>::_Compressed_pair<std::_Wrap_alloc<std::allocator<char> >,std::_String_val<std::_Simple_types<char> >,1><>
; Line 590
	mov	eax, DWORD PTR _this$[ebp]
	mov	esp, ebp
	pop	ebp
	ret	0
??0?$_String_alloc@U?$_String_base_types@DV?$allocator@D@std@@@std@@@std@@QAE@XZ ENDP ; std::_String_alloc<std::_String_base_types<char,std::allocator<char> > >::_String_alloc<std::_String_base_types<char,std::allocator<char> > >
_TEXT	ENDS
; Function compile flags: /Odtp
;	COMDAT ?_Myptr@?$_String_alloc@U?$_String_base_types@DV?$allocator@D@std@@@std@@@std@@QBEPBDXZ
_TEXT	SEGMENT
_this$ = -4						; size = 4
?_Myptr@?$_String_alloc@U?$_String_base_types@DV?$allocator@D@std@@@std@@@std@@QBEPBDXZ PROC ; std::_String_alloc<std::_String_base_types<char,std::allocator<char> > >::_Myptr, COMDAT
; _this$ = ecx
; File c:\program files (x86)\microsoft visual studio 14.0\vc\include\xstring
; Line 582
	push	ebp
	mov	ebp, esp
	push	ecx
	mov	DWORD PTR _this$[ebp], ecx
; Line 583
	mov	ecx, DWORD PTR _this$[ebp]
	call	?_Get_data@?$_String_alloc@U?$_String_base_types@DV?$allocator@D@std@@@std@@@std@@QBEABV?$_String_val@U?$_Simple_types@D@std@@@2@XZ ; std::_String_alloc<std::_String_base_types<char,std::allocator<char> > >::_Get_data
	mov	ecx, eax
	call	?_Myptr@?$_String_val@U?$_Simple_types@D@std@@@std@@QBEPBDXZ ; std::_String_val<std::_Simple_types<char> >::_Myptr
; Line 584
	mov	esp, ebp
	pop	ebp
	ret	0
?_Myptr@?$_String_alloc@U?$_String_base_types@DV?$allocator@D@std@@@std@@@std@@QBEPBDXZ ENDP ; std::_String_alloc<std::_String_base_types<char,std::allocator<char> > >::_Myptr
_TEXT	ENDS
; Function compile flags: /Odtp
;	COMDAT ?_Myptr@?$_String_alloc@U?$_String_base_types@DV?$allocator@D@std@@@std@@@std@@QAEPADXZ
_TEXT	SEGMENT
_this$ = -4						; size = 4
?_Myptr@?$_String_alloc@U?$_String_base_types@DV?$allocator@D@std@@@std@@@std@@QAEPADXZ PROC ; std::_String_alloc<std::_String_base_types<char,std::allocator<char> > >::_Myptr, COMDAT
; _this$ = ecx
; File c:\program files (x86)\microsoft visual studio 14.0\vc\include\xstring
; Line 577
	push	ebp
	mov	ebp, esp
	push	ecx
	mov	DWORD PTR _this$[ebp], ecx
; Line 578
	mov	ecx, DWORD PTR _this$[ebp]
	call	?_Get_data@?$_String_alloc@U?$_String_base_types@DV?$allocator@D@std@@@std@@@std@@QAEAAV?$_String_val@U?$_Simple_types@D@std@@@2@XZ ; std::_String_alloc<std::_String_base_types<char,std::allocator<char> > >::_Get_data
	mov	ecx, eax
	call	?_Myptr@?$_String_val@U?$_Simple_types@D@std@@@std@@QAEPADXZ ; std::_String_val<std::_Simple_types<char> >::_Myptr
; Line 579
	mov	esp, ebp
	pop	ebp
	ret	0
?_Myptr@?$_String_alloc@U?$_String_base_types@DV?$allocator@D@std@@@std@@@std@@QAEPADXZ ENDP ; std::_String_alloc<std::_String_base_types<char,std::allocator<char> > >::_Myptr
_TEXT	ENDS
; Function compile flags: /Odtp
;	COMDAT ??0_Bxty@?$_String_val@U?$_Simple_types@D@std@@@std@@QAE@XZ
_TEXT	SEGMENT
_this$ = -4						; size = 4
??0_Bxty@?$_String_val@U?$_Simple_types@D@std@@@std@@QAE@XZ PROC ; std::_String_val<std::_Simple_types<char> >::_Bxty::_Bxty, COMDAT
; _this$ = ecx
; File c:\program files (x86)\microsoft visual studio 14.0\vc\include\xstring
; Line 528
	push	ebp
	mov	ebp, esp
	push	ecx
	mov	DWORD PTR _this$[ebp], ecx
; Line 530
	mov	eax, DWORD PTR _this$[ebp]
	mov	esp, ebp
	pop	ebp
	ret	0
??0_Bxty@?$_String_val@U?$_Simple_types@D@std@@@std@@QAE@XZ ENDP ; std::_String_val<std::_Simple_types<char> >::_Bxty::_Bxty
_TEXT	ENDS
; Function compile flags: /Odtp
;	COMDAT ?_Myptr@?$_String_val@U?$_Simple_types@D@std@@@std@@QBEPBDXZ
_TEXT	SEGMENT
tv72 = -8						; size = 4
_this$ = -4						; size = 4
?_Myptr@?$_String_val@U?$_Simple_types@D@std@@@std@@QBEPBDXZ PROC ; std::_String_val<std::_Simple_types<char> >::_Myptr, COMDAT
; _this$ = ecx
; File c:\program files (x86)\microsoft visual studio 14.0\vc\include\xstring
; Line 520
	push	ebp
	mov	ebp, esp
	sub	esp, 8
	mov	DWORD PTR _this$[ebp], ecx
; Line 521
	mov	eax, DWORD PTR _this$[ebp]
	cmp	DWORD PTR [eax+20], 16			; 00000010H
	jb	SHORT $LN3@Myptr
	mov	ecx, DWORD PTR _this$[ebp]
	mov	edx, DWORD PTR [ecx]
	push	edx
	call	??$_Unfancy@D@std@@YAPADPAD@Z		; std::_Unfancy<char>
	add	esp, 4
	mov	DWORD PTR tv72[ebp], eax
	jmp	SHORT $LN4@Myptr
$LN3@Myptr:
	mov	eax, DWORD PTR _this$[ebp]
	mov	DWORD PTR tv72[ebp], eax
$LN4@Myptr:
	mov	eax, DWORD PTR tv72[ebp]
; Line 524
	mov	esp, ebp
	pop	ebp
	ret	0
?_Myptr@?$_String_val@U?$_Simple_types@D@std@@@std@@QBEPBDXZ ENDP ; std::_String_val<std::_Simple_types<char> >::_Myptr
_TEXT	ENDS
; Function compile flags: /Odtp
;	COMDAT ?_Myptr@?$_String_val@U?$_Simple_types@D@std@@@std@@QAEPADXZ
_TEXT	SEGMENT
tv72 = -8						; size = 4
_this$ = -4						; size = 4
?_Myptr@?$_String_val@U?$_Simple_types@D@std@@@std@@QAEPADXZ PROC ; std::_String_val<std::_Simple_types<char> >::_Myptr, COMDAT
; _this$ = ecx
; File c:\program files (x86)\microsoft visual studio 14.0\vc\include\xstring
; Line 513
	push	ebp
	mov	ebp, esp
	sub	esp, 8
	mov	DWORD PTR _this$[ebp], ecx
; Line 514
	mov	eax, DWORD PTR _this$[ebp]
	cmp	DWORD PTR [eax+20], 16			; 00000010H
	jb	SHORT $LN3@Myptr
	mov	ecx, DWORD PTR _this$[ebp]
	mov	edx, DWORD PTR [ecx]
	push	edx
	call	??$_Unfancy@D@std@@YAPADPAD@Z		; std::_Unfancy<char>
	add	esp, 4
	mov	DWORD PTR tv72[ebp], eax
	jmp	SHORT $LN4@Myptr
$LN3@Myptr:
	mov	eax, DWORD PTR _this$[ebp]
	mov	DWORD PTR tv72[ebp], eax
$LN4@Myptr:
	mov	eax, DWORD PTR tv72[ebp]
; Line 517
	mov	esp, ebp
	pop	ebp
	ret	0
?_Myptr@?$_String_val@U?$_Simple_types@D@std@@@std@@QAEPADXZ ENDP ; std::_String_val<std::_Simple_types<char> >::_Myptr
_TEXT	ENDS
; Function compile flags: /Odtp
;	COMDAT ??0?$_String_val@U?$_Simple_types@D@std@@@std@@QAE@XZ
_TEXT	SEGMENT
_this$ = -4						; size = 4
??0?$_String_val@U?$_Simple_types@D@std@@@std@@QAE@XZ PROC ; std::_String_val<std::_Simple_types<char> >::_String_val<std::_Simple_types<char> >, COMDAT
; _this$ = ecx
; File c:\program files (x86)\microsoft visual studio 14.0\vc\include\xstring
; Line 498
	push	ebp
	mov	ebp, esp
	push	ecx
	mov	DWORD PTR _this$[ebp], ecx
; Line 495
	mov	ecx, DWORD PTR _this$[ebp]
	call	??0_Bxty@?$_String_val@U?$_Simple_types@D@std@@@std@@QAE@XZ ; std::_String_val<std::_Simple_types<char> >::_Bxty::_Bxty
; Line 496
	mov	eax, DWORD PTR _this$[ebp]
	mov	DWORD PTR [eax+16], 0
; Line 497
	mov	ecx, DWORD PTR _this$[ebp]
	mov	DWORD PTR [ecx+20], 0
; Line 499
	mov	eax, DWORD PTR _this$[ebp]
	mov	esp, ebp
	pop	ebp
	ret	0
??0?$_String_val@U?$_Simple_types@D@std@@@std@@QAE@XZ ENDP ; std::_String_val<std::_Simple_types<char> >::_String_val<std::_Simple_types<char> >
_TEXT	ENDS
; Function compile flags: /Odtp
;	COMDAT ?max_size@?$_Wrap_alloc@V?$allocator@D@std@@@std@@QBEIU_Nil@2@@Z
_TEXT	SEGMENT
_this$ = -4						; size = 4
___formal$ = 8						; size = 1
?max_size@?$_Wrap_alloc@V?$allocator@D@std@@@std@@QBEIU_Nil@2@@Z PROC ; std::_Wrap_alloc<std::allocator<char> >::max_size, COMDAT
; _this$ = ecx
; File c:\program files (x86)\microsoft visual studio 14.0\vc\include\xmemory0
; Line 1007
	push	ebp
	mov	ebp, esp
	push	ecx
	mov	DWORD PTR _this$[ebp], ecx
; Line 1008
	mov	eax, DWORD PTR _this$[ebp]
	push	eax
	call	?max_size@?$allocator_traits@V?$allocator@D@std@@@std@@SAIABV?$allocator@D@2@@Z ; std::allocator_traits<std::allocator<char> >::max_size
	add	esp, 4
; Line 1009
	mov	esp, ebp
	pop	ebp
	ret	4
?max_size@?$_Wrap_alloc@V?$allocator@D@std@@@std@@QBEIU_Nil@2@@Z ENDP ; std::_Wrap_alloc<std::allocator<char> >::max_size
_TEXT	ENDS
; Function compile flags: /Odtp
;	COMDAT ?deallocate@?$_Wrap_alloc@V?$allocator@D@std@@@std@@QAEXPADI@Z
_TEXT	SEGMENT
_this$ = -4						; size = 4
__Ptr$ = 8						; size = 4
__Count$ = 12						; size = 4
?deallocate@?$_Wrap_alloc@V?$allocator@D@std@@@std@@QAEXPADI@Z PROC ; std::_Wrap_alloc<std::allocator<char> >::deallocate, COMDAT
; _this$ = ecx
; File c:\program files (x86)\microsoft visual studio 14.0\vc\include\xmemory0
; Line 986
	push	ebp
	mov	ebp, esp
	push	ecx
	mov	DWORD PTR _this$[ebp], ecx
; Line 987
	mov	eax, DWORD PTR __Count$[ebp]
	push	eax
	mov	ecx, DWORD PTR __Ptr$[ebp]
	push	ecx
	mov	ecx, DWORD PTR _this$[ebp]
	call	?deallocate@?$allocator@D@std@@QAEXPADI@Z ; std::allocator<char>::deallocate
; Line 988
	mov	esp, ebp
	pop	ebp
	ret	8
?deallocate@?$_Wrap_alloc@V?$allocator@D@std@@@std@@QAEXPADI@Z ENDP ; std::_Wrap_alloc<std::allocator<char> >::deallocate
_TEXT	ENDS
; Function compile flags: /Odtp
;	COMDAT ?allocate@?$_Wrap_alloc@V?$allocator@D@std@@@std@@QAEPADI@Z
_TEXT	SEGMENT
_this$ = -4						; size = 4
__Count$ = 8						; size = 4
?allocate@?$_Wrap_alloc@V?$allocator@D@std@@@std@@QAEPADI@Z PROC ; std::_Wrap_alloc<std::allocator<char> >::allocate, COMDAT
; _this$ = ecx
; File c:\program files (x86)\microsoft visual studio 14.0\vc\include\xmemory0
; Line 975
	push	ebp
	mov	ebp, esp
	push	ecx
	mov	DWORD PTR _this$[ebp], ecx
; Line 976
	mov	eax, DWORD PTR __Count$[ebp]
	push	eax
	mov	ecx, DWORD PTR _this$[ebp]
	call	?allocate@?$allocator@D@std@@QAEPADI@Z	; std::allocator<char>::allocate
; Line 977
	mov	esp, ebp
	pop	ebp
	ret	4
?allocate@?$_Wrap_alloc@V?$allocator@D@std@@@std@@QAEPADI@Z ENDP ; std::_Wrap_alloc<std::allocator<char> >::allocate
_TEXT	ENDS
; Function compile flags: /Odtp
;	COMDAT ??0?$_Wrap_alloc@V?$allocator@D@std@@@std@@QAE@XZ
_TEXT	SEGMENT
_this$ = -4						; size = 4
??0?$_Wrap_alloc@V?$allocator@D@std@@@std@@QAE@XZ PROC	; std::_Wrap_alloc<std::allocator<char> >::_Wrap_alloc<std::allocator<char> >, COMDAT
; _this$ = ecx
; File c:\program files (x86)\microsoft visual studio 14.0\vc\include\xmemory0
; Line 936
	push	ebp
	mov	ebp, esp
	push	ecx
	mov	DWORD PTR _this$[ebp], ecx
; Line 935
	mov	ecx, DWORD PTR _this$[ebp]
	call	??0?$allocator@D@std@@QAE@XZ		; std::allocator<char>::allocator<char>
; Line 937
	mov	eax, DWORD PTR _this$[ebp]
	mov	esp, ebp
	pop	ebp
	ret	0
??0?$_Wrap_alloc@V?$allocator@D@std@@@std@@QAE@XZ ENDP	; std::_Wrap_alloc<std::allocator<char> >::_Wrap_alloc<std::allocator<char> >
_TEXT	ENDS
; Function compile flags: /Odtp
;	COMDAT ?max_size@?$allocator_traits@V?$allocator@D@std@@@std@@SAIABV?$allocator@D@2@@Z
_TEXT	SEGMENT
__Al$ = 8						; size = 4
?max_size@?$allocator_traits@V?$allocator@D@std@@@std@@SAIABV?$allocator@D@2@@Z PROC ; std::allocator_traits<std::allocator<char> >::max_size, COMDAT
; File c:\program files (x86)\microsoft visual studio 14.0\vc\include\xmemory0
; Line 868
	push	ebp
	mov	ebp, esp
; Line 869
	mov	ecx, DWORD PTR __Al$[ebp]
	call	?max_size@?$allocator@D@std@@QBEIXZ	; std::allocator<char>::max_size
; Line 870
	pop	ebp
	ret	0
?max_size@?$allocator_traits@V?$allocator@D@std@@@std@@SAIABV?$allocator@D@2@@Z ENDP ; std::allocator_traits<std::allocator<char> >::max_size
_TEXT	ENDS
; Function compile flags: /Odtp
;	COMDAT ?max_size@?$allocator@D@std@@QBEIXZ
_TEXT	SEGMENT
_this$ = -4						; size = 4
?max_size@?$allocator@D@std@@QBEIXZ PROC		; std::allocator<char>::max_size, COMDAT
; _this$ = ecx
; File c:\program files (x86)\microsoft visual studio 14.0\vc\include\xmemory0
; Line 748
	push	ebp
	mov	ebp, esp
	push	ecx
	mov	DWORD PTR _this$[ebp], ecx
; Line 749
	or	eax, -1
; Line 750
	mov	esp, ebp
	pop	ebp
	ret	0
?max_size@?$allocator@D@std@@QBEIXZ ENDP		; std::allocator<char>::max_size
_TEXT	ENDS
; Function compile flags: /Odtp
;	COMDAT ?allocate@?$allocator@D@std@@QAEPADI@Z
_TEXT	SEGMENT
_this$ = -4						; size = 4
__Count$ = 8						; size = 4
?allocate@?$allocator@D@std@@QAEPADI@Z PROC		; std::allocator<char>::allocate, COMDAT
; _this$ = ecx
; File c:\program files (x86)\microsoft visual studio 14.0\vc\include\xmemory0
; Line 724
	push	ebp
	mov	ebp, esp
	push	ecx
	mov	DWORD PTR _this$[ebp], ecx
; Line 725
	push	1
	push	1
	mov	eax, DWORD PTR __Count$[ebp]
	push	eax
	call	?_Allocate@std@@YAPAXII_N@Z		; std::_Allocate
	add	esp, 12					; 0000000cH
; Line 726
	mov	esp, ebp
	pop	ebp
	ret	4
?allocate@?$allocator@D@std@@QAEPADI@Z ENDP		; std::allocator<char>::allocate
_TEXT	ENDS
; Function compile flags: /Odtp
;	COMDAT ?deallocate@?$allocator@D@std@@QAEXPADI@Z
_TEXT	SEGMENT
_this$ = -4						; size = 4
__Ptr$ = 8						; size = 4
__Count$ = 12						; size = 4
?deallocate@?$allocator@D@std@@QAEXPADI@Z PROC		; std::allocator<char>::deallocate, COMDAT
; _this$ = ecx
; File c:\program files (x86)\microsoft visual studio 14.0\vc\include\xmemory0
; Line 719
	push	ebp
	mov	ebp, esp
	push	ecx
	mov	DWORD PTR _this$[ebp], ecx
; Line 720
	push	1
	mov	eax, DWORD PTR __Count$[ebp]
	push	eax
	mov	ecx, DWORD PTR __Ptr$[ebp]
	push	ecx
	call	?_Deallocate@std@@YAXPAXII@Z		; std::_Deallocate
	add	esp, 12					; 0000000cH
; Line 721
	mov	esp, ebp
	pop	ebp
	ret	8
?deallocate@?$allocator@D@std@@QAEXPADI@Z ENDP		; std::allocator<char>::deallocate
_TEXT	ENDS
; Function compile flags: /Odtp
;	COMDAT ??0?$allocator@D@std@@QAE@XZ
_TEXT	SEGMENT
_this$ = -4						; size = 4
??0?$allocator@D@std@@QAE@XZ PROC			; std::allocator<char>::allocator<char>, COMDAT
; _this$ = ecx
; File c:\program files (x86)\microsoft visual studio 14.0\vc\include\xmemory0
; Line 699
	push	ebp
	mov	ebp, esp
	push	ecx
	mov	DWORD PTR _this$[ebp], ecx
; Line 701
	mov	eax, DWORD PTR _this$[ebp]
	mov	esp, ebp
	pop	ebp
	ret	0
??0?$allocator@D@std@@QAE@XZ ENDP			; std::allocator<char>::allocator<char>
_TEXT	ENDS
; Function compile flags: /Odtp
;	COMDAT ?atomic_load_explicit@std@@YAPAXPBU_Atomic_address@1@W4memory_order@1@@Z
_TEXT	SEGMENT
__Atom$ = 8						; size = 4
__Order$ = 12						; size = 4
?atomic_load_explicit@std@@YAPAXPBU_Atomic_address@1@W4memory_order@1@@Z PROC ; std::atomic_load_explicit, COMDAT
; File c:\program files (x86)\microsoft visual studio 14.0\vc\include\xxatomic
; Line 530
	push	ebp
	mov	ebp, esp
; Line 531
	mov	eax, DWORD PTR __Order$[ebp]
	push	eax
	mov	ecx, DWORD PTR __Atom$[ebp]
	push	ecx
	call	?_Atomic_load_4@std@@YAKPCKW4memory_order@1@@Z ; std::_Atomic_load_4
	add	esp, 8
; Line 532
	pop	ebp
	ret	0
?atomic_load_explicit@std@@YAPAXPBU_Atomic_address@1@W4memory_order@1@@Z ENDP ; std::atomic_load_explicit
_TEXT	ENDS
; Function compile flags: /Odtp
;	COMDAT ?atomic_store_explicit@std@@YAXPAU_Atomic_address@1@PAXW4memory_order@1@@Z
_TEXT	SEGMENT
__Atom$ = 8						; size = 4
__Value$ = 12						; size = 4
__Order$ = 16						; size = 4
?atomic_store_explicit@std@@YAXPAU_Atomic_address@1@PAXW4memory_order@1@@Z PROC ; std::atomic_store_explicit, COMDAT
; File c:\program files (x86)\microsoft visual studio 14.0\vc\include\xxatomic
; Line 506
	push	ebp
	mov	ebp, esp
; Line 507
	mov	eax, DWORD PTR __Order$[ebp]
	push	eax
	mov	ecx, DWORD PTR __Value$[ebp]
	push	ecx
	mov	edx, DWORD PTR __Atom$[ebp]
	push	edx
	call	?_Atomic_store_4@std@@YAXPCKKW4memory_order@1@@Z ; std::_Atomic_store_4
	add	esp, 12					; 0000000cH
; Line 508
	pop	ebp
	ret	0
?atomic_store_explicit@std@@YAXPAU_Atomic_address@1@PAXW4memory_order@1@@Z ENDP ; std::atomic_store_explicit
_TEXT	ENDS
; Function compile flags: /Odtp
;	COMDAT ?load@_Atomic_address@std@@QBEPAXW4memory_order@2@@Z
_TEXT	SEGMENT
_this$ = -4						; size = 4
__Order$ = 8						; size = 4
?load@_Atomic_address@std@@QBEPAXW4memory_order@2@@Z PROC ; std::_Atomic_address::load, COMDAT
; _this$ = ecx
; File c:\program files (x86)\microsoft visual studio 14.0\vc\include\xxatomic
; Line 677
	push	ebp
	mov	ebp, esp
	push	ecx
	mov	DWORD PTR _this$[ebp], ecx
; Line 678
	mov	eax, DWORD PTR __Order$[ebp]
	push	eax
	mov	ecx, DWORD PTR _this$[ebp]
	push	ecx
	call	?atomic_load_explicit@std@@YAPAXPBU_Atomic_address@1@W4memory_order@1@@Z ; std::atomic_load_explicit
	add	esp, 8
; Line 679
	mov	esp, ebp
	pop	ebp
	ret	4
?load@_Atomic_address@std@@QBEPAXW4memory_order@2@@Z ENDP ; std::_Atomic_address::load
_TEXT	ENDS
; Function compile flags: /Odtp
;	COMDAT ?store@_Atomic_address@std@@QAEXPAXW4memory_order@2@@Z
_TEXT	SEGMENT
_this$ = -4						; size = 4
__Value$ = 8						; size = 4
__Order$ = 12						; size = 4
?store@_Atomic_address@std@@QAEXPAXW4memory_order@2@@Z PROC ; std::_Atomic_address::store, COMDAT
; _this$ = ecx
; File c:\program files (x86)\microsoft visual studio 14.0\vc\include\xxatomic
; Line 665
	push	ebp
	mov	ebp, esp
	push	ecx
	mov	DWORD PTR _this$[ebp], ecx
; Line 666
	mov	eax, DWORD PTR __Order$[ebp]
	push	eax
	mov	ecx, DWORD PTR __Value$[ebp]
	push	ecx
	mov	edx, DWORD PTR _this$[ebp]
	push	edx
	call	?atomic_store_explicit@std@@YAXPAU_Atomic_address@1@PAXW4memory_order@1@@Z ; std::atomic_store_explicit
	add	esp, 12					; 0000000cH
; Line 667
	mov	esp, ebp
	pop	ebp
	ret	8
?store@_Atomic_address@std@@QAEXPAXW4memory_order@2@@Z ENDP ; std::_Atomic_address::store
_TEXT	ENDS
; Function compile flags: /Odtp
;	COMDAT ?_Atomic_load_4@std@@YAKPCKW4memory_order@1@@Z
_TEXT	SEGMENT
tv64 = -4						; size = 4
__Tgt$ = 8						; size = 4
__Order$ = 12						; size = 4
?_Atomic_load_4@std@@YAKPCKW4memory_order@1@@Z PROC	; std::_Atomic_load_4, COMDAT
; File c:\program files (x86)\microsoft visual studio 14.0\vc\include\xatomic.h
; Line 1387
	push	ebp
	mov	ebp, esp
	push	ecx
; Line 1388
	mov	eax, DWORD PTR __Order$[ebp]
	mov	DWORD PTR tv64[ebp], eax
	cmp	DWORD PTR tv64[ebp], 5
	ja	SHORT $LN7@Atomic_loa
	mov	ecx, DWORD PTR tv64[ebp]
	jmp	DWORD PTR $LN9@Atomic_loa[ecx*4]
$LN4@Atomic_loa:
; Line 1391
	mov	edx, DWORD PTR __Tgt$[ebp]
	push	edx
	call	?_Load_relaxed_4@std@@YAKPCK@Z		; std::_Load_relaxed_4
	add	esp, 4
	jmp	SHORT $LN1@Atomic_loa
$LN5@Atomic_loa:
; Line 1395
	mov	eax, DWORD PTR __Tgt$[ebp]
	push	eax
	call	?_Load_acquire_4@std@@YAKPCK@Z		; std::_Load_acquire_4
	add	esp, 4
	jmp	SHORT $LN1@Atomic_loa
$LN6@Atomic_loa:
; Line 1398
	mov	ecx, DWORD PTR __Tgt$[ebp]
	push	ecx
	call	?_Load_seq_cst_4@std@@YAKPCK@Z		; std::_Load_seq_cst_4
	add	esp, 4
	jmp	SHORT $LN1@Atomic_loa
$LN7@Atomic_loa:
; Line 1402
	xor	eax, eax
$LN1@Atomic_loa:
; Line 1404
	mov	esp, ebp
	pop	ebp
	ret	0
	npad	2
$LN9@Atomic_loa:
	DD	$LN4@Atomic_loa
	DD	$LN5@Atomic_loa
	DD	$LN5@Atomic_loa
	DD	$LN7@Atomic_loa
	DD	$LN7@Atomic_loa
	DD	$LN6@Atomic_loa
?_Atomic_load_4@std@@YAKPCKW4memory_order@1@@Z ENDP	; std::_Atomic_load_4
_TEXT	ENDS
; Function compile flags: /Odtp
;	COMDAT ?_Load_acquire_4@std@@YAKPCK@Z
_TEXT	SEGMENT
__Tgt$ = 8						; size = 4
?_Load_acquire_4@std@@YAKPCK@Z PROC			; std::_Load_acquire_4, COMDAT
; File c:\program files (x86)\microsoft visual studio 14.0\vc\include\xatomic.h
; Line 1379
	push	ebp
	mov	ebp, esp
; Line 1382
	mov	eax, DWORD PTR __Tgt$[ebp]
	push	eax
	call	?_Load_seq_cst_4@std@@YAKPCK@Z		; std::_Load_seq_cst_4
	add	esp, 4
; Line 1383
	pop	ebp
	ret	0
?_Load_acquire_4@std@@YAKPCK@Z ENDP			; std::_Load_acquire_4
_TEXT	ENDS
; Function compile flags: /Odtp
;	COMDAT ?_Load_relaxed_4@std@@YAKPCK@Z
_TEXT	SEGMENT
__Value$ = -4						; size = 4
__Tgt$ = 8						; size = 4
?_Load_relaxed_4@std@@YAKPCK@Z PROC			; std::_Load_relaxed_4, COMDAT
; File c:\program files (x86)\microsoft visual studio 14.0\vc\include\xatomic.h
; Line 1364
	push	ebp
	mov	ebp, esp
	push	ecx
; Line 1372
	mov	eax, DWORD PTR __Tgt$[ebp]
	mov	ecx, DWORD PTR [eax]
	mov	DWORD PTR __Value$[ebp], ecx
; Line 1375
	mov	eax, DWORD PTR __Value$[ebp]
; Line 1376
	mov	esp, ebp
	pop	ebp
	ret	0
?_Load_relaxed_4@std@@YAKPCK@Z ENDP			; std::_Load_relaxed_4
_TEXT	ENDS
; Function compile flags: /Odtp
;	COMDAT ?_Load_seq_cst_4@std@@YAKPCK@Z
_TEXT	SEGMENT
__Value$ = -4						; size = 4
__Tgt$ = 8						; size = 4
?_Load_seq_cst_4@std@@YAKPCK@Z PROC			; std::_Load_seq_cst_4, COMDAT
; File c:\program files (x86)\microsoft visual studio 14.0\vc\include\xatomic.h
; Line 1347
	push	ebp
	mov	ebp, esp
	push	ecx
; Line 1356
	mov	eax, DWORD PTR __Tgt$[ebp]
	mov	ecx, DWORD PTR [eax]
	mov	DWORD PTR __Value$[ebp], ecx
; Line 1360
	mov	eax, DWORD PTR __Value$[ebp]
; Line 1361
	mov	esp, ebp
	pop	ebp
	ret	0
?_Load_seq_cst_4@std@@YAKPCK@Z ENDP			; std::_Load_seq_cst_4
_TEXT	ENDS
; Function compile flags: /Odtp
;	COMDAT ?_Atomic_store_4@std@@YAXPCKKW4memory_order@1@@Z
_TEXT	SEGMENT
tv64 = -4						; size = 4
__Tgt$ = 8						; size = 4
__Value$ = 12						; size = 4
__Order$ = 16						; size = 4
?_Atomic_store_4@std@@YAXPCKKW4memory_order@1@@Z PROC	; std::_Atomic_store_4, COMDAT
; File c:\program files (x86)\microsoft visual studio 14.0\vc\include\xatomic.h
; Line 1324
	push	ebp
	mov	ebp, esp
	push	ecx
; Line 1325
	mov	eax, DWORD PTR __Order$[ebp]
	mov	DWORD PTR tv64[ebp], eax
	cmp	DWORD PTR tv64[ebp], 0
	je	SHORT $LN4@Atomic_sto
	cmp	DWORD PTR tv64[ebp], 3
	je	SHORT $LN5@Atomic_sto
	cmp	DWORD PTR tv64[ebp], 5
	je	SHORT $LN6@Atomic_sto
	jmp	SHORT $LN1@Atomic_sto
$LN4@Atomic_sto:
; Line 1328
	mov	ecx, DWORD PTR __Value$[ebp]
	push	ecx
	mov	edx, DWORD PTR __Tgt$[ebp]
	push	edx
	call	?_Store_relaxed_4@std@@YAXPCKK@Z	; std::_Store_relaxed_4
	add	esp, 8
; Line 1329
	jmp	SHORT $LN1@Atomic_sto
$LN5@Atomic_sto:
; Line 1332
	mov	eax, DWORD PTR __Value$[ebp]
	push	eax
	mov	ecx, DWORD PTR __Tgt$[ebp]
	push	ecx
	call	?_Store_release_4@std@@YAXPCKK@Z	; std::_Store_release_4
	add	esp, 8
; Line 1333
	jmp	SHORT $LN1@Atomic_sto
$LN6@Atomic_sto:
; Line 1336
	mov	edx, DWORD PTR __Value$[ebp]
	push	edx
	mov	eax, DWORD PTR __Tgt$[ebp]
	push	eax
	call	?_Store_seq_cst_4@std@@YAXPCKK@Z	; std::_Store_seq_cst_4
	add	esp, 8
$LN1@Atomic_sto:
; Line 1343
	mov	esp, ebp
	pop	ebp
	ret	0
?_Atomic_store_4@std@@YAXPCKKW4memory_order@1@@Z ENDP	; std::_Atomic_store_4
_TEXT	ENDS
; Function compile flags: /Odtp
;	COMDAT ?_Store_seq_cst_4@std@@YAXPCKK@Z
_TEXT	SEGMENT
__Tgt$ = 8						; size = 4
__Value$ = 12						; size = 4
?_Store_seq_cst_4@std@@YAXPCKK@Z PROC			; std::_Store_seq_cst_4, COMDAT
; File c:\program files (x86)\microsoft visual studio 14.0\vc\include\xatomic.h
; Line 1309
	push	ebp
	mov	ebp, esp
; Line 1318
	mov	eax, DWORD PTR __Value$[ebp]
	mov	ecx, DWORD PTR __Tgt$[ebp]
	xchg	DWORD PTR [ecx], eax
; Line 1320
	pop	ebp
	ret	0
?_Store_seq_cst_4@std@@YAXPCKK@Z ENDP			; std::_Store_seq_cst_4
_TEXT	ENDS
; Function compile flags: /Odtp
;	COMDAT ?_Store_release_4@std@@YAXPCKK@Z
_TEXT	SEGMENT
__Tgt$ = 8						; size = 4
__Value$ = 12						; size = 4
?_Store_release_4@std@@YAXPCKK@Z PROC			; std::_Store_release_4, COMDAT
; File c:\program files (x86)\microsoft visual studio 14.0\vc\include\xatomic.h
; Line 1296
	push	ebp
	mov	ebp, esp
; Line 1304
	mov	eax, DWORD PTR __Tgt$[ebp]
	mov	ecx, DWORD PTR __Value$[ebp]
	mov	DWORD PTR [eax], ecx
; Line 1306
	pop	ebp
	ret	0
?_Store_release_4@std@@YAXPCKK@Z ENDP			; std::_Store_release_4
_TEXT	ENDS
; Function compile flags: /Odtp
;	COMDAT ?_Store_relaxed_4@std@@YAXPCKK@Z
_TEXT	SEGMENT
__Tgt$ = 8						; size = 4
__Value$ = 12						; size = 4
?_Store_relaxed_4@std@@YAXPCKK@Z PROC			; std::_Store_relaxed_4, COMDAT
; File c:\program files (x86)\microsoft visual studio 14.0\vc\include\xatomic.h
; Line 1285
	push	ebp
	mov	ebp, esp
; Line 1291
	mov	eax, DWORD PTR __Tgt$[ebp]
	mov	ecx, DWORD PTR __Value$[ebp]
	mov	DWORD PTR [eax], ecx
; Line 1293
	pop	ebp
	ret	0
?_Store_relaxed_4@std@@YAXPCKK@Z ENDP			; std::_Store_relaxed_4
_TEXT	ENDS
; Function compile flags: /Odtp
;	COMDAT ??8std@@YA_NVid@thread@0@0@Z
_TEXT	SEGMENT
tv65 = -4						; size = 4
__Left$ = 8						; size = 4
__Right$ = 12						; size = 4
??8std@@YA_NVid@thread@0@0@Z PROC			; std::operator==, COMDAT
; File c:\program files (x86)\microsoft visual studio 14.0\vc\include\thread
; Line 215
	push	ebp
	mov	ebp, esp
	push	ecx
; Line 216
	mov	eax, DWORD PTR __Left$[ebp]
	cmp	eax, DWORD PTR __Right$[ebp]
	jne	SHORT $LN3@operator
	mov	DWORD PTR tv65[ebp], 1
	jmp	SHORT $LN4@operator
$LN3@operator:
	mov	DWORD PTR tv65[ebp], 0
$LN4@operator:
	mov	al, BYTE PTR tv65[ebp]
; Line 217
	mov	esp, ebp
	pop	ebp
	ret	0
??8std@@YA_NVid@thread@0@0@Z ENDP			; std::operator==
_TEXT	ENDS
; Function compile flags: /Odtp
;	COMDAT ??0id@thread@std@@AAE@I@Z
_TEXT	SEGMENT
_this$ = -4						; size = 4
__Other_id$ = 8						; size = 4
??0id@thread@std@@AAE@I@Z PROC				; std::thread::id::id, COMDAT
; _this$ = ecx
; File c:\program files (x86)\microsoft visual studio 14.0\vc\include\thread
; Line 168
	push	ebp
	mov	ebp, esp
	push	ecx
	mov	DWORD PTR _this$[ebp], ecx
; Line 167
	mov	eax, DWORD PTR _this$[ebp]
	mov	ecx, DWORD PTR __Other_id$[ebp]
	mov	DWORD PTR [eax], ecx
; Line 169
	mov	eax, DWORD PTR _this$[ebp]
	mov	esp, ebp
	pop	ebp
	ret	4
??0id@thread@std@@AAE@I@Z ENDP				; std::thread::id::id
_TEXT	ENDS
; Function compile flags: /Odtp
;	COMDAT ?get_id@this_thread@std@@YA?AVid@thread@2@XZ
_TEXT	SEGMENT
___$ReturnUdt$ = 8					; size = 4
?get_id@this_thread@std@@YA?AVid@thread@2@XZ PROC	; std::this_thread::get_id, COMDAT
; File c:\program files (x86)\microsoft visual studio 14.0\vc\include\thread
; Line 205
	push	ebp
	mov	ebp, esp
; Line 206
	call	__Thrd_id
	push	eax
	mov	ecx, DWORD PTR ___$ReturnUdt$[ebp]
	call	??0id@thread@std@@AAE@I@Z		; std::thread::id::id
	mov	eax, DWORD PTR ___$ReturnUdt$[ebp]
; Line 207
	pop	ebp
	ret	0
?get_id@this_thread@std@@YA?AVid@thread@2@XZ ENDP	; std::this_thread::get_id
_TEXT	ENDS
; Function compile flags: /Odtp
;	COMDAT ?get_id@thread@std@@QBE?AVid@12@XZ
_TEXT	SEGMENT
_this$ = -4						; size = 4
___$ReturnUdt$ = 8					; size = 4
?get_id@thread@std@@QBE?AVid@12@XZ PROC			; std::thread::get_id, COMDAT
; _this$ = ecx
; File c:\program files (x86)\microsoft visual studio 14.0\vc\include\thread
; Line 200
	push	ebp
	mov	ebp, esp
	push	ecx
	mov	DWORD PTR _this$[ebp], ecx
; Line 201
	mov	eax, DWORD PTR _this$[ebp]
	mov	ecx, DWORD PTR [eax+4]
	push	ecx
	mov	ecx, DWORD PTR ___$ReturnUdt$[ebp]
	call	??0id@thread@std@@AAE@I@Z		; std::thread::id::id
	mov	eax, DWORD PTR ___$ReturnUdt$[ebp]
; Line 202
	mov	esp, ebp
	pop	ebp
	ret	4
?get_id@thread@std@@QBE?AVid@12@XZ ENDP			; std::thread::get_id
_TEXT	ENDS
; Function compile flags: /Odtp
;	COMDAT ?join@thread@std@@QAEXXZ
_TEXT	SEGMENT
$T1 = -16						; size = 4
$T2 = -12						; size = 4
_this$ = -8						; size = 4
__Is_null$ = -2						; size = 1
tv72 = -1						; size = 1
?join@thread@std@@QAEXXZ PROC				; std::thread::join, COMDAT
; _this$ = ecx
; File c:\program files (x86)\microsoft visual studio 14.0\vc\include\thread
; Line 186
	push	ebp
	mov	ebp, esp
	sub	esp, 16					; 00000010H
	mov	DWORD PTR _this$[ebp], ecx
; Line 187
	mov	ecx, DWORD PTR _this$[ebp]
	call	?joinable@thread@std@@QBE_NXZ		; std::thread::joinable
	movzx	eax, al
	test	eax, eax
	jne	SHORT $LN2@join
; Line 188
	push	1
	call	?_Throw_Cpp_error@std@@YAXH@Z		; std::_Throw_Cpp_error
	add	esp, 4
$LN2@join:
; Line 189
	mov	ecx, DWORD PTR _this$[ebp]
	cmp	DWORD PTR [ecx+4], 0
	jne	SHORT $LN7@join
	mov	BYTE PTR tv72[ebp], 1
	jmp	SHORT $LN8@join
$LN7@join:
	mov	BYTE PTR tv72[ebp], 0
$LN8@join:
	mov	dl, BYTE PTR tv72[ebp]
	mov	BYTE PTR __Is_null$[ebp], dl
; Line 190
	movzx	eax, BYTE PTR __Is_null$[ebp]
	test	eax, eax
	je	SHORT $LN3@join
; Line 191
	push	1
	call	?_Throw_Cpp_error@std@@YAXH@Z		; std::_Throw_Cpp_error
	add	esp, 4
$LN3@join:
; Line 192
	lea	ecx, DWORD PTR $T2[ebp]
	push	ecx
	call	?get_id@this_thread@std@@YA?AVid@thread@2@XZ ; std::this_thread::get_id
	add	esp, 4
	mov	edx, DWORD PTR [eax]
	push	edx
	lea	eax, DWORD PTR $T1[ebp]
	push	eax
	mov	ecx, DWORD PTR _this$[ebp]
	call	?get_id@thread@std@@QBE?AVid@12@XZ	; std::thread::get_id
	mov	ecx, DWORD PTR [eax]
	push	ecx
	call	??8std@@YA_NVid@thread@0@0@Z		; std::operator==
	add	esp, 8
	movzx	edx, al
	test	edx, edx
	je	SHORT $LN4@join
; Line 193
	push	5
	call	?_Throw_Cpp_error@std@@YAXH@Z		; std::_Throw_Cpp_error
	add	esp, 4
$LN4@join:
; Line 194
	push	0
	mov	eax, DWORD PTR _this$[ebp]
	mov	ecx, DWORD PTR [eax+4]
	push	ecx
	mov	edx, DWORD PTR [eax]
	push	edx
	call	__Thrd_join
	add	esp, 12					; 0000000cH
	test	eax, eax
	je	SHORT $LN5@join
; Line 195
	push	2
	call	?_Throw_Cpp_error@std@@YAXH@Z		; std::_Throw_Cpp_error
	add	esp, 4
$LN5@join:
; Line 196
	mov	eax, DWORD PTR _this$[ebp]
	mov	DWORD PTR [eax], 0
	mov	ecx, DWORD PTR _this$[ebp]
	mov	DWORD PTR [ecx+4], 0
; Line 197
	mov	esp, ebp
	pop	ebp
	ret	0
?join@thread@std@@QAEXXZ ENDP				; std::thread::join
_TEXT	ENDS
; Function compile flags: /Odtp
;	COMDAT ?joinable@thread@std@@QBE_NXZ
_TEXT	SEGMENT
_this$ = -8						; size = 4
tv67 = -4						; size = 4
?joinable@thread@std@@QBE_NXZ PROC			; std::thread::joinable, COMDAT
; _this$ = ecx
; File c:\program files (x86)\microsoft visual studio 14.0\vc\include\thread
; Line 80
	push	ebp
	mov	ebp, esp
	sub	esp, 8
	mov	DWORD PTR _this$[ebp], ecx
; Line 81
	mov	eax, DWORD PTR _this$[ebp]
	cmp	DWORD PTR [eax+4], 0
	je	SHORT $LN3@joinable
	mov	DWORD PTR tv67[ebp], 1
	jmp	SHORT $LN4@joinable
$LN3@joinable:
	mov	DWORD PTR tv67[ebp], 0
$LN4@joinable:
	mov	al, BYTE PTR tv67[ebp]
; Line 82
	mov	esp, ebp
	pop	ebp
	ret	0
?joinable@thread@std@@QBE_NXZ ENDP			; std::thread::joinable
_TEXT	ENDS
; Function compile flags: /Odtp
;	COMDAT ??1thread@std@@QAE@XZ
_TEXT	SEGMENT
_this$ = -4						; size = 4
??1thread@std@@QAE@XZ PROC				; std::thread::~thread, COMDAT
; _this$ = ecx
; File c:\program files (x86)\microsoft visual studio 14.0\vc\include\thread
; Line 55
	push	ebp
	mov	ebp, esp
	push	ecx
	mov	DWORD PTR _this$[ebp], ecx
; Line 56
	mov	ecx, DWORD PTR _this$[ebp]
	call	?joinable@thread@std@@QBE_NXZ		; std::thread::joinable
	movzx	eax, al
	test	eax, eax
	je	SHORT $LN3@thread
; Line 57
	call	_terminate
$LN3@thread:
; Line 58
	mov	esp, ebp
	pop	ebp
	ret	0
??1thread@std@@QAE@XZ ENDP				; std::thread::~thread
_TEXT	ENDS
; Function compile flags: /Odtp
;	COMDAT ?_Call_func@_Pad@std@@CGIPAX@Z
_TEXT	SEGMENT
__Data$ = 8						; size = 4
?_Call_func@_Pad@std@@CGIPAX@Z PROC			; std::_Pad::_Call_func, COMDAT
; File c:\program files (x86)\microsoft visual studio 14.0\vc\include\thr\xthread
; Line 208
	push	ebp
	mov	ebp, esp
; Line 209
	mov	eax, DWORD PTR __Data$[ebp]
	mov	edx, DWORD PTR [eax]
	mov	ecx, DWORD PTR __Data$[ebp]
	mov	eax, DWORD PTR [edx]
	call	eax
; Line 210
	call	__Cnd_do_broadcast_at_thread_exit
; Line 211
	xor	eax, eax
; Line 212
	pop	ebp
	ret	4
?_Call_func@_Pad@std@@CGIPAX@Z ENDP			; std::_Pad::_Call_func
_TEXT	ENDS
; Function compile flags: /Odtp
;	COMDAT ?_Release@_Pad@std@@QAEXXZ
_TEXT	SEGMENT
_this$ = -4						; size = 4
?_Release@_Pad@std@@QAEXXZ PROC				; std::_Pad::_Release, COMDAT
; _this$ = ecx
; File c:\program files (x86)\microsoft visual studio 14.0\vc\include\thr\xthread
; Line 194
	push	ebp
	mov	ebp, esp
	push	ecx
	mov	DWORD PTR _this$[ebp], ecx
; Line 195
	mov	eax, DWORD PTR _this$[ebp]
	mov	ecx, DWORD PTR [eax+8]
	push	ecx
	call	?_Mtx_lockX@std@@YAHPAU_Mtx_internal_imp_t@@@Z ; std::_Mtx_lockX
	add	esp, 4
; Line 196
	mov	edx, DWORD PTR _this$[ebp]
	mov	BYTE PTR [edx+12], 1
; Line 197
	mov	eax, DWORD PTR _this$[ebp]
	mov	ecx, DWORD PTR [eax+4]
	push	ecx
	call	?_Cnd_signalX@std@@YAHPAU_Cnd_internal_imp_t@@@Z ; std::_Cnd_signalX
	add	esp, 4
; Line 198
	mov	edx, DWORD PTR _this$[ebp]
	mov	eax, DWORD PTR [edx+8]
	push	eax
	call	?_Mtx_unlockX@std@@YAHPAU_Mtx_internal_imp_t@@@Z ; std::_Mtx_unlockX
	add	esp, 4
; Line 199
	mov	esp, ebp
	pop	ebp
	ret	0
?_Release@_Pad@std@@QAEXXZ ENDP				; std::_Pad::_Release
_TEXT	ENDS
; Function compile flags: /Odtp
;	COMDAT ?_Launch@_Pad@std@@QAEXPAU_Thrd_imp_t@@@Z
_TEXT	SEGMENT
_this$ = -4						; size = 4
__Thr$ = 8						; size = 4
?_Launch@_Pad@std@@QAEXPAU_Thrd_imp_t@@@Z PROC		; std::_Pad::_Launch, COMDAT
; _this$ = ecx
; File c:\program files (x86)\microsoft visual studio 14.0\vc\include\thr\xthread
; Line 187
	push	ebp
	mov	ebp, esp
	push	ecx
	mov	DWORD PTR _this$[ebp], ecx
; Line 188
	mov	eax, DWORD PTR _this$[ebp]
	push	eax
	push	OFFSET ?_Call_func@_Pad@std@@CGIPAX@Z	; std::_Pad::_Call_func
	mov	ecx, DWORD PTR __Thr$[ebp]
	push	ecx
	call	?_Thrd_startX@std@@YAHPAU_Thrd_imp_t@@P6GIPAX@Z1@Z ; std::_Thrd_startX
	add	esp, 12					; 0000000cH
$LN2@Launch:
; Line 189
	mov	edx, DWORD PTR _this$[ebp]
	movzx	eax, BYTE PTR [edx+12]
	test	eax, eax
	jne	SHORT $LN1@Launch
; Line 190
	mov	ecx, DWORD PTR _this$[ebp]
	mov	edx, DWORD PTR [ecx+8]
	push	edx
	mov	eax, DWORD PTR _this$[ebp]
	mov	ecx, DWORD PTR [eax+4]
	push	ecx
	call	?_Cnd_waitX@std@@YAHPAU_Cnd_internal_imp_t@@PAU_Mtx_internal_imp_t@@@Z ; std::_Cnd_waitX
	add	esp, 8
	jmp	SHORT $LN2@Launch
$LN1@Launch:
; Line 191
	mov	esp, ebp
	pop	ebp
	ret	4
?_Launch@_Pad@std@@QAEXPAU_Thrd_imp_t@@@Z ENDP		; std::_Pad::_Launch
_TEXT	ENDS
; Function compile flags: /Odtp
;	COMDAT ??1_Pad@std@@QAE@XZ
_TEXT	SEGMENT
__Cnd_cleaner$ = -20					; size = 8
__Mtx_cleaner$ = -12					; size = 8
_this$ = -4						; size = 4
??1_Pad@std@@QAE@XZ PROC				; std::_Pad::~_Pad, COMDAT
; _this$ = ecx
; File c:\program files (x86)\microsoft visual studio 14.0\vc\include\thr\xthread
; Line 180
	push	ebp
	mov	ebp, esp
	sub	esp, 20					; 00000014H
	mov	DWORD PTR _this$[ebp], ecx
	mov	eax, DWORD PTR _this$[ebp]
	mov	DWORD PTR [eax], OFFSET ??_7_Pad@std@@6B@
; Line 181
	mov	ecx, DWORD PTR _this$[ebp]
	mov	edx, DWORD PTR [ecx+4]
	push	edx
	lea	ecx, DWORD PTR __Cnd_cleaner$[ebp]
	call	??0_Auto_cnd@std@@QAE@PAU_Cnd_internal_imp_t@@@Z ; std::_Auto_cnd::_Auto_cnd
; Line 182
	mov	eax, DWORD PTR _this$[ebp]
	mov	ecx, DWORD PTR [eax+8]
	push	ecx
	lea	ecx, DWORD PTR __Mtx_cleaner$[ebp]
	call	??0_Auto_mtx@std@@QAE@PAU_Mtx_internal_imp_t@@@Z ; std::_Auto_mtx::_Auto_mtx
; Line 183
	mov	edx, DWORD PTR _this$[ebp]
	mov	eax, DWORD PTR [edx+8]
	push	eax
	call	?_Mtx_unlockX@std@@YAHPAU_Mtx_internal_imp_t@@@Z ; std::_Mtx_unlockX
	add	esp, 4
; Line 184
	lea	ecx, DWORD PTR __Mtx_cleaner$[ebp]
	call	??1_Auto_mtx@std@@QAE@XZ		; std::_Auto_mtx::~_Auto_mtx
	lea	ecx, DWORD PTR __Cnd_cleaner$[ebp]
	call	??1_Auto_cnd@std@@QAE@XZ		; std::_Auto_cnd::~_Auto_cnd
	mov	esp, ebp
	pop	ebp
	ret	0
??1_Pad@std@@QAE@XZ ENDP				; std::_Pad::~_Pad
_TEXT	ENDS
; Function compile flags: /Odtp
;	COMDAT ??0_Pad@std@@QAE@XZ
_TEXT	SEGMENT
__Cnd_cleaner$ = -20					; size = 8
__Mtx_cleaner$ = -12					; size = 8
_this$ = -4						; size = 4
??0_Pad@std@@QAE@XZ PROC				; std::_Pad::_Pad, COMDAT
; _this$ = ecx
; File c:\program files (x86)\microsoft visual studio 14.0\vc\include\thr\xthread
; Line 167
	push	ebp
	mov	ebp, esp
	sub	esp, 20					; 00000014H
	mov	DWORD PTR _this$[ebp], ecx
; Line 168
	mov	eax, DWORD PTR _this$[ebp]
	mov	DWORD PTR [eax], OFFSET ??_7_Pad@std@@6B@
; Line 169
	mov	ecx, DWORD PTR _this$[ebp]
	add	ecx, 4
	push	ecx
	call	?_Cnd_initX@std@@YAHPAPAU_Cnd_internal_imp_t@@@Z ; std::_Cnd_initX
	add	esp, 4
; Line 170
	mov	edx, DWORD PTR _this$[ebp]
	mov	eax, DWORD PTR [edx+4]
	push	eax
	lea	ecx, DWORD PTR __Cnd_cleaner$[ebp]
	call	??0_Auto_cnd@std@@QAE@PAU_Cnd_internal_imp_t@@@Z ; std::_Auto_cnd::_Auto_cnd
; Line 171
	push	1
	mov	ecx, DWORD PTR _this$[ebp]
	add	ecx, 8
	push	ecx
	call	?_Mtx_initX@std@@YAHPAPAU_Mtx_internal_imp_t@@H@Z ; std::_Mtx_initX
	add	esp, 8
; Line 172
	mov	edx, DWORD PTR _this$[ebp]
	mov	eax, DWORD PTR [edx+8]
	push	eax
	lea	ecx, DWORD PTR __Mtx_cleaner$[ebp]
	call	??0_Auto_mtx@std@@QAE@PAU_Mtx_internal_imp_t@@@Z ; std::_Auto_mtx::_Auto_mtx
; Line 173
	mov	ecx, DWORD PTR _this$[ebp]
	mov	BYTE PTR [ecx+12], 0
; Line 174
	mov	edx, DWORD PTR _this$[ebp]
	mov	eax, DWORD PTR [edx+8]
	push	eax
	call	?_Mtx_lockX@std@@YAHPAU_Mtx_internal_imp_t@@@Z ; std::_Mtx_lockX
	add	esp, 4
; Line 175
	lea	ecx, DWORD PTR __Mtx_cleaner$[ebp]
	call	?_Release@_Auto_mtx@std@@QAEXXZ		; std::_Auto_mtx::_Release
; Line 176
	lea	ecx, DWORD PTR __Cnd_cleaner$[ebp]
	call	?_Release@_Auto_cnd@std@@QAEXXZ		; std::_Auto_cnd::_Release
; Line 177
	lea	ecx, DWORD PTR __Mtx_cleaner$[ebp]
	call	??1_Auto_mtx@std@@QAE@XZ		; std::_Auto_mtx::~_Auto_mtx
	lea	ecx, DWORD PTR __Cnd_cleaner$[ebp]
	call	??1_Auto_cnd@std@@QAE@XZ		; std::_Auto_cnd::~_Auto_cnd
	mov	eax, DWORD PTR _this$[ebp]
	mov	esp, ebp
	pop	ebp
	ret	0
??0_Pad@std@@QAE@XZ ENDP				; std::_Pad::_Pad
_TEXT	ENDS
; Function compile flags: /Odtp
;	COMDAT ?_Release@_Auto_mtx@std@@QAEXXZ
_TEXT	SEGMENT
_this$ = -4						; size = 4
?_Release@_Auto_mtx@std@@QAEXXZ PROC			; std::_Auto_mtx::_Release, COMDAT
; _this$ = ecx
; File c:\program files (x86)\microsoft visual studio 14.0\vc\include\thr\xthread
; Line 153
	push	ebp
	mov	ebp, esp
	push	ecx
	mov	DWORD PTR _this$[ebp], ecx
; Line 154
	mov	eax, DWORD PTR _this$[ebp]
	mov	BYTE PTR [eax], 0
; Line 155
	mov	esp, ebp
	pop	ebp
	ret	0
?_Release@_Auto_mtx@std@@QAEXXZ ENDP			; std::_Auto_mtx::_Release
_TEXT	ENDS
; Function compile flags: /Odtp
;	COMDAT ??1_Auto_mtx@std@@QAE@XZ
_TEXT	SEGMENT
_this$ = -4						; size = 4
??1_Auto_mtx@std@@QAE@XZ PROC				; std::_Auto_mtx::~_Auto_mtx, COMDAT
; _this$ = ecx
; File c:\program files (x86)\microsoft visual studio 14.0\vc\include\thr\xthread
; Line 147
	push	ebp
	mov	ebp, esp
	push	ecx
	mov	DWORD PTR _this$[ebp], ecx
; Line 148
	mov	eax, DWORD PTR _this$[ebp]
	movzx	ecx, BYTE PTR [eax]
	test	ecx, ecx
	je	SHORT $LN1@Auto_mtx
; Line 149
	mov	edx, DWORD PTR _this$[ebp]
	mov	eax, DWORD PTR [edx+4]
	push	eax
	call	__Mtx_destroy
	add	esp, 4
$LN1@Auto_mtx:
; Line 150
	mov	esp, ebp
	pop	ebp
	ret	0
??1_Auto_mtx@std@@QAE@XZ ENDP				; std::_Auto_mtx::~_Auto_mtx
_TEXT	ENDS
; Function compile flags: /Odtp
;	COMDAT ??0_Auto_mtx@std@@QAE@PAU_Mtx_internal_imp_t@@@Z
_TEXT	SEGMENT
_this$ = -4						; size = 4
__Mtxp$ = 8						; size = 4
??0_Auto_mtx@std@@QAE@PAU_Mtx_internal_imp_t@@@Z PROC	; std::_Auto_mtx::_Auto_mtx, COMDAT
; _this$ = ecx
; File c:\program files (x86)\microsoft visual studio 14.0\vc\include\thr\xthread
; Line 143
	push	ebp
	mov	ebp, esp
	push	ecx
	mov	DWORD PTR _this$[ebp], ecx
; Line 142
	mov	eax, DWORD PTR _this$[ebp]
	mov	BYTE PTR [eax], 1
	mov	ecx, DWORD PTR _this$[ebp]
	mov	edx, DWORD PTR __Mtxp$[ebp]
	mov	DWORD PTR [ecx+4], edx
; Line 144
	mov	eax, DWORD PTR _this$[ebp]
	mov	esp, ebp
	pop	ebp
	ret	4
??0_Auto_mtx@std@@QAE@PAU_Mtx_internal_imp_t@@@Z ENDP	; std::_Auto_mtx::_Auto_mtx
_TEXT	ENDS
; Function compile flags: /Odtp
;	COMDAT ?_Release@_Auto_cnd@std@@QAEXXZ
_TEXT	SEGMENT
_this$ = -4						; size = 4
?_Release@_Auto_cnd@std@@QAEXXZ PROC			; std::_Auto_cnd::_Release, COMDAT
; _this$ = ecx
; File c:\program files (x86)\microsoft visual studio 14.0\vc\include\thr\xthread
; Line 129
	push	ebp
	mov	ebp, esp
	push	ecx
	mov	DWORD PTR _this$[ebp], ecx
; Line 130
	mov	eax, DWORD PTR _this$[ebp]
	mov	BYTE PTR [eax], 0
; Line 131
	mov	esp, ebp
	pop	ebp
	ret	0
?_Release@_Auto_cnd@std@@QAEXXZ ENDP			; std::_Auto_cnd::_Release
_TEXT	ENDS
; Function compile flags: /Odtp
;	COMDAT ??1_Auto_cnd@std@@QAE@XZ
_TEXT	SEGMENT
_this$ = -4						; size = 4
??1_Auto_cnd@std@@QAE@XZ PROC				; std::_Auto_cnd::~_Auto_cnd, COMDAT
; _this$ = ecx
; File c:\program files (x86)\microsoft visual studio 14.0\vc\include\thr\xthread
; Line 123
	push	ebp
	mov	ebp, esp
	push	ecx
	mov	DWORD PTR _this$[ebp], ecx
; Line 124
	mov	eax, DWORD PTR _this$[ebp]
	movzx	ecx, BYTE PTR [eax]
	test	ecx, ecx
	je	SHORT $LN1@Auto_cnd
; Line 125
	mov	edx, DWORD PTR _this$[ebp]
	mov	eax, DWORD PTR [edx+4]
	push	eax
	call	__Cnd_destroy
	add	esp, 4
$LN1@Auto_cnd:
; Line 126
	mov	esp, ebp
	pop	ebp
	ret	0
??1_Auto_cnd@std@@QAE@XZ ENDP				; std::_Auto_cnd::~_Auto_cnd
_TEXT	ENDS
; Function compile flags: /Odtp
;	COMDAT ??0_Auto_cnd@std@@QAE@PAU_Cnd_internal_imp_t@@@Z
_TEXT	SEGMENT
_this$ = -4						; size = 4
__Cndp$ = 8						; size = 4
??0_Auto_cnd@std@@QAE@PAU_Cnd_internal_imp_t@@@Z PROC	; std::_Auto_cnd::_Auto_cnd, COMDAT
; _this$ = ecx
; File c:\program files (x86)\microsoft visual studio 14.0\vc\include\thr\xthread
; Line 119
	push	ebp
	mov	ebp, esp
	push	ecx
	mov	DWORD PTR _this$[ebp], ecx
; Line 118
	mov	eax, DWORD PTR _this$[ebp]
	mov	BYTE PTR [eax], 1
	mov	ecx, DWORD PTR _this$[ebp]
	mov	edx, DWORD PTR __Cndp$[ebp]
	mov	DWORD PTR [ecx+4], edx
; Line 120
	mov	eax, DWORD PTR _this$[ebp]
	mov	esp, ebp
	pop	ebp
	ret	4
??0_Auto_cnd@std@@QAE@PAU_Cnd_internal_imp_t@@@Z ENDP	; std::_Auto_cnd::_Auto_cnd
_TEXT	ENDS
; Function compile flags: /Odtp
;	COMDAT ?_Cnd_signalX@std@@YAHPAU_Cnd_internal_imp_t@@@Z
_TEXT	SEGMENT
__Cnd$ = 8						; size = 4
?_Cnd_signalX@std@@YAHPAU_Cnd_internal_imp_t@@@Z PROC	; std::_Cnd_signalX, COMDAT
; File c:\program files (x86)\microsoft visual studio 14.0\vc\include\thr\xthread
; Line 110
	push	ebp
	mov	ebp, esp
; Line 111
	mov	eax, DWORD PTR __Cnd$[ebp]
	push	eax
	call	__Cnd_signal
	add	esp, 4
	push	eax
	call	?_Check_C_return@std@@YAHH@Z		; std::_Check_C_return
	add	esp, 4
; Line 112
	pop	ebp
	ret	0
?_Cnd_signalX@std@@YAHPAU_Cnd_internal_imp_t@@@Z ENDP	; std::_Cnd_signalX
_TEXT	ENDS
; Function compile flags: /Odtp
;	COMDAT ?_Cnd_waitX@std@@YAHPAU_Cnd_internal_imp_t@@PAU_Mtx_internal_imp_t@@@Z
_TEXT	SEGMENT
__Cnd$ = 8						; size = 4
__Mtx$ = 12						; size = 4
?_Cnd_waitX@std@@YAHPAU_Cnd_internal_imp_t@@PAU_Mtx_internal_imp_t@@@Z PROC ; std::_Cnd_waitX, COMDAT
; File c:\program files (x86)\microsoft visual studio 14.0\vc\include\thr\xthread
; Line 94
	push	ebp
	mov	ebp, esp
; Line 95
	mov	eax, DWORD PTR __Mtx$[ebp]
	push	eax
	mov	ecx, DWORD PTR __Cnd$[ebp]
	push	ecx
	call	__Cnd_wait
	add	esp, 8
	push	eax
	call	?_Check_C_return@std@@YAHH@Z		; std::_Check_C_return
	add	esp, 4
; Line 96
	pop	ebp
	ret	0
?_Cnd_waitX@std@@YAHPAU_Cnd_internal_imp_t@@PAU_Mtx_internal_imp_t@@@Z ENDP ; std::_Cnd_waitX
_TEXT	ENDS
; Function compile flags: /Odtp
;	COMDAT ?_Cnd_initX@std@@YAHPAPAU_Cnd_internal_imp_t@@@Z
_TEXT	SEGMENT
__Cnd$ = 8						; size = 4
?_Cnd_initX@std@@YAHPAPAU_Cnd_internal_imp_t@@@Z PROC	; std::_Cnd_initX, COMDAT
; File c:\program files (x86)\microsoft visual studio 14.0\vc\include\thr\xthread
; Line 89
	push	ebp
	mov	ebp, esp
; Line 90
	mov	eax, DWORD PTR __Cnd$[ebp]
	push	eax
	call	__Cnd_init
	add	esp, 4
	push	eax
	call	?_Check_C_return@std@@YAHH@Z		; std::_Check_C_return
	add	esp, 4
; Line 91
	pop	ebp
	ret	0
?_Cnd_initX@std@@YAHPAPAU_Cnd_internal_imp_t@@@Z ENDP	; std::_Cnd_initX
_TEXT	ENDS
; Function compile flags: /Odtp
;	COMDAT ?_Mtx_unlockX@std@@YAHPAU_Mtx_internal_imp_t@@@Z
_TEXT	SEGMENT
__Mtx$ = 8						; size = 4
?_Mtx_unlockX@std@@YAHPAU_Mtx_internal_imp_t@@@Z PROC	; std::_Mtx_unlockX, COMDAT
; File c:\program files (x86)\microsoft visual studio 14.0\vc\include\thr\xthread
; Line 84
	push	ebp
	mov	ebp, esp
; Line 85
	mov	eax, DWORD PTR __Mtx$[ebp]
	push	eax
	call	__Mtx_unlock
	add	esp, 4
	push	eax
	call	?_Check_C_return@std@@YAHH@Z		; std::_Check_C_return
	add	esp, 4
; Line 86
	pop	ebp
	ret	0
?_Mtx_unlockX@std@@YAHPAU_Mtx_internal_imp_t@@@Z ENDP	; std::_Mtx_unlockX
_TEXT	ENDS
; Function compile flags: /Odtp
;	COMDAT ?_Mtx_lockX@std@@YAHPAU_Mtx_internal_imp_t@@@Z
_TEXT	SEGMENT
__Mtx$ = 8						; size = 4
?_Mtx_lockX@std@@YAHPAU_Mtx_internal_imp_t@@@Z PROC	; std::_Mtx_lockX, COMDAT
; File c:\program files (x86)\microsoft visual studio 14.0\vc\include\thr\xthread
; Line 69
	push	ebp
	mov	ebp, esp
; Line 70
	mov	eax, DWORD PTR __Mtx$[ebp]
	push	eax
	call	__Mtx_lock
	add	esp, 4
	push	eax
	call	?_Check_C_return@std@@YAHH@Z		; std::_Check_C_return
	add	esp, 4
; Line 71
	pop	ebp
	ret	0
?_Mtx_lockX@std@@YAHPAU_Mtx_internal_imp_t@@@Z ENDP	; std::_Mtx_lockX
_TEXT	ENDS
; Function compile flags: /Odtp
;	COMDAT ?_Mtx_initX@std@@YAHPAPAU_Mtx_internal_imp_t@@H@Z
_TEXT	SEGMENT
__Mtx$ = 8						; size = 4
__Type$ = 12						; size = 4
?_Mtx_initX@std@@YAHPAPAU_Mtx_internal_imp_t@@H@Z PROC	; std::_Mtx_initX, COMDAT
; File c:\program files (x86)\microsoft visual studio 14.0\vc\include\thr\xthread
; Line 64
	push	ebp
	mov	ebp, esp
; Line 65
	mov	eax, DWORD PTR __Type$[ebp]
	push	eax
	mov	ecx, DWORD PTR __Mtx$[ebp]
	push	ecx
	call	__Mtx_init
	add	esp, 8
	push	eax
	call	?_Check_C_return@std@@YAHH@Z		; std::_Check_C_return
	add	esp, 4
; Line 66
	pop	ebp
	ret	0
?_Mtx_initX@std@@YAHPAPAU_Mtx_internal_imp_t@@H@Z ENDP	; std::_Mtx_initX
_TEXT	ENDS
; Function compile flags: /Odtp
;	COMDAT ?_Thrd_startX@std@@YAHPAU_Thrd_imp_t@@P6GIPAX@Z1@Z
_TEXT	SEGMENT
tv70 = -8						; size = 4
__Res$ = -4						; size = 4
__Thr$ = 8						; size = 4
__Fp$ = 12						; size = 4
__Arg$ = 16						; size = 4
?_Thrd_startX@std@@YAHPAU_Thrd_imp_t@@P6GIPAX@Z1@Z PROC	; std::_Thrd_startX, COMDAT
; File c:\program files (x86)\microsoft visual studio 14.0\vc\include\thr\xthread
; Line 48
	push	ebp
	mov	ebp, esp
	sub	esp, 8
; Line 49
	mov	eax, DWORD PTR __Arg$[ebp]
	push	eax
	mov	ecx, DWORD PTR __Fp$[ebp]
	push	ecx
	mov	edx, DWORD PTR __Thr$[ebp]
	push	edx
	call	__Thrd_start
	add	esp, 12					; 0000000cH
	mov	DWORD PTR __Res$[ebp], eax
; Line 50
	cmp	DWORD PTR __Res$[ebp], 4
	je	SHORT $LN3@Thrd_start
	mov	eax, DWORD PTR __Res$[ebp]
	mov	DWORD PTR tv70[ebp], eax
	jmp	SHORT $LN4@Thrd_start
$LN3@Thrd_start:
	mov	DWORD PTR tv70[ebp], 1
$LN4@Thrd_start:
	mov	ecx, DWORD PTR tv70[ebp]
	push	ecx
	call	?_Check_C_return@std@@YAHH@Z		; std::_Check_C_return
	add	esp, 4
; Line 51
	mov	esp, ebp
	pop	ebp
	ret	0
?_Thrd_startX@std@@YAHPAU_Thrd_imp_t@@P6GIPAX@Z1@Z ENDP	; std::_Thrd_startX
_TEXT	ENDS
; Function compile flags: /Odtp
;	COMDAT ?_Check_C_return@std@@YAHH@Z
_TEXT	SEGMENT
__Res$ = 8						; size = 4
?_Check_C_return@std@@YAHH@Z PROC			; std::_Check_C_return, COMDAT
; File c:\program files (x86)\microsoft visual studio 14.0\vc\include\thr\xthread
; Line 33
	push	ebp
	mov	ebp, esp
; Line 34
	cmp	DWORD PTR __Res$[ebp], 0
	je	SHORT $LN2@Check_C_re
; Line 35
	mov	eax, DWORD PTR __Res$[ebp]
	push	eax
	call	?_Throw_C_error@std@@YAXH@Z		; std::_Throw_C_error
	add	esp, 4
$LN2@Check_C_re:
; Line 36
	mov	eax, DWORD PTR __Res$[ebp]
; Line 37
	pop	ebp
	ret	0
?_Check_C_return@std@@YAHH@Z ENDP			; std::_Check_C_return
_TEXT	ENDS
; Function compile flags: /Odtp
;	COMDAT ?_Deallocate@std@@YAXPAXII@Z
_TEXT	SEGMENT
__Ptr_ptr$1 = -16					; size = 4
__User_size$ = -12					; size = 4
__Ptr_container$2 = -8					; size = 4
__Ptr_user$3 = -4					; size = 4
__Ptr$ = 8						; size = 4
__Count$ = 12						; size = 4
__Sz$ = 16						; size = 4
?_Deallocate@std@@YAXPAXII@Z PROC			; std::_Deallocate, COMDAT
; File c:\program files (x86)\microsoft visual studio 14.0\vc\include\xmemory0
; Line 92
	push	ebp
	mov	ebp, esp
	sub	esp, 16					; 00000010H
; Line 94
	or	eax, -1
	xor	edx, edx
	div	DWORD PTR __Sz$[ebp]
	cmp	DWORD PTR __Count$[ebp], eax
	jbe	SHORT $LN2@Deallocate
	call	__invalid_parameter_noinfo_noreturn
$LN2@Deallocate:
; Line 95
	mov	eax, DWORD PTR __Count$[ebp]
	imul	eax, DWORD PTR __Sz$[ebp]
	mov	DWORD PTR __User_size$[ebp], eax
; Line 96
	cmp	DWORD PTR __User_size$[ebp], 4096	; 00001000H
	jb	SHORT $LN3@Deallocate
; Line 98
	mov	ecx, DWORD PTR __Ptr$[ebp]
	mov	DWORD PTR __Ptr_user$3[ebp], ecx
; Line 99
	mov	edx, DWORD PTR __Ptr_user$3[ebp]
	and	edx, 31					; 0000001fH
	je	SHORT $LN4@Deallocate
	call	__invalid_parameter_noinfo_noreturn
$LN4@Deallocate:
; Line 101
	mov	eax, DWORD PTR __Ptr_user$3[ebp]
	sub	eax, 4
	mov	DWORD PTR __Ptr_ptr$1[ebp], eax
; Line 103
	mov	ecx, DWORD PTR __Ptr_ptr$1[ebp]
	mov	edx, DWORD PTR [ecx]
	mov	DWORD PTR __Ptr_container$2[ebp], edx
; Line 114
	mov	eax, DWORD PTR __Ptr_container$2[ebp]
	cmp	eax, DWORD PTR __Ptr_user$3[ebp]
	jb	SHORT $LN5@Deallocate
	call	__invalid_parameter_noinfo_noreturn
$LN5@Deallocate:
; Line 121
	mov	ecx, DWORD PTR __Ptr_user$3[ebp]
	sub	ecx, DWORD PTR __Ptr_container$2[ebp]
	cmp	ecx, 4
	jae	SHORT $LN6@Deallocate
	call	__invalid_parameter_noinfo_noreturn
$LN6@Deallocate:
; Line 125
	mov	edx, DWORD PTR __Ptr_user$3[ebp]
	sub	edx, DWORD PTR __Ptr_container$2[ebp]
	cmp	edx, 35					; 00000023H
	jbe	SHORT $LN7@Deallocate
	call	__invalid_parameter_noinfo_noreturn
$LN7@Deallocate:
; Line 128
	mov	eax, DWORD PTR __Ptr_container$2[ebp]
	mov	DWORD PTR __Ptr$[ebp], eax
$LN3@Deallocate:
; Line 132
	mov	ecx, DWORD PTR __Ptr$[ebp]
	push	ecx
	call	??3@YAXPAX@Z				; operator delete
	add	esp, 4
$LN8@Deallocate:
; Line 133
	mov	esp, ebp
	pop	ebp
	ret	0
?_Deallocate@std@@YAXPAXII@Z ENDP			; std::_Deallocate
_TEXT	ENDS
; Function compile flags: /Odtp
;	COMDAT ?_Allocate@std@@YAPAXII_N@Z
_TEXT	SEGMENT
__Block_size$1 = -16					; size = 4
__Ptr_container$2 = -12					; size = 4
__User_size$ = -8					; size = 4
__Ptr$ = -4						; size = 4
__Count$ = 8						; size = 4
__Sz$ = 12						; size = 4
__Try_aligned_allocation$ = 16				; size = 1
?_Allocate@std@@YAPAXII_N@Z PROC			; std::_Allocate, COMDAT
; File c:\program files (x86)\microsoft visual studio 14.0\vc\include\xmemory0
; Line 48
	push	ebp
	mov	ebp, esp
	sub	esp, 16					; 00000010H
; Line 49
	mov	DWORD PTR __Ptr$[ebp], 0
; Line 51
	cmp	DWORD PTR __Count$[ebp], 0
	jne	SHORT $LN2@Allocate
; Line 52
	mov	eax, DWORD PTR __Ptr$[ebp]
	jmp	$LN9@Allocate
$LN2@Allocate:
; Line 55
	or	eax, -1
	xor	edx, edx
	div	DWORD PTR __Sz$[ebp]
	cmp	eax, DWORD PTR __Count$[ebp]
	jae	SHORT $LN3@Allocate
; Line 56
	call	?_Xbad_alloc@std@@YAXXZ			; std::_Xbad_alloc
$LN3@Allocate:
; Line 57
	mov	eax, DWORD PTR __Count$[ebp]
	imul	eax, DWORD PTR __Sz$[ebp]
	mov	DWORD PTR __User_size$[ebp], eax
; Line 61
	movzx	ecx, BYTE PTR __Try_aligned_allocation$[ebp]
	test	ecx, ecx
	je	SHORT $LN4@Allocate
	cmp	DWORD PTR __User_size$[ebp], 4096	; 00001000H
	jb	SHORT $LN4@Allocate
; Line 65
	mov	edx, DWORD PTR __User_size$[ebp]
	add	edx, 35					; 00000023H
	mov	DWORD PTR __Block_size$1[ebp], edx
; Line 66
	mov	eax, DWORD PTR __Block_size$1[ebp]
	cmp	eax, DWORD PTR __User_size$[ebp]
	ja	SHORT $LN6@Allocate
; Line 67
	call	?_Xbad_alloc@std@@YAXXZ			; std::_Xbad_alloc
$LN6@Allocate:
; Line 69
	mov	ecx, DWORD PTR __Block_size$1[ebp]
	push	ecx
	call	??2@YAPAXI@Z				; operator new
	add	esp, 4
	mov	DWORD PTR __Ptr_container$2[ebp], eax
; Line 70
	cmp	DWORD PTR __Ptr_container$2[ebp], 0
	jne	SHORT $LN7@Allocate
	call	__invalid_parameter_noinfo_noreturn
$LN7@Allocate:
; Line 71
	mov	edx, DWORD PTR __Ptr_container$2[ebp]
	add	edx, 35					; 00000023H
	and	edx, -32				; ffffffe0H
	mov	DWORD PTR __Ptr$[ebp], edx
; Line 73
	mov	eax, 4
	imul	ecx, eax, -1
	mov	edx, DWORD PTR __Ptr$[ebp]
	mov	eax, DWORD PTR __Ptr_container$2[ebp]
	mov	DWORD PTR [edx+ecx], eax
; Line 79
	jmp	SHORT $LN5@Allocate
$LN4@Allocate:
; Line 83
	mov	ecx, DWORD PTR __User_size$[ebp]
	push	ecx
	call	??2@YAPAXI@Z				; operator new
	add	esp, 4
	mov	DWORD PTR __Ptr$[ebp], eax
; Line 84
	cmp	DWORD PTR __Ptr$[ebp], 0
	jne	SHORT $LN5@Allocate
	call	__invalid_parameter_noinfo_noreturn
$LN5@Allocate:
; Line 86
	mov	eax, DWORD PTR __Ptr$[ebp]
$LN9@Allocate:
; Line 87
	mov	esp, ebp
	pop	ebp
	ret	0
?_Allocate@std@@YAPAXII_N@Z ENDP			; std::_Allocate
_TEXT	ENDS
; Function compile flags: /Odtp
;	COMDAT ?assign@?$char_traits@D@std@@SAXAADABD@Z
_TEXT	SEGMENT
__Left$ = 8						; size = 4
__Right$ = 12						; size = 4
?assign@?$char_traits@D@std@@SAXAADABD@Z PROC		; std::char_traits<char>::assign, COMDAT
; File c:\program files (x86)\microsoft visual studio 14.0\vc\include\iosfwd
; Line 564
	push	ebp
	mov	ebp, esp
; Line 565
	mov	eax, DWORD PTR __Left$[ebp]
	mov	ecx, DWORD PTR __Right$[ebp]
	mov	dl, BYTE PTR [ecx]
	mov	BYTE PTR [eax], dl
; Line 566
	pop	ebp
	ret	0
?assign@?$char_traits@D@std@@SAXAADABD@Z ENDP		; std::char_traits<char>::assign
_TEXT	ENDS
; Function compile flags: /Odtp
;	COMDAT ?move@?$char_traits@D@std@@SAPADPADPBDI@Z
_TEXT	SEGMENT
tv69 = -4						; size = 4
__First1$ = 8						; size = 4
__First2$ = 12						; size = 4
__Count$ = 16						; size = 4
?move@?$char_traits@D@std@@SAPADPADPBDI@Z PROC		; std::char_traits<char>::move, COMDAT
; File c:\program files (x86)\microsoft visual studio 14.0\vc\include\iosfwd
; Line 552
	push	ebp
	mov	ebp, esp
	push	ecx
; Line 553
	cmp	DWORD PTR __Count$[ebp], 0
	jne	SHORT $LN3@move
	mov	eax, DWORD PTR __First1$[ebp]
	mov	DWORD PTR tv69[ebp], eax
	jmp	SHORT $LN4@move
$LN3@move:
	mov	ecx, DWORD PTR __Count$[ebp]
	push	ecx
	mov	edx, DWORD PTR __First2$[ebp]
	push	edx
	mov	eax, DWORD PTR __First1$[ebp]
	push	eax
	call	_memmove
	add	esp, 12					; 0000000cH
	mov	DWORD PTR tv69[ebp], eax
$LN4@move:
	mov	eax, DWORD PTR tv69[ebp]
; Line 555
	mov	esp, ebp
	pop	ebp
	ret	0
?move@?$char_traits@D@std@@SAPADPADPBDI@Z ENDP		; std::char_traits<char>::move
_TEXT	ENDS
; Function compile flags: /Odtp
;	COMDAT ?copy@?$char_traits@D@std@@SAPADPADPBDI@Z
_TEXT	SEGMENT
tv69 = -4						; size = 4
__First1$ = 8						; size = 4
__First2$ = 12						; size = 4
__Count$ = 16						; size = 4
?copy@?$char_traits@D@std@@SAPADPADPBDI@Z PROC		; std::char_traits<char>::copy, COMDAT
; File c:\program files (x86)\microsoft visual studio 14.0\vc\include\iosfwd
; Line 529
	push	ebp
	mov	ebp, esp
	push	ecx
; Line 530
	cmp	DWORD PTR __Count$[ebp], 0
	jne	SHORT $LN3@copy
	mov	eax, DWORD PTR __First1$[ebp]
	mov	DWORD PTR tv69[ebp], eax
	jmp	SHORT $LN4@copy
$LN3@copy:
	mov	ecx, DWORD PTR __Count$[ebp]
	push	ecx
	mov	edx, DWORD PTR __First2$[ebp]
	push	edx
	mov	eax, DWORD PTR __First1$[ebp]
	push	eax
	call	_memcpy
	add	esp, 12					; 0000000cH
	mov	DWORD PTR tv69[ebp], eax
$LN4@copy:
	mov	eax, DWORD PTR tv69[ebp]
; Line 532
	mov	esp, ebp
	pop	ebp
	ret	0
?copy@?$char_traits@D@std@@SAPADPADPBDI@Z ENDP		; std::char_traits<char>::copy
_TEXT	ENDS
; Function compile flags: /Odtp
;	COMDAT ?length@?$char_traits@D@std@@SAIPBD@Z
_TEXT	SEGMENT
tv68 = -4						; size = 4
__First$ = 8						; size = 4
?length@?$char_traits@D@std@@SAIPBD@Z PROC		; std::char_traits<char>::length, COMDAT
; File c:\program files (x86)\microsoft visual studio 14.0\vc\include\iosfwd
; Line 522
	push	ebp
	mov	ebp, esp
	push	ecx
; Line 523
	mov	eax, DWORD PTR __First$[ebp]
	movsx	ecx, BYTE PTR [eax]
	test	ecx, ecx
	jne	SHORT $LN3@length
	mov	DWORD PTR tv68[ebp], 0
	jmp	SHORT $LN4@length
$LN3@length:
	mov	edx, DWORD PTR __First$[ebp]
	push	edx
	call	_strlen
	add	esp, 4
	mov	DWORD PTR tv68[ebp], eax
$LN4@length:
	mov	eax, DWORD PTR tv68[ebp]
; Line 525
	mov	esp, ebp
	pop	ebp
	ret	0
?length@?$char_traits@D@std@@SAIPBD@Z ENDP		; std::char_traits<char>::length
_TEXT	ENDS
; Function compile flags: /Odtp
;	COMDAT ?compare@?$char_traits@D@std@@SAHPBD0I@Z
_TEXT	SEGMENT
tv69 = -4						; size = 4
__First1$ = 8						; size = 4
__First2$ = 12						; size = 4
__Count$ = 16						; size = 4
?compare@?$char_traits@D@std@@SAHPBD0I@Z PROC		; std::char_traits<char>::compare, COMDAT
; File c:\program files (x86)\microsoft visual studio 14.0\vc\include\iosfwd
; Line 516
	push	ebp
	mov	ebp, esp
	push	ecx
; Line 517
	cmp	DWORD PTR __Count$[ebp], 0
	jne	SHORT $LN3@compare
	mov	DWORD PTR tv69[ebp], 0
	jmp	SHORT $LN4@compare
$LN3@compare:
	mov	eax, DWORD PTR __Count$[ebp]
	push	eax
	mov	ecx, DWORD PTR __First2$[ebp]
	push	ecx
	mov	edx, DWORD PTR __First1$[ebp]
	push	edx
	call	_memcmp
	add	esp, 12					; 0000000cH
	mov	DWORD PTR tv69[ebp], eax
$LN4@compare:
	mov	eax, DWORD PTR tv69[ebp]
; Line 519
	mov	esp, ebp
	pop	ebp
	ret	0
?compare@?$char_traits@D@std@@SAHPBD0I@Z ENDP		; std::char_traits<char>::compare
_TEXT	ENDS
; Function compile flags: /Odtp
;	COMDAT ??2@YAPAXIPAX@Z
_TEXT	SEGMENT
__Size$ = 8						; size = 4
__Where$ = 12						; size = 4
??2@YAPAXIPAX@Z PROC					; operator new, COMDAT
; File c:\program files (x86)\microsoft visual studio 14.0\vc\include\vcruntime_new.h
; Line 87
	push	ebp
	mov	ebp, esp
; Line 89
	mov	eax, DWORD PTR __Where$[ebp]
; Line 90
	pop	ebp
	ret	0
??2@YAPAXIPAX@Z ENDP					; operator new
_TEXT	ENDS
END
