; Listing generated by Microsoft (R) Optimizing Compiler Version 19.00.24215.1 

	TITLE	C:\Users\tony\cpp-learning\tsx_test.cpp
	.686P
	.XMM
	include listing.inc
	.model	flat

INCLUDELIB LIBCMT
INCLUDELIB OLDNAMES

PUBLIC	?done@@3_NA					; done
PUBLIC	?tx@@3PAJA					; tx
PUBLIC	?_abort@@3PAJA					; _abort
PUBLIC	?capacity@@3PAJA				; capacity
PUBLIC	?debug@@3PAJA					; debug
PUBLIC	?failed@@3PAJA					; failed
PUBLIC	?conflict@@3PAJA				; conflict
PUBLIC	?zero@@3PAJA					; zero
PUBLIC	?Touch@@3HC					; Touch
_BSS	SEGMENT
?done@@3_NA DB	01H DUP (?)				; done
	ALIGN	4

?tx@@3PAJA DD	01H DUP (?)				; tx
?_abort@@3PAJA DD 01H DUP (?)				; _abort
?capacity@@3PAJA DD 01H DUP (?)				; capacity
?debug@@3PAJA DD 01H DUP (?)				; debug
?failed@@3PAJA DD 01H DUP (?)				; failed
?conflict@@3PAJA DD 01H DUP (?)				; conflict
?zero@@3PAJA DD	01H DUP (?)				; zero
?Touch@@3HC DD	01H DUP (?)				; Touch
_BSS	ENDS
CONST	SEGMENT
$SG39186 DB	'[ PANIC ] _XABORT_NESTED', 0aH, 00H
	ORG $+2
$SG39188 DB	'[ panic ] _XBEGIN_EXPLICIT', 0aH, 00H
$SG39236 DB	'_heartbeat function', 0aH, 00H
	ORG $+3
$SG39237 DB	'txs', 09H, '%ld', 09H, 'aborts', 09H, 09H, '%ld', 09H, 'f'
	DB	'aileds', 09H, '%ld', 09H, 'capacities', 09H, '%ld', 09H, 'deb'
	DB	'ugs', 09H, '%ld', 09H, 'conflit', 09H, '%ld', 09H, 'zero', 09H
	DB	'%ld', 0aH, 00H
CONST	ENDS
PUBLIC	___local_stdio_printf_options
PUBLIC	__vfprintf_l
PUBLIC	??$__vcrt_va_start_verify_argument_type@QBD@@YAXXZ ; __vcrt_va_start_verify_argument_type<char const * const>
PUBLIC	_printf
PUBLIC	?now@system_clock@chrono@std@@SA?AV?$time_point@Usystem_clock@chrono@std@@V?$duration@_JU?$ratio@$00$0JIJGIA@@std@@@23@@23@XZ ; std::chrono::system_clock::now
PUBLIC	?count@?$duration@_JU?$ratio@$00$0JIJGIA@@std@@@chrono@std@@QBE_JXZ ; std::chrono::duration<__int64,std::ratio<1,10000000> >::count
PUBLIC	??0?$time_point@Usystem_clock@chrono@std@@V?$duration@_JU?$ratio@$00$0JIJGIA@@std@@@23@@chrono@std@@QAE@ABV?$duration@_JU?$ratio@$00$0JIJGIA@@std@@@12@@Z ; std::chrono::time_point<std::chrono::system_clock,std::chrono::duration<__int64,std::ratio<1,10000000> > >::time_point<std::chrono::system_clock,std::chrono::duration<__int64,std::ratio<1,10000000> > >
PUBLIC	?time_since_epoch@?$time_point@Usystem_clock@chrono@std@@V?$duration@_JU?$ratio@$00$0JIJGIA@@std@@@23@@chrono@std@@QBE?AV?$duration@_JU?$ratio@$00$0JIJGIA@@std@@@23@XZ ; std::chrono::time_point<std::chrono::system_clock,std::chrono::duration<__int64,std::ratio<1,10000000> > >::time_since_epoch
PUBLIC	??$?0_JX@?$duration@_JU?$ratio@$00$0JIJGIA@@std@@@chrono@std@@QAE@AB_J@Z ; std::chrono::duration<__int64,std::ratio<1,10000000> >::duration<__int64,std::ratio<1,10000000> ><__int64,void>
PUBLIC	?count@?$duration@_JU?$ratio@$00$0DLJKMKAA@@std@@@chrono@std@@QBE_JXZ ; std::chrono::duration<__int64,std::ratio<1,1000000000> >::count
PUBLIC	??Y?$duration@_JU?$ratio@$00$0DLJKMKAA@@std@@@chrono@std@@QAEAAV012@ABV012@@Z ; std::chrono::duration<__int64,std::ratio<1,1000000000> >::operator+=
PUBLIC	??Z?$duration@_JU?$ratio@$00$0DLJKMKAA@@std@@@chrono@std@@QAEAAV012@ABV012@@Z ; std::chrono::duration<__int64,std::ratio<1,1000000000> >::operator-=
PUBLIC	??$?0_JX@?$duration@_JU?$ratio@$00$0DLJKMKAA@@std@@@chrono@std@@QAE@AB_J@Z ; std::chrono::duration<__int64,std::ratio<1,1000000000> >::duration<__int64,std::ratio<1,1000000000> ><__int64,void>
PUBLIC	?count@?$duration@_JU?$ratio@$00$00@std@@@chrono@std@@QBE_JXZ ; std::chrono::duration<__int64,std::ratio<1,1> >::count
PUBLIC	?zero@?$duration@_JU?$ratio@$00$00@std@@@chrono@std@@SA?AV123@XZ ; std::chrono::duration<__int64,std::ratio<1,1> >::zero
PUBLIC	?_Check_C_return@std@@YAHH@Z			; std::_Check_C_return
PUBLIC	?_Thrd_startX@std@@YAHPAU_Thrd_imp_t@@P6GIPAX@Z1@Z ; std::_Thrd_startX
PUBLIC	?_Mtx_initX@std@@YAHPAPAU_Mtx_internal_imp_t@@H@Z ; std::_Mtx_initX
PUBLIC	?_Mtx_lockX@std@@YAHPAU_Mtx_internal_imp_t@@@Z	; std::_Mtx_lockX
PUBLIC	?_Mtx_unlockX@std@@YAHPAU_Mtx_internal_imp_t@@@Z ; std::_Mtx_unlockX
PUBLIC	?_Cnd_initX@std@@YAHPAPAU_Cnd_internal_imp_t@@@Z ; std::_Cnd_initX
PUBLIC	?_Cnd_waitX@std@@YAHPAU_Cnd_internal_imp_t@@PAU_Mtx_internal_imp_t@@@Z ; std::_Cnd_waitX
PUBLIC	?_Cnd_signalX@std@@YAHPAU_Cnd_internal_imp_t@@@Z ; std::_Cnd_signalX
PUBLIC	??0_Auto_cnd@std@@QAE@PAU_Cnd_internal_imp_t@@@Z ; std::_Auto_cnd::_Auto_cnd
PUBLIC	??1_Auto_cnd@std@@QAE@XZ			; std::_Auto_cnd::~_Auto_cnd
PUBLIC	?_Release@_Auto_cnd@std@@QAEXXZ			; std::_Auto_cnd::_Release
PUBLIC	??0_Auto_mtx@std@@QAE@PAU_Mtx_internal_imp_t@@@Z ; std::_Auto_mtx::_Auto_mtx
PUBLIC	??1_Auto_mtx@std@@QAE@XZ			; std::_Auto_mtx::~_Auto_mtx
PUBLIC	?_Release@_Auto_mtx@std@@QAEXXZ			; std::_Auto_mtx::_Release
PUBLIC	??0_Pad@std@@QAE@XZ				; std::_Pad::_Pad
PUBLIC	??1_Pad@std@@QAE@XZ				; std::_Pad::~_Pad
PUBLIC	?_Launch@_Pad@std@@QAEXPAU_Thrd_imp_t@@@Z	; std::_Pad::_Launch
PUBLIC	?_Release@_Pad@std@@QAEXXZ			; std::_Pad::_Release
PUBLIC	?_Call_func@_Pad@std@@CGIPAX@Z			; std::_Pad::_Call_func
PUBLIC	?joinable@thread@std@@QBE_NXZ			; std::thread::joinable
PUBLIC	?join@thread@std@@QAEXXZ			; std::thread::join
PUBLIC	?get_id@thread@std@@QBE?AVid@12@XZ		; std::thread::get_id
PUBLIC	?get_id@this_thread@std@@YA?AVid@thread@2@XZ	; std::this_thread::get_id
PUBLIC	?sleep_until@this_thread@std@@YAXPBUxtime@@@Z	; std::this_thread::sleep_until
PUBLIC	??0id@thread@std@@AAE@I@Z			; std::thread::id::id
PUBLIC	??8std@@YA_NVid@thread@0@0@Z			; std::operator==
PUBLIC	?f1@@YAPAXPAUBank@@H@Z				; f1
PUBLIC	?f2@@YAPAXXZ					; f2
PUBLIC	??$?0HX@?$duration@_JU?$ratio@$00$00@std@@@chrono@std@@QAE@ABH@Z ; std::chrono::duration<__int64,std::ratio<1,1> >::duration<__int64,std::ratio<1,1> ><int,void>
PUBLIC	??$sleep_for@_JU?$ratio@$00$00@std@@@this_thread@std@@YAXABV?$duration@_JU?$ratio@$00$00@std@@@chrono@1@@Z ; std::this_thread::sleep_for<__int64,std::ratio<1,1> >
PUBLIC	_main
PUBLIC	??$?0A6APAXXZ$$VX@thread@std@@QAE@A6APAXXZ@Z	; std::thread::thread<void * (__cdecl&)(void),void>
PUBLIC	??$?0A6APAXPAUBank@@H@ZAAPAU0@AAHX@thread@std@@QAE@A6APAXPAUBank@@H@ZAAPAU2@AAH@Z ; std::thread::thread<void * (__cdecl&)(Bank *,int),Bank * &,int &,void>
PUBLIC	??$move@AAH@std@@YA$$QAHAAH@Z			; std::move<int &>
PUBLIC	??$_To_xtime@_JU?$ratio@$00$00@std@@@std@@YA?AUxtime@@ABV?$duration@_JU?$ratio@$00$00@std@@@chrono@0@@Z ; std::_To_xtime<__int64,std::ratio<1,1> >
PUBLIC	??$forward@A6APAXXZ@std@@YAA6APAXXZA6APAXXZ@Z	; std::forward<void * (__cdecl&)(void)>
PUBLIC	??$make_unique@V?$tuple@P6APAXXZ@std@@A6APAXXZ@std@@YA?AV?$unique_ptr@V?$tuple@P6APAXXZ@std@@U?$default_delete@V?$tuple@P6APAXXZ@std@@@2@@0@A6APAXXZ@Z ; std::make_unique<std::tuple<void * (__cdecl*)(void)>,void * (__cdecl&)(void)>
PUBLIC	??R?$default_delete@V?$tuple@P6APAXXZ@std@@@std@@QBEXPAV?$tuple@P6APAXXZ@1@@Z ; std::default_delete<std::tuple<void * (__cdecl*)(void)> >::operator()
PUBLIC	?get_deleter@?$_Unique_ptr_base@V?$tuple@P6APAXXZ@std@@U?$default_delete@V?$tuple@P6APAXXZ@std@@@2@@std@@QAEAAU?$default_delete@V?$tuple@P6APAXXZ@std@@@2@XZ ; std::_Unique_ptr_base<std::tuple<void * (__cdecl*)(void)>,std::default_delete<std::tuple<void * (__cdecl*)(void)> > >::get_deleter
PUBLIC	?_Myptr@?$_Unique_ptr_base@V?$tuple@P6APAXXZ@std@@U?$default_delete@V?$tuple@P6APAXXZ@std@@@2@@std@@QAEAAPAV?$tuple@P6APAXXZ@2@XZ ; std::_Unique_ptr_base<std::tuple<void * (__cdecl*)(void)>,std::default_delete<std::tuple<void * (__cdecl*)(void)> > >::_Myptr
PUBLIC	?_Myptr@?$_Unique_ptr_base@V?$tuple@P6APAXXZ@std@@U?$default_delete@V?$tuple@P6APAXXZ@std@@@2@@std@@QBEABQAV?$tuple@P6APAXXZ@2@XZ ; std::_Unique_ptr_base<std::tuple<void * (__cdecl*)(void)>,std::default_delete<std::tuple<void * (__cdecl*)(void)> > >::_Myptr
PUBLIC	?_Get_first@?$_Compressed_pair@U?$default_delete@V?$tuple@P6APAXXZ@std@@@std@@PAV?$tuple@P6APAXXZ@2@$00@std@@QAEAAU?$default_delete@V?$tuple@P6APAXXZ@std@@@2@XZ ; std::_Compressed_pair<std::default_delete<std::tuple<void * (__cdecl*)(void)> >,std::tuple<void * (__cdecl*)(void)> *,1>::_Get_first
PUBLIC	?_Get_second@?$_Compressed_pair@U?$default_delete@V?$tuple@P6APAXXZ@std@@@std@@PAV?$tuple@P6APAXXZ@2@$00@std@@QAEAAPAV?$tuple@P6APAXXZ@2@XZ ; std::_Compressed_pair<std::default_delete<std::tuple<void * (__cdecl*)(void)> >,std::tuple<void * (__cdecl*)(void)> *,1>::_Get_second
PUBLIC	?_Get_second@?$_Compressed_pair@U?$default_delete@V?$tuple@P6APAXXZ@std@@@std@@PAV?$tuple@P6APAXXZ@2@$00@std@@QBEABQAV?$tuple@P6APAXXZ@2@XZ ; std::_Compressed_pair<std::default_delete<std::tuple<void * (__cdecl*)(void)> >,std::tuple<void * (__cdecl*)(void)> *,1>::_Get_second
PUBLIC	??0?$unique_ptr@V?$tuple@P6APAXXZ@std@@U?$default_delete@V?$tuple@P6APAXXZ@std@@@2@@std@@QAE@PAV?$tuple@P6APAXXZ@1@@Z ; std::unique_ptr<std::tuple<void * (__cdecl*)(void)>,std::default_delete<std::tuple<void * (__cdecl*)(void)> > >::unique_ptr<std::tuple<void * (__cdecl*)(void)>,std::default_delete<std::tuple<void * (__cdecl*)(void)> > >
PUBLIC	??0?$unique_ptr@V?$tuple@P6APAXXZ@std@@U?$default_delete@V?$tuple@P6APAXXZ@std@@@2@@std@@QAE@$$QAV01@@Z ; std::unique_ptr<std::tuple<void * (__cdecl*)(void)>,std::default_delete<std::tuple<void * (__cdecl*)(void)> > >::unique_ptr<std::tuple<void * (__cdecl*)(void)>,std::default_delete<std::tuple<void * (__cdecl*)(void)> > >
PUBLIC	??1?$unique_ptr@V?$tuple@P6APAXXZ@std@@U?$default_delete@V?$tuple@P6APAXXZ@std@@@2@@std@@QAE@XZ ; std::unique_ptr<std::tuple<void * (__cdecl*)(void)>,std::default_delete<std::tuple<void * (__cdecl*)(void)> > >::~unique_ptr<std::tuple<void * (__cdecl*)(void)>,std::default_delete<std::tuple<void * (__cdecl*)(void)> > >
PUBLIC	??D?$unique_ptr@V?$tuple@P6APAXXZ@std@@U?$default_delete@V?$tuple@P6APAXXZ@std@@@2@@std@@QBEAAV?$tuple@P6APAXXZ@1@XZ ; std::unique_ptr<std::tuple<void * (__cdecl*)(void)>,std::default_delete<std::tuple<void * (__cdecl*)(void)> > >::operator*
PUBLIC	?get@?$unique_ptr@V?$tuple@P6APAXXZ@std@@U?$default_delete@V?$tuple@P6APAXXZ@std@@@2@@std@@QBEPAV?$tuple@P6APAXXZ@2@XZ ; std::unique_ptr<std::tuple<void * (__cdecl*)(void)>,std::default_delete<std::tuple<void * (__cdecl*)(void)> > >::get
PUBLIC	?release@?$unique_ptr@V?$tuple@P6APAXXZ@std@@U?$default_delete@V?$tuple@P6APAXXZ@std@@@2@@std@@QAEPAV?$tuple@P6APAXXZ@2@XZ ; std::unique_ptr<std::tuple<void * (__cdecl*)(void)>,std::default_delete<std::tuple<void * (__cdecl*)(void)> > >::release
PUBLIC	??$_Launch@V?$unique_ptr@V?$tuple@P6APAXXZ@std@@U?$default_delete@V?$tuple@P6APAXXZ@std@@@2@@std@@@std@@YAXPAU_Thrd_imp_t@@$$QAV?$unique_ptr@V?$tuple@P6APAXXZ@std@@U?$default_delete@V?$tuple@P6APAXXZ@std@@@2@@0@@Z ; std::_Launch<std::unique_ptr<std::tuple<void * (__cdecl*)(void)>,std::default_delete<std::tuple<void * (__cdecl*)(void)> > > >
PUBLIC	??$forward@A6APAXPAUBank@@H@Z@std@@YAA6APAXPAUBank@@H@ZA6APAX0H@Z@Z ; std::forward<void * (__cdecl&)(Bank *,int)>
PUBLIC	??$forward@AAPAUBank@@@std@@YAAAPAUBank@@AAPAU1@@Z ; std::forward<Bank * &>
PUBLIC	??$forward@AAH@std@@YAAAHAAH@Z			; std::forward<int &>
PUBLIC	??$make_unique@V?$tuple@P6APAXPAUBank@@H@ZPAU1@H@std@@A6APAXPAUBank@@H@ZAAPAU3@AAH@std@@YA?AV?$unique_ptr@V?$tuple@P6APAXPAUBank@@H@ZPAU1@H@std@@U?$default_delete@V?$tuple@P6APAXPAUBank@@H@ZPAU1@H@std@@@2@@0@A6APAXPAUBank@@H@ZAAPAU2@AAH@Z ; std::make_unique<std::tuple<void * (__cdecl*)(Bank *,int),Bank *,int>,void * (__cdecl&)(Bank *,int),Bank * &,int &>
PUBLIC	??R?$default_delete@V?$tuple@P6APAXPAUBank@@H@ZPAU1@H@std@@@std@@QBEXPAV?$tuple@P6APAXPAUBank@@H@ZPAU1@H@1@@Z ; std::default_delete<std::tuple<void * (__cdecl*)(Bank *,int),Bank *,int> >::operator()
PUBLIC	?get_deleter@?$_Unique_ptr_base@V?$tuple@P6APAXPAUBank@@H@ZPAU1@H@std@@U?$default_delete@V?$tuple@P6APAXPAUBank@@H@ZPAU1@H@std@@@2@@std@@QAEAAU?$default_delete@V?$tuple@P6APAXPAUBank@@H@ZPAU1@H@std@@@2@XZ ; std::_Unique_ptr_base<std::tuple<void * (__cdecl*)(Bank *,int),Bank *,int>,std::default_delete<std::tuple<void * (__cdecl*)(Bank *,int),Bank *,int> > >::get_deleter
PUBLIC	?_Myptr@?$_Unique_ptr_base@V?$tuple@P6APAXPAUBank@@H@ZPAU1@H@std@@U?$default_delete@V?$tuple@P6APAXPAUBank@@H@ZPAU1@H@std@@@2@@std@@QAEAAPAV?$tuple@P6APAXPAUBank@@H@ZPAU1@H@2@XZ ; std::_Unique_ptr_base<std::tuple<void * (__cdecl*)(Bank *,int),Bank *,int>,std::default_delete<std::tuple<void * (__cdecl*)(Bank *,int),Bank *,int> > >::_Myptr
PUBLIC	?_Myptr@?$_Unique_ptr_base@V?$tuple@P6APAXPAUBank@@H@ZPAU1@H@std@@U?$default_delete@V?$tuple@P6APAXPAUBank@@H@ZPAU1@H@std@@@2@@std@@QBEABQAV?$tuple@P6APAXPAUBank@@H@ZPAU1@H@2@XZ ; std::_Unique_ptr_base<std::tuple<void * (__cdecl*)(Bank *,int),Bank *,int>,std::default_delete<std::tuple<void * (__cdecl*)(Bank *,int),Bank *,int> > >::_Myptr
PUBLIC	?_Get_first@?$_Compressed_pair@U?$default_delete@V?$tuple@P6APAXPAUBank@@H@ZPAU1@H@std@@@std@@PAV?$tuple@P6APAXPAUBank@@H@ZPAU1@H@2@$00@std@@QAEAAU?$default_delete@V?$tuple@P6APAXPAUBank@@H@ZPAU1@H@std@@@2@XZ ; std::_Compressed_pair<std::default_delete<std::tuple<void * (__cdecl*)(Bank *,int),Bank *,int> >,std::tuple<void * (__cdecl*)(Bank *,int),Bank *,int> *,1>::_Get_first
PUBLIC	?_Get_second@?$_Compressed_pair@U?$default_delete@V?$tuple@P6APAXPAUBank@@H@ZPAU1@H@std@@@std@@PAV?$tuple@P6APAXPAUBank@@H@ZPAU1@H@2@$00@std@@QAEAAPAV?$tuple@P6APAXPAUBank@@H@ZPAU1@H@2@XZ ; std::_Compressed_pair<std::default_delete<std::tuple<void * (__cdecl*)(Bank *,int),Bank *,int> >,std::tuple<void * (__cdecl*)(Bank *,int),Bank *,int> *,1>::_Get_second
PUBLIC	?_Get_second@?$_Compressed_pair@U?$default_delete@V?$tuple@P6APAXPAUBank@@H@ZPAU1@H@std@@@std@@PAV?$tuple@P6APAXPAUBank@@H@ZPAU1@H@2@$00@std@@QBEABQAV?$tuple@P6APAXPAUBank@@H@ZPAU1@H@2@XZ ; std::_Compressed_pair<std::default_delete<std::tuple<void * (__cdecl*)(Bank *,int),Bank *,int> >,std::tuple<void * (__cdecl*)(Bank *,int),Bank *,int> *,1>::_Get_second
PUBLIC	??0?$unique_ptr@V?$tuple@P6APAXPAUBank@@H@ZPAU1@H@std@@U?$default_delete@V?$tuple@P6APAXPAUBank@@H@ZPAU1@H@std@@@2@@std@@QAE@PAV?$tuple@P6APAXPAUBank@@H@ZPAU1@H@1@@Z ; std::unique_ptr<std::tuple<void * (__cdecl*)(Bank *,int),Bank *,int>,std::default_delete<std::tuple<void * (__cdecl*)(Bank *,int),Bank *,int> > >::unique_ptr<std::tuple<void * (__cdecl*)(Bank *,int),Bank *,int>,std::default_delete<std::tuple<void * (__cdecl*)(Bank *,int),Bank *,int> > >
PUBLIC	??0?$unique_ptr@V?$tuple@P6APAXPAUBank@@H@ZPAU1@H@std@@U?$default_delete@V?$tuple@P6APAXPAUBank@@H@ZPAU1@H@std@@@2@@std@@QAE@$$QAV01@@Z ; std::unique_ptr<std::tuple<void * (__cdecl*)(Bank *,int),Bank *,int>,std::default_delete<std::tuple<void * (__cdecl*)(Bank *,int),Bank *,int> > >::unique_ptr<std::tuple<void * (__cdecl*)(Bank *,int),Bank *,int>,std::default_delete<std::tuple<void * (__cdecl*)(Bank *,int),Bank *,int> > >
PUBLIC	??1?$unique_ptr@V?$tuple@P6APAXPAUBank@@H@ZPAU1@H@std@@U?$default_delete@V?$tuple@P6APAXPAUBank@@H@ZPAU1@H@std@@@2@@std@@QAE@XZ ; std::unique_ptr<std::tuple<void * (__cdecl*)(Bank *,int),Bank *,int>,std::default_delete<std::tuple<void * (__cdecl*)(Bank *,int),Bank *,int> > >::~unique_ptr<std::tuple<void * (__cdecl*)(Bank *,int),Bank *,int>,std::default_delete<std::tuple<void * (__cdecl*)(Bank *,int),Bank *,int> > >
PUBLIC	??D?$unique_ptr@V?$tuple@P6APAXPAUBank@@H@ZPAU1@H@std@@U?$default_delete@V?$tuple@P6APAXPAUBank@@H@ZPAU1@H@std@@@2@@std@@QBEAAV?$tuple@P6APAXPAUBank@@H@ZPAU1@H@1@XZ ; std::unique_ptr<std::tuple<void * (__cdecl*)(Bank *,int),Bank *,int>,std::default_delete<std::tuple<void * (__cdecl*)(Bank *,int),Bank *,int> > >::operator*
PUBLIC	?get@?$unique_ptr@V?$tuple@P6APAXPAUBank@@H@ZPAU1@H@std@@U?$default_delete@V?$tuple@P6APAXPAUBank@@H@ZPAU1@H@std@@@2@@std@@QBEPAV?$tuple@P6APAXPAUBank@@H@ZPAU1@H@2@XZ ; std::unique_ptr<std::tuple<void * (__cdecl*)(Bank *,int),Bank *,int>,std::default_delete<std::tuple<void * (__cdecl*)(Bank *,int),Bank *,int> > >::get
PUBLIC	?release@?$unique_ptr@V?$tuple@P6APAXPAUBank@@H@ZPAU1@H@std@@U?$default_delete@V?$tuple@P6APAXPAUBank@@H@ZPAU1@H@std@@@2@@std@@QAEPAV?$tuple@P6APAXPAUBank@@H@ZPAU1@H@2@XZ ; std::unique_ptr<std::tuple<void * (__cdecl*)(Bank *,int),Bank *,int>,std::default_delete<std::tuple<void * (__cdecl*)(Bank *,int),Bank *,int> > >::release
PUBLIC	??$_Launch@V?$unique_ptr@V?$tuple@P6APAXPAUBank@@H@ZPAU1@H@std@@U?$default_delete@V?$tuple@P6APAXPAUBank@@H@ZPAU1@H@std@@@2@@std@@@std@@YAXPAU_Thrd_imp_t@@$$QAV?$unique_ptr@V?$tuple@P6APAXPAUBank@@H@ZPAU1@H@std@@U?$default_delete@V?$tuple@P6APAXPAUBank@@H@ZPAU1@H@std@@@2@@0@@Z ; std::_Launch<std::unique_ptr<std::tuple<void * (__cdecl*)(Bank *,int),Bank *,int>,std::default_delete<std::tuple<void * (__cdecl*)(Bank *,int),Bank *,int> > > >
PUBLIC	??$?N_JU?$ratio@$00$00@std@@_JU01@@chrono@std@@YA_NABV?$duration@_JU?$ratio@$00$00@std@@@01@0@Z ; std::chrono::operator<=<__int64,std::ratio<1,1>,__int64,std::ratio<1,1> >
PUBLIC	??$?0_JU?$ratio@$00$0JIJGIA@@std@@X@?$duration@_JU?$ratio@$00$0DLJKMKAA@@std@@@chrono@std@@QAE@ABV?$duration@_JU?$ratio@$00$0JIJGIA@@std@@@12@@Z ; std::chrono::duration<__int64,std::ratio<1,1000000000> >::duration<__int64,std::ratio<1,1000000000> ><__int64,std::ratio<1,10000000>,void>
PUBLIC	??$duration_cast@V?$duration@_JU?$ratio@$00$0DLJKMKAA@@std@@@chrono@std@@_JU?$ratio@$00$00@3@@chrono@std@@YA?AV?$duration@_JU?$ratio@$00$0DLJKMKAA@@std@@@01@ABV?$duration@_JU?$ratio@$00$00@std@@@01@@Z ; std::chrono::duration_cast<std::chrono::duration<__int64,std::ratio<1,1000000000> >,__int64,std::ratio<1,1> >
PUBLIC	??$duration_cast@V?$duration@_JU?$ratio@$00$00@std@@@chrono@std@@_JU?$ratio@$00$0DLJKMKAA@@3@@chrono@std@@YA?AV?$duration@_JU?$ratio@$00$00@std@@@01@ABV?$duration@_JU?$ratio@$00$0DLJKMKAA@@std@@@01@@Z ; std::chrono::duration_cast<std::chrono::duration<__int64,std::ratio<1,1> >,__int64,std::ratio<1,1000000000> >
PUBLIC	??$?0_JX@?$duration@_JU?$ratio@$00$00@std@@@chrono@std@@QAE@AB_J@Z ; std::chrono::duration<__int64,std::ratio<1,1> >::duration<__int64,std::ratio<1,1> ><__int64,void>
PUBLIC	??$?0_JU?$ratio@$00$00@std@@X@?$duration@_JU?$ratio@$00$0DLJKMKAA@@std@@@chrono@std@@QAE@ABV?$duration@_JU?$ratio@$00$00@std@@@12@@Z ; std::chrono::duration<__int64,std::ratio<1,1000000000> >::duration<__int64,std::ratio<1,1000000000> ><__int64,std::ratio<1,1>,void>
PUBLIC	??$?0P6APAXXZ$0A@@?$tuple@P6APAXXZ@std@@QAE@ABQ6APAXXZ@Z ; std::tuple<void * (__cdecl*)(void)>::tuple<void * (__cdecl*)(void)><void * (__cdecl*)(void),0>
PUBLIC	??$forward@V?$unique_ptr@V?$tuple@P6APAXXZ@std@@U?$default_delete@V?$tuple@P6APAXXZ@std@@@2@@std@@@std@@YA$$QAV?$unique_ptr@V?$tuple@P6APAXXZ@std@@U?$default_delete@V?$tuple@P6APAXXZ@std@@@2@@0@AAV10@@Z ; std::forward<std::unique_ptr<std::tuple<void * (__cdecl*)(void)>,std::default_delete<std::tuple<void * (__cdecl*)(void)> > > >
PUBLIC	?_Go@?$_LaunchPad@V?$unique_ptr@V?$tuple@P6APAXXZ@std@@U?$default_delete@V?$tuple@P6APAXXZ@std@@@2@@std@@@std@@UAEXXZ ; std::_LaunchPad<std::unique_ptr<std::tuple<void * (__cdecl*)(void)>,std::default_delete<std::tuple<void * (__cdecl*)(void)> > > >::_Go
PUBLIC	?_Run@?$_LaunchPad@V?$unique_ptr@V?$tuple@P6APAXXZ@std@@U?$default_delete@V?$tuple@P6APAXXZ@std@@@2@@std@@@std@@CAXPAV12@@Z ; std::_LaunchPad<std::unique_ptr<std::tuple<void * (__cdecl*)(void)>,std::default_delete<std::tuple<void * (__cdecl*)(void)> > > >::_Run
PUBLIC	??1?$_LaunchPad@V?$unique_ptr@V?$tuple@P6APAXXZ@std@@U?$default_delete@V?$tuple@P6APAXXZ@std@@@2@@std@@@std@@QAE@XZ ; std::_LaunchPad<std::unique_ptr<std::tuple<void * (__cdecl*)(void)>,std::default_delete<std::tuple<void * (__cdecl*)(void)> > > >::~_LaunchPad<std::unique_ptr<std::tuple<void * (__cdecl*)(void)>,std::default_delete<std::tuple<void * (__cdecl*)(void)> > > >
PUBLIC	??$?0V?$unique_ptr@V?$tuple@P6APAXXZ@std@@U?$default_delete@V?$tuple@P6APAXXZ@std@@@2@@std@@@?$_LaunchPad@V?$unique_ptr@V?$tuple@P6APAXXZ@std@@U?$default_delete@V?$tuple@P6APAXXZ@std@@@2@@std@@@std@@QAE@$$QAV?$unique_ptr@V?$tuple@P6APAXXZ@std@@U?$default_delete@V?$tuple@P6APAXXZ@std@@@2@@1@@Z ; std::_LaunchPad<std::unique_ptr<std::tuple<void * (__cdecl*)(void)>,std::default_delete<std::tuple<void * (__cdecl*)(void)> > > >::_LaunchPad<std::unique_ptr<std::tuple<void * (__cdecl*)(void)>,std::default_delete<std::tuple<void * (__cdecl*)(void)> > > ><std::unique_ptr<std::tuple<void * (__cdecl*)(void)>,std::default_delete<std::tuple<void * (__cdecl*)(void)> > > >
PUBLIC	??$?0A6APAXPAUBank@@H@ZAAPAU0@AAH$0A@@?$tuple@P6APAXPAUBank@@H@ZPAU1@H@std@@QAE@A6APAXPAUBank@@H@ZAAPAU2@AAH@Z ; std::tuple<void * (__cdecl*)(Bank *,int),Bank *,int>::tuple<void * (__cdecl*)(Bank *,int),Bank *,int><void * (__cdecl&)(Bank *,int),Bank * &,int &,0>
PUBLIC	??$forward@V?$unique_ptr@V?$tuple@P6APAXPAUBank@@H@ZPAU1@H@std@@U?$default_delete@V?$tuple@P6APAXPAUBank@@H@ZPAU1@H@std@@@2@@std@@@std@@YA$$QAV?$unique_ptr@V?$tuple@P6APAXPAUBank@@H@ZPAU1@H@std@@U?$default_delete@V?$tuple@P6APAXPAUBank@@H@ZPAU1@H@std@@@2@@0@AAV10@@Z ; std::forward<std::unique_ptr<std::tuple<void * (__cdecl*)(Bank *,int),Bank *,int>,std::default_delete<std::tuple<void * (__cdecl*)(Bank *,int),Bank *,int> > > >
PUBLIC	?_Go@?$_LaunchPad@V?$unique_ptr@V?$tuple@P6APAXPAUBank@@H@ZPAU1@H@std@@U?$default_delete@V?$tuple@P6APAXPAUBank@@H@ZPAU1@H@std@@@2@@std@@@std@@UAEXXZ ; std::_LaunchPad<std::unique_ptr<std::tuple<void * (__cdecl*)(Bank *,int),Bank *,int>,std::default_delete<std::tuple<void * (__cdecl*)(Bank *,int),Bank *,int> > > >::_Go
PUBLIC	?_Run@?$_LaunchPad@V?$unique_ptr@V?$tuple@P6APAXPAUBank@@H@ZPAU1@H@std@@U?$default_delete@V?$tuple@P6APAXPAUBank@@H@ZPAU1@H@std@@@2@@std@@@std@@CAXPAV12@@Z ; std::_LaunchPad<std::unique_ptr<std::tuple<void * (__cdecl*)(Bank *,int),Bank *,int>,std::default_delete<std::tuple<void * (__cdecl*)(Bank *,int),Bank *,int> > > >::_Run
PUBLIC	??1?$_LaunchPad@V?$unique_ptr@V?$tuple@P6APAXPAUBank@@H@ZPAU1@H@std@@U?$default_delete@V?$tuple@P6APAXPAUBank@@H@ZPAU1@H@std@@@2@@std@@@std@@QAE@XZ ; std::_LaunchPad<std::unique_ptr<std::tuple<void * (__cdecl*)(Bank *,int),Bank *,int>,std::default_delete<std::tuple<void * (__cdecl*)(Bank *,int),Bank *,int> > > >::~_LaunchPad<std::unique_ptr<std::tuple<void * (__cdecl*)(Bank *,int),Bank *,int>,std::default_delete<std::tuple<void * (__cdecl*)(Bank *,int),Bank *,int> > > >
PUBLIC	??$?0V?$unique_ptr@V?$tuple@P6APAXPAUBank@@H@ZPAU1@H@std@@U?$default_delete@V?$tuple@P6APAXPAUBank@@H@ZPAU1@H@std@@@2@@std@@@?$_LaunchPad@V?$unique_ptr@V?$tuple@P6APAXPAUBank@@H@ZPAU1@H@std@@U?$default_delete@V?$tuple@P6APAXPAUBank@@H@ZPAU1@H@std@@@2@@std@@@std@@QAE@$$QAV?$unique_ptr@V?$tuple@P6APAXPAUBank@@H@ZPAU1@H@std@@U?$default_delete@V?$tuple@P6APAXPAUBank@@H@ZPAU1@H@std@@@2@@1@@Z ; std::_LaunchPad<std::unique_ptr<std::tuple<void * (__cdecl*)(Bank *,int),Bank *,int>,std::default_delete<std::tuple<void * (__cdecl*)(Bank *,int),Bank *,int> > > >::_LaunchPad<std::unique_ptr<std::tuple<void * (__cdecl*)(Bank *,int),Bank *,int>,std::default_delete<std::tuple<void * (__cdecl*)(Bank *,int),Bank *,int> > > ><std::unique_ptr<std::tuple<void * (__cdecl*)(Bank *,int),Bank *,int>,std::default_delete<std::tuple<void * (__cdecl*)(Bank *,int),Bank *,int> > > >
PUBLIC	??$?0PAV?$tuple@P6APAXPAUBank@@H@ZPAU1@H@std@@@?$_Unique_ptr_base@V?$tuple@P6APAXPAUBank@@H@ZPAU1@H@std@@U?$default_delete@V?$tuple@P6APAXPAUBank@@H@ZPAU1@H@std@@@2@@std@@QAE@PAV?$tuple@P6APAXPAUBank@@H@ZPAU1@H@1@@Z ; std::_Unique_ptr_base<std::tuple<void * (__cdecl*)(Bank *,int),Bank *,int>,std::default_delete<std::tuple<void * (__cdecl*)(Bank *,int),Bank *,int> > >::_Unique_ptr_base<std::tuple<void * (__cdecl*)(Bank *,int),Bank *,int>,std::default_delete<std::tuple<void * (__cdecl*)(Bank *,int),Bank *,int> > ><std::tuple<void * (__cdecl*)(Bank *,int),Bank *,int> *>
PUBLIC	??$?0PAV?$tuple@P6APAXXZ@std@@@?$_Unique_ptr_base@V?$tuple@P6APAXXZ@std@@U?$default_delete@V?$tuple@P6APAXXZ@std@@@2@@std@@QAE@PAV?$tuple@P6APAXXZ@1@@Z ; std::_Unique_ptr_base<std::tuple<void * (__cdecl*)(void)>,std::default_delete<std::tuple<void * (__cdecl*)(void)> > >::_Unique_ptr_base<std::tuple<void * (__cdecl*)(void)>,std::default_delete<std::tuple<void * (__cdecl*)(void)> > ><std::tuple<void * (__cdecl*)(void)> *>
PUBLIC	?zero@?$duration_values@_J@chrono@std@@SA_JXZ	; std::chrono::duration_values<__int64>::zero
PUBLIC	??$_Execute@$0A@$00$01@?$_LaunchPad@V?$unique_ptr@V?$tuple@P6APAXPAUBank@@H@ZPAU1@H@std@@U?$default_delete@V?$tuple@P6APAXPAUBank@@H@ZPAU1@H@std@@@2@@std@@@std@@CAXAAV?$tuple@P6APAXPAUBank@@H@ZPAU1@H@1@U?$integer_sequence@I$0A@$00$01@1@@Z ; std::_LaunchPad<std::unique_ptr<std::tuple<void * (__cdecl*)(Bank *,int),Bank *,int>,std::default_delete<std::tuple<void * (__cdecl*)(Bank *,int),Bank *,int> > > >::_Execute<0,1,2>
PUBLIC	??$_Execute@$0A@@?$_LaunchPad@V?$unique_ptr@V?$tuple@P6APAXXZ@std@@U?$default_delete@V?$tuple@P6APAXXZ@std@@@2@@std@@@std@@CAXAAV?$tuple@P6APAXXZ@1@U?$integer_sequence@I$0A@@1@@Z ; std::_LaunchPad<std::unique_ptr<std::tuple<void * (__cdecl*)(void)>,std::default_delete<std::tuple<void * (__cdecl*)(void)> > > >::_Execute<0>
PUBLIC	??$forward@U?$default_delete@V?$tuple@P6APAXPAUBank@@H@ZPAU1@H@std@@@std@@@std@@YA$$QAU?$default_delete@V?$tuple@P6APAXPAUBank@@H@ZPAU1@H@std@@@0@AAU10@@Z ; std::forward<std::default_delete<std::tuple<void * (__cdecl*)(Bank *,int),Bank *,int> > >
PUBLIC	??$?0PAV?$tuple@P6APAXPAUBank@@H@ZPAU1@H@std@@U?$default_delete@V?$tuple@P6APAXPAUBank@@H@ZPAU1@H@std@@@1@@?$_Unique_ptr_base@V?$tuple@P6APAXPAUBank@@H@ZPAU1@H@std@@U?$default_delete@V?$tuple@P6APAXPAUBank@@H@ZPAU1@H@std@@@2@@std@@QAE@PAV?$tuple@P6APAXPAUBank@@H@ZPAU1@H@1@$$QAU?$default_delete@V?$tuple@P6APAXPAUBank@@H@ZPAU1@H@std@@@1@@Z ; std::_Unique_ptr_base<std::tuple<void * (__cdecl*)(Bank *,int),Bank *,int>,std::default_delete<std::tuple<void * (__cdecl*)(Bank *,int),Bank *,int> > >::_Unique_ptr_base<std::tuple<void * (__cdecl*)(Bank *,int),Bank *,int>,std::default_delete<std::tuple<void * (__cdecl*)(Bank *,int),Bank *,int> > ><std::tuple<void * (__cdecl*)(Bank *,int),Bank *,int> *,std::default_delete<std::tuple<void * (__cdecl*)(Bank *,int),Bank *,int> > >
PUBLIC	??$forward@U?$default_delete@V?$tuple@P6APAXXZ@std@@@std@@@std@@YA$$QAU?$default_delete@V?$tuple@P6APAXXZ@std@@@0@AAU10@@Z ; std::forward<std::default_delete<std::tuple<void * (__cdecl*)(void)> > >
PUBLIC	??$?0PAV?$tuple@P6APAXXZ@std@@U?$default_delete@V?$tuple@P6APAXXZ@std@@@1@@?$_Unique_ptr_base@V?$tuple@P6APAXXZ@std@@U?$default_delete@V?$tuple@P6APAXXZ@std@@@2@@std@@QAE@PAV?$tuple@P6APAXXZ@1@$$QAU?$default_delete@V?$tuple@P6APAXXZ@std@@@1@@Z ; std::_Unique_ptr_base<std::tuple<void * (__cdecl*)(void)>,std::default_delete<std::tuple<void * (__cdecl*)(void)> > >::_Unique_ptr_base<std::tuple<void * (__cdecl*)(void)>,std::default_delete<std::tuple<void * (__cdecl*)(void)> > ><std::tuple<void * (__cdecl*)(void)> *,std::default_delete<std::tuple<void * (__cdecl*)(void)> > >
PUBLIC	??$?M_JU?$ratio@$00$00@std@@_JU01@@chrono@std@@YA_NABV?$duration@_JU?$ratio@$00$00@std@@@01@0@Z ; std::chrono::operator<<__int64,std::ratio<1,1>,__int64,std::ratio<1,1> >
PUBLIC	??$duration_cast@V?$duration@_JU?$ratio@$00$0DLJKMKAA@@std@@@chrono@std@@_JU?$ratio@$00$0JIJGIA@@3@@chrono@std@@YA?AV?$duration@_JU?$ratio@$00$0DLJKMKAA@@std@@@01@ABV?$duration@_JU?$ratio@$00$0JIJGIA@@std@@@01@@Z ; std::chrono::duration_cast<std::chrono::duration<__int64,std::ratio<1,1000000000> >,__int64,std::ratio<1,10000000> >
PUBLIC	??$?0U_Exact_args_t@std@@$0A@@?$tuple@$$V@std@@QAE@U_Exact_args_t@1@@Z ; std::tuple<>::tuple<><std::_Exact_args_t,0>
PUBLIC	??$?0ABQ6APAXXZ@?$_Tuple_val@P6APAXXZ@std@@QAE@ABQ6APAXXZ@Z ; std::_Tuple_val<void * (__cdecl*)(void)>::_Tuple_val<void * (__cdecl*)(void)><void * (__cdecl*const &)(void)>
PUBLIC	??$?0U_Exact_args_t@std@@AAPAUBank@@AAH$0A@@?$tuple@PAUBank@@H@std@@QAE@U_Exact_args_t@1@AAPAUBank@@AAH@Z ; std::tuple<Bank *,int>::tuple<Bank *,int><std::_Exact_args_t,Bank * &,int &,0>
PUBLIC	??$?0A6APAXPAUBank@@H@Z@?$_Tuple_val@P6APAXPAUBank@@H@Z@std@@QAE@A6APAXPAUBank@@H@Z@Z ; std::_Tuple_val<void * (__cdecl*)(Bank *,int)>::_Tuple_val<void * (__cdecl*)(Bank *,int)><void * (__cdecl&)(Bank *,int)>
PUBLIC	??$?0AAPAV?$tuple@P6APAXPAUBank@@H@ZPAU1@H@std@@@?$_Compressed_pair@U?$default_delete@V?$tuple@P6APAXPAUBank@@H@ZPAU1@H@std@@@std@@PAV?$tuple@P6APAXPAUBank@@H@ZPAU1@H@2@$00@std@@QAE@U_Zero_then_variadic_args_t@1@AAPAV?$tuple@P6APAXPAUBank@@H@ZPAU1@H@1@@Z ; std::_Compressed_pair<std::default_delete<std::tuple<void * (__cdecl*)(Bank *,int),Bank *,int> >,std::tuple<void * (__cdecl*)(Bank *,int),Bank *,int> *,1>::_Compressed_pair<std::default_delete<std::tuple<void * (__cdecl*)(Bank *,int),Bank *,int> >,std::tuple<void * (__cdecl*)(Bank *,int),Bank *,int> *,1><std::tuple<void * (__cdecl*)(Bank *,int),Bank *,int> * &>
PUBLIC	??$?0AAPAV?$tuple@P6APAXXZ@std@@@?$_Compressed_pair@U?$default_delete@V?$tuple@P6APAXXZ@std@@@std@@PAV?$tuple@P6APAXXZ@2@$00@std@@QAE@U_Zero_then_variadic_args_t@1@AAPAV?$tuple@P6APAXXZ@1@@Z ; std::_Compressed_pair<std::default_delete<std::tuple<void * (__cdecl*)(void)> >,std::tuple<void * (__cdecl*)(void)> *,1>::_Compressed_pair<std::default_delete<std::tuple<void * (__cdecl*)(void)> >,std::tuple<void * (__cdecl*)(void)> *,1><std::tuple<void * (__cdecl*)(void)> * &>
PUBLIC	??$get@$0A@P6APAXPAUBank@@H@ZPAU1@H@std@@YAAAP6APAXPAUBank@@H@ZAAV?$tuple@P6APAXPAUBank@@H@ZPAU1@H@0@@Z ; std::get<0,void * (__cdecl*)(Bank *,int),Bank *,int>
PUBLIC	??$move@AAP6APAXPAUBank@@H@Z@std@@YA$$QAP6APAXPAUBank@@H@ZAAP6APAX0H@Z@Z ; std::move<void * (__cdecl*&)(Bank *,int)>
PUBLIC	??$get@$00P6APAXPAUBank@@H@ZPAU1@H@std@@YAAAPAUBank@@AAV?$tuple@P6APAXPAUBank@@H@ZPAU1@H@0@@Z ; std::get<1,void * (__cdecl*)(Bank *,int),Bank *,int>
PUBLIC	??$move@AAPAUBank@@@std@@YA$$QAPAUBank@@AAPAU1@@Z ; std::move<Bank * &>
PUBLIC	??$get@$01P6APAXPAUBank@@H@ZPAU1@H@std@@YAAAHAAV?$tuple@P6APAXPAUBank@@H@ZPAU1@H@0@@Z ; std::get<2,void * (__cdecl*)(Bank *,int),Bank *,int>
PUBLIC	??$forward@P6APAXPAUBank@@H@Z@std@@YA$$QAP6APAXPAUBank@@H@ZAAP6APAX0H@Z@Z ; std::forward<void * (__cdecl*)(Bank *,int)>
PUBLIC	??$forward@PAUBank@@@std@@YA$$QAPAUBank@@AAPAU1@@Z ; std::forward<Bank *>
PUBLIC	??$forward@H@std@@YA$$QAHAAH@Z			; std::forward<int>
PUBLIC	??$_Call@P6APAXPAUBank@@H@ZPAU1@H@_Invoker_functor@std@@SAPAX$$QAP6APAXPAUBank@@H@Z$$QAPAU2@$$QAH@Z ; std::_Invoker_functor::_Call<void * (__cdecl*)(Bank *,int),Bank *,int>
PUBLIC	??$invoke@P6APAXPAUBank@@H@ZPAU1@H@std@@YAPAX$$QAP6APAXPAUBank@@H@Z$$QAPAU1@$$QAH@Z ; std::invoke<void * (__cdecl*)(Bank *,int),Bank *,int>
PUBLIC	??$get@$0A@P6APAXXZ@std@@YAAAP6APAXXZAAV?$tuple@P6APAXXZ@0@@Z ; std::get<0,void * (__cdecl*)(void)>
PUBLIC	??$move@AAP6APAXXZ@std@@YA$$QAP6APAXXZAAP6APAXXZ@Z ; std::move<void * (__cdecl*&)(void)>
PUBLIC	??$forward@P6APAXXZ@std@@YA$$QAP6APAXXZAAP6APAXXZ@Z ; std::forward<void * (__cdecl*)(void)>
PUBLIC	??$_Call@P6APAXXZ$$V@_Invoker_functor@std@@SAPAX$$QAP6APAXXZ@Z ; std::_Invoker_functor::_Call<void * (__cdecl*)(void)>
PUBLIC	??$invoke@P6APAXXZ$$V@std@@YAPAX$$QAP6APAXXZ@Z	; std::invoke<void * (__cdecl*)(void)>
PUBLIC	??$?0U?$default_delete@V?$tuple@P6APAXPAUBank@@H@ZPAU1@H@std@@@std@@AAPAV?$tuple@P6APAXPAUBank@@H@ZPAU1@H@1@@?$_Compressed_pair@U?$default_delete@V?$tuple@P6APAXPAUBank@@H@ZPAU1@H@std@@@std@@PAV?$tuple@P6APAXPAUBank@@H@ZPAU1@H@2@$00@std@@QAE@U_One_then_variadic_args_t@1@$$QAU?$default_delete@V?$tuple@P6APAXPAUBank@@H@ZPAU1@H@std@@@1@AAPAV?$tuple@P6APAXPAUBank@@H@ZPAU1@H@1@@Z ; std::_Compressed_pair<std::default_delete<std::tuple<void * (__cdecl*)(Bank *,int),Bank *,int> >,std::tuple<void * (__cdecl*)(Bank *,int),Bank *,int> *,1>::_Compressed_pair<std::default_delete<std::tuple<void * (__cdecl*)(Bank *,int),Bank *,int> >,std::tuple<void * (__cdecl*)(Bank *,int),Bank *,int> *,1><std::default_delete<std::tuple<void * (__cdecl*)(Bank *,int),Bank *,int> >,std::tuple<void * (__cdecl*)(Bank *,int),Bank *,int> * &>
PUBLIC	??$?0U?$default_delete@V?$tuple@P6APAXXZ@std@@@std@@AAPAV?$tuple@P6APAXXZ@1@@?$_Compressed_pair@U?$default_delete@V?$tuple@P6APAXXZ@std@@@std@@PAV?$tuple@P6APAXXZ@2@$00@std@@QAE@U_One_then_variadic_args_t@1@$$QAU?$default_delete@V?$tuple@P6APAXXZ@std@@@1@AAPAV?$tuple@P6APAXXZ@1@@Z ; std::_Compressed_pair<std::default_delete<std::tuple<void * (__cdecl*)(void)> >,std::tuple<void * (__cdecl*)(void)> *,1>::_Compressed_pair<std::default_delete<std::tuple<void * (__cdecl*)(void)> >,std::tuple<void * (__cdecl*)(void)> *,1><std::default_delete<std::tuple<void * (__cdecl*)(void)> >,std::tuple<void * (__cdecl*)(void)> * &>
PUBLIC	??$forward@ABQ6APAXXZ@std@@YAABQ6APAXXZABQ6APAXXZ@Z ; std::forward<void * (__cdecl*const &)(void)>
PUBLIC	??$?0U_Exact_args_t@std@@AAH$$V$0A@@?$tuple@H@std@@QAE@U_Exact_args_t@1@AAH@Z ; std::tuple<int>::tuple<int><std::_Exact_args_t,int &,0>
PUBLIC	??$?0AAPAUBank@@@?$_Tuple_val@PAUBank@@@std@@QAE@AAPAUBank@@@Z ; std::_Tuple_val<Bank *>::_Tuple_val<Bank *><Bank * &>
PUBLIC	??$forward@AAPAV?$tuple@P6APAXPAUBank@@H@ZPAU1@H@std@@@std@@YAAAPAV?$tuple@P6APAXPAUBank@@H@ZPAU1@H@0@AAPAV10@@Z ; std::forward<std::tuple<void * (__cdecl*)(Bank *,int),Bank *,int> * &>
PUBLIC	??$forward@AAPAV?$tuple@P6APAXXZ@std@@@std@@YAAAPAV?$tuple@P6APAXXZ@0@AAPAV10@@Z ; std::forward<std::tuple<void * (__cdecl*)(void)> * &>
PUBLIC	??$?0AAH@?$_Tuple_val@H@std@@QAE@AAH@Z		; std::_Tuple_val<int>::_Tuple_val<int><int &>
PUBLIC	?_OptionsStorage@?1??__local_stdio_printf_options@@9@4_KA ; `__local_stdio_printf_options'::`2'::_OptionsStorage
PUBLIC	??_7_Pad@std@@6B@				; std::_Pad::`vftable'
PUBLIC	??_7?$_LaunchPad@V?$unique_ptr@V?$tuple@P6APAXXZ@std@@U?$default_delete@V?$tuple@P6APAXXZ@std@@@2@@std@@@std@@6B@ ; std::_LaunchPad<std::unique_ptr<std::tuple<void * (__cdecl*)(void)>,std::default_delete<std::tuple<void * (__cdecl*)(void)> > > >::`vftable'
PUBLIC	??_7?$_LaunchPad@V?$unique_ptr@V?$tuple@P6APAXPAUBank@@H@ZPAU1@H@std@@U?$default_delete@V?$tuple@P6APAXPAUBank@@H@ZPAU1@H@std@@@2@@std@@@std@@6B@ ; std::_LaunchPad<std::unique_ptr<std::tuple<void * (__cdecl*)(Bank *,int),Bank *,int>,std::default_delete<std::tuple<void * (__cdecl*)(Bank *,int),Bank *,int> > > >::`vftable'
PUBLIC	??_R4_Pad@std@@6B@				; std::_Pad::`RTTI Complete Object Locator'
PUBLIC	??_R0?AV_Pad@std@@@8				; std::_Pad `RTTI Type Descriptor'
PUBLIC	??_R3_Pad@std@@8				; std::_Pad::`RTTI Class Hierarchy Descriptor'
PUBLIC	??_R2_Pad@std@@8				; std::_Pad::`RTTI Base Class Array'
PUBLIC	??_R1A@?0A@EA@_Pad@std@@8			; std::_Pad::`RTTI Base Class Descriptor at (0,-1,0,64)'
PUBLIC	??_R4?$_LaunchPad@V?$unique_ptr@V?$tuple@P6APAXXZ@std@@U?$default_delete@V?$tuple@P6APAXXZ@std@@@2@@std@@@std@@6B@ ; std::_LaunchPad<std::unique_ptr<std::tuple<void * (__cdecl*)(void)>,std::default_delete<std::tuple<void * (__cdecl*)(void)> > > >::`RTTI Complete Object Locator'
PUBLIC	??_R0?AV?$_LaunchPad@V?$unique_ptr@V?$tuple@P6APAXXZ@std@@U?$default_delete@V?$tuple@P6APAXXZ@std@@@2@@std@@@std@@@8 ; std::_LaunchPad<std::unique_ptr<std::tuple<void * (__cdecl*)(void)>,std::default_delete<std::tuple<void * (__cdecl*)(void)> > > > `RTTI Type Descriptor'
PUBLIC	??_R3?$_LaunchPad@V?$unique_ptr@V?$tuple@P6APAXXZ@std@@U?$default_delete@V?$tuple@P6APAXXZ@std@@@2@@std@@@std@@8 ; std::_LaunchPad<std::unique_ptr<std::tuple<void * (__cdecl*)(void)>,std::default_delete<std::tuple<void * (__cdecl*)(void)> > > >::`RTTI Class Hierarchy Descriptor'
PUBLIC	??_R2?$_LaunchPad@V?$unique_ptr@V?$tuple@P6APAXXZ@std@@U?$default_delete@V?$tuple@P6APAXXZ@std@@@2@@std@@@std@@8 ; std::_LaunchPad<std::unique_ptr<std::tuple<void * (__cdecl*)(void)>,std::default_delete<std::tuple<void * (__cdecl*)(void)> > > >::`RTTI Base Class Array'
PUBLIC	??_R1A@?0A@EA@?$_LaunchPad@V?$unique_ptr@V?$tuple@P6APAXXZ@std@@U?$default_delete@V?$tuple@P6APAXXZ@std@@@2@@std@@@std@@8 ; std::_LaunchPad<std::unique_ptr<std::tuple<void * (__cdecl*)(void)>,std::default_delete<std::tuple<void * (__cdecl*)(void)> > > >::`RTTI Base Class Descriptor at (0,-1,0,64)'
PUBLIC	??_R4?$_LaunchPad@V?$unique_ptr@V?$tuple@P6APAXPAUBank@@H@ZPAU1@H@std@@U?$default_delete@V?$tuple@P6APAXPAUBank@@H@ZPAU1@H@std@@@2@@std@@@std@@6B@ ; std::_LaunchPad<std::unique_ptr<std::tuple<void * (__cdecl*)(Bank *,int),Bank *,int>,std::default_delete<std::tuple<void * (__cdecl*)(Bank *,int),Bank *,int> > > >::`RTTI Complete Object Locator'
PUBLIC	??_R0?AV?$_LaunchPad@V?$unique_ptr@V?$tuple@P6APAXPAUBank@@H@ZPAU1@H@std@@U?$default_delete@V?$tuple@P6APAXPAUBank@@H@ZPAU1@H@std@@@2@@std@@@std@@@8 ; std::_LaunchPad<std::unique_ptr<std::tuple<void * (__cdecl*)(Bank *,int),Bank *,int>,std::default_delete<std::tuple<void * (__cdecl*)(Bank *,int),Bank *,int> > > > `RTTI Type Descriptor'
PUBLIC	??_R3?$_LaunchPad@V?$unique_ptr@V?$tuple@P6APAXPAUBank@@H@ZPAU1@H@std@@U?$default_delete@V?$tuple@P6APAXPAUBank@@H@ZPAU1@H@std@@@2@@std@@@std@@8 ; std::_LaunchPad<std::unique_ptr<std::tuple<void * (__cdecl*)(Bank *,int),Bank *,int>,std::default_delete<std::tuple<void * (__cdecl*)(Bank *,int),Bank *,int> > > >::`RTTI Class Hierarchy Descriptor'
PUBLIC	??_R2?$_LaunchPad@V?$unique_ptr@V?$tuple@P6APAXPAUBank@@H@ZPAU1@H@std@@U?$default_delete@V?$tuple@P6APAXPAUBank@@H@ZPAU1@H@std@@@2@@std@@@std@@8 ; std::_LaunchPad<std::unique_ptr<std::tuple<void * (__cdecl*)(Bank *,int),Bank *,int>,std::default_delete<std::tuple<void * (__cdecl*)(Bank *,int),Bank *,int> > > >::`RTTI Base Class Array'
PUBLIC	??_R1A@?0A@EA@?$_LaunchPad@V?$unique_ptr@V?$tuple@P6APAXPAUBank@@H@ZPAU1@H@std@@U?$default_delete@V?$tuple@P6APAXPAUBank@@H@ZPAU1@H@std@@@2@@std@@@std@@8 ; std::_LaunchPad<std::unique_ptr<std::tuple<void * (__cdecl*)(Bank *,int),Bank *,int>,std::default_delete<std::tuple<void * (__cdecl*)(Bank *,int),Bank *,int> > > >::`RTTI Base Class Descriptor at (0,-1,0,64)'
EXTRN	__purecall:PROC
EXTRN	??2@YAPAXI@Z:PROC				; operator new
EXTRN	??3@YAXPAXI@Z:PROC				; operator delete
EXTRN	??_U@YAPAXI@Z:PROC				; operator new[]
EXTRN	_exit:PROC
EXTRN	_rand:PROC
EXTRN	___acrt_iob_func:PROC
EXTRN	___stdio_common_vfprintf:PROC
EXTRN	__Thrd_start:PROC
EXTRN	__Xtime_get_ticks:PROC
EXTRN	__Thrd_join:PROC
EXTRN	__Thrd_sleep:PROC
EXTRN	__Thrd_id:PROC
EXTRN	__Mtx_init:PROC
EXTRN	__Mtx_destroy:PROC
EXTRN	__Mtx_lock:PROC
EXTRN	__Mtx_unlock:PROC
EXTRN	__Cnd_init:PROC
EXTRN	__Cnd_destroy:PROC
EXTRN	__Cnd_wait:PROC
EXTRN	__Cnd_signal:PROC
EXTRN	__Cnd_do_broadcast_at_thread_exit:PROC
EXTRN	?_Throw_C_error@std@@YAXH@Z:PROC		; std::_Throw_C_error
EXTRN	?_Throw_Cpp_error@std@@YAXH@Z:PROC		; std::_Throw_Cpp_error
EXTRN	@__security_check_cookie@4:PROC
EXTRN	__alldiv:PROC
EXTRN	__allmul:PROC
EXTRN	??_7type_info@@6B@:QWORD			; type_info::`vftable'
EXTRN	___security_cookie:DWORD
;	COMDAT ?_OptionsStorage@?1??__local_stdio_printf_options@@9@4_KA
_BSS	SEGMENT
?_OptionsStorage@?1??__local_stdio_printf_options@@9@4_KA DQ 01H DUP (?) ; `__local_stdio_printf_options'::`2'::_OptionsStorage
_BSS	ENDS
;	COMDAT ??_R1A@?0A@EA@?$_LaunchPad@V?$unique_ptr@V?$tuple@P6APAXPAUBank@@H@ZPAU1@H@std@@U?$default_delete@V?$tuple@P6APAXPAUBank@@H@ZPAU1@H@std@@@2@@std@@@std@@8
rdata$r	SEGMENT
??_R1A@?0A@EA@?$_LaunchPad@V?$unique_ptr@V?$tuple@P6APAXPAUBank@@H@ZPAU1@H@std@@U?$default_delete@V?$tuple@P6APAXPAUBank@@H@ZPAU1@H@std@@@2@@std@@@std@@8 DD FLAT:??_R0?AV?$_LaunchPad@V?$unique_ptr@V?$tuple@P6APAXPAUBank@@H@ZPAU1@H@std@@U?$default_delete@V?$tuple@P6APAXPAUBank@@H@ZPAU1@H@std@@@2@@std@@@std@@@8 ; std::_LaunchPad<std::unique_ptr<std::tuple<void * (__cdecl*)(Bank *,int),Bank *,int>,std::default_delete<std::tuple<void * (__cdecl*)(Bank *,int),Bank *,int> > > >::`RTTI Base Class Descriptor at (0,-1,0,64)'
	DD	01H
	DD	00H
	DD	0ffffffffH
	DD	00H
	DD	040H
	DD	FLAT:??_R3?$_LaunchPad@V?$unique_ptr@V?$tuple@P6APAXPAUBank@@H@ZPAU1@H@std@@U?$default_delete@V?$tuple@P6APAXPAUBank@@H@ZPAU1@H@std@@@2@@std@@@std@@8
rdata$r	ENDS
;	COMDAT ??_R2?$_LaunchPad@V?$unique_ptr@V?$tuple@P6APAXPAUBank@@H@ZPAU1@H@std@@U?$default_delete@V?$tuple@P6APAXPAUBank@@H@ZPAU1@H@std@@@2@@std@@@std@@8
rdata$r	SEGMENT
??_R2?$_LaunchPad@V?$unique_ptr@V?$tuple@P6APAXPAUBank@@H@ZPAU1@H@std@@U?$default_delete@V?$tuple@P6APAXPAUBank@@H@ZPAU1@H@std@@@2@@std@@@std@@8 DD FLAT:??_R1A@?0A@EA@?$_LaunchPad@V?$unique_ptr@V?$tuple@P6APAXPAUBank@@H@ZPAU1@H@std@@U?$default_delete@V?$tuple@P6APAXPAUBank@@H@ZPAU1@H@std@@@2@@std@@@std@@8 ; std::_LaunchPad<std::unique_ptr<std::tuple<void * (__cdecl*)(Bank *,int),Bank *,int>,std::default_delete<std::tuple<void * (__cdecl*)(Bank *,int),Bank *,int> > > >::`RTTI Base Class Array'
	DD	FLAT:??_R1A@?0A@EA@_Pad@std@@8
rdata$r	ENDS
;	COMDAT ??_R3?$_LaunchPad@V?$unique_ptr@V?$tuple@P6APAXPAUBank@@H@ZPAU1@H@std@@U?$default_delete@V?$tuple@P6APAXPAUBank@@H@ZPAU1@H@std@@@2@@std@@@std@@8
rdata$r	SEGMENT
??_R3?$_LaunchPad@V?$unique_ptr@V?$tuple@P6APAXPAUBank@@H@ZPAU1@H@std@@U?$default_delete@V?$tuple@P6APAXPAUBank@@H@ZPAU1@H@std@@@2@@std@@@std@@8 DD 00H ; std::_LaunchPad<std::unique_ptr<std::tuple<void * (__cdecl*)(Bank *,int),Bank *,int>,std::default_delete<std::tuple<void * (__cdecl*)(Bank *,int),Bank *,int> > > >::`RTTI Class Hierarchy Descriptor'
	DD	00H
	DD	02H
	DD	FLAT:??_R2?$_LaunchPad@V?$unique_ptr@V?$tuple@P6APAXPAUBank@@H@ZPAU1@H@std@@U?$default_delete@V?$tuple@P6APAXPAUBank@@H@ZPAU1@H@std@@@2@@std@@@std@@8
rdata$r	ENDS
;	COMDAT ??_R0?AV?$_LaunchPad@V?$unique_ptr@V?$tuple@P6APAXPAUBank@@H@ZPAU1@H@std@@U?$default_delete@V?$tuple@P6APAXPAUBank@@H@ZPAU1@H@std@@@2@@std@@@std@@@8
data$r	SEGMENT
??_R0?AV?$_LaunchPad@V?$unique_ptr@V?$tuple@P6APAXPAUBank@@H@ZPAU1@H@std@@U?$default_delete@V?$tuple@P6APAXPAUBank@@H@ZPAU1@H@std@@@2@@std@@@std@@@8 DD FLAT:??_7type_info@@6B@ ; std::_LaunchPad<std::unique_ptr<std::tuple<void * (__cdecl*)(Bank *,int),Bank *,int>,std::default_delete<std::tuple<void * (__cdecl*)(Bank *,int),Bank *,int> > > > `RTTI Type Descriptor'
	DD	00H
	DB	'.?AV?$_LaunchPad@V?$unique_ptr@V?$tuple@P6APAXPAUBank@@H'
	DB	'@ZPAU1@H@std@@U?$default_delete@V?$tuple@P6APAXPAUBank@@H@ZPA'
	DB	'U1@H@std@@@2@@std@@@std@@', 00H
data$r	ENDS
;	COMDAT ??_R4?$_LaunchPad@V?$unique_ptr@V?$tuple@P6APAXPAUBank@@H@ZPAU1@H@std@@U?$default_delete@V?$tuple@P6APAXPAUBank@@H@ZPAU1@H@std@@@2@@std@@@std@@6B@
rdata$r	SEGMENT
??_R4?$_LaunchPad@V?$unique_ptr@V?$tuple@P6APAXPAUBank@@H@ZPAU1@H@std@@U?$default_delete@V?$tuple@P6APAXPAUBank@@H@ZPAU1@H@std@@@2@@std@@@std@@6B@ DD 00H ; std::_LaunchPad<std::unique_ptr<std::tuple<void * (__cdecl*)(Bank *,int),Bank *,int>,std::default_delete<std::tuple<void * (__cdecl*)(Bank *,int),Bank *,int> > > >::`RTTI Complete Object Locator'
	DD	00H
	DD	00H
	DD	FLAT:??_R0?AV?$_LaunchPad@V?$unique_ptr@V?$tuple@P6APAXPAUBank@@H@ZPAU1@H@std@@U?$default_delete@V?$tuple@P6APAXPAUBank@@H@ZPAU1@H@std@@@2@@std@@@std@@@8
	DD	FLAT:??_R3?$_LaunchPad@V?$unique_ptr@V?$tuple@P6APAXPAUBank@@H@ZPAU1@H@std@@U?$default_delete@V?$tuple@P6APAXPAUBank@@H@ZPAU1@H@std@@@2@@std@@@std@@8
rdata$r	ENDS
;	COMDAT ??_R1A@?0A@EA@?$_LaunchPad@V?$unique_ptr@V?$tuple@P6APAXXZ@std@@U?$default_delete@V?$tuple@P6APAXXZ@std@@@2@@std@@@std@@8
rdata$r	SEGMENT
??_R1A@?0A@EA@?$_LaunchPad@V?$unique_ptr@V?$tuple@P6APAXXZ@std@@U?$default_delete@V?$tuple@P6APAXXZ@std@@@2@@std@@@std@@8 DD FLAT:??_R0?AV?$_LaunchPad@V?$unique_ptr@V?$tuple@P6APAXXZ@std@@U?$default_delete@V?$tuple@P6APAXXZ@std@@@2@@std@@@std@@@8 ; std::_LaunchPad<std::unique_ptr<std::tuple<void * (__cdecl*)(void)>,std::default_delete<std::tuple<void * (__cdecl*)(void)> > > >::`RTTI Base Class Descriptor at (0,-1,0,64)'
	DD	01H
	DD	00H
	DD	0ffffffffH
	DD	00H
	DD	040H
	DD	FLAT:??_R3?$_LaunchPad@V?$unique_ptr@V?$tuple@P6APAXXZ@std@@U?$default_delete@V?$tuple@P6APAXXZ@std@@@2@@std@@@std@@8
rdata$r	ENDS
;	COMDAT ??_R2?$_LaunchPad@V?$unique_ptr@V?$tuple@P6APAXXZ@std@@U?$default_delete@V?$tuple@P6APAXXZ@std@@@2@@std@@@std@@8
rdata$r	SEGMENT
??_R2?$_LaunchPad@V?$unique_ptr@V?$tuple@P6APAXXZ@std@@U?$default_delete@V?$tuple@P6APAXXZ@std@@@2@@std@@@std@@8 DD FLAT:??_R1A@?0A@EA@?$_LaunchPad@V?$unique_ptr@V?$tuple@P6APAXXZ@std@@U?$default_delete@V?$tuple@P6APAXXZ@std@@@2@@std@@@std@@8 ; std::_LaunchPad<std::unique_ptr<std::tuple<void * (__cdecl*)(void)>,std::default_delete<std::tuple<void * (__cdecl*)(void)> > > >::`RTTI Base Class Array'
	DD	FLAT:??_R1A@?0A@EA@_Pad@std@@8
rdata$r	ENDS
;	COMDAT ??_R3?$_LaunchPad@V?$unique_ptr@V?$tuple@P6APAXXZ@std@@U?$default_delete@V?$tuple@P6APAXXZ@std@@@2@@std@@@std@@8
rdata$r	SEGMENT
??_R3?$_LaunchPad@V?$unique_ptr@V?$tuple@P6APAXXZ@std@@U?$default_delete@V?$tuple@P6APAXXZ@std@@@2@@std@@@std@@8 DD 00H ; std::_LaunchPad<std::unique_ptr<std::tuple<void * (__cdecl*)(void)>,std::default_delete<std::tuple<void * (__cdecl*)(void)> > > >::`RTTI Class Hierarchy Descriptor'
	DD	00H
	DD	02H
	DD	FLAT:??_R2?$_LaunchPad@V?$unique_ptr@V?$tuple@P6APAXXZ@std@@U?$default_delete@V?$tuple@P6APAXXZ@std@@@2@@std@@@std@@8
rdata$r	ENDS
;	COMDAT ??_R0?AV?$_LaunchPad@V?$unique_ptr@V?$tuple@P6APAXXZ@std@@U?$default_delete@V?$tuple@P6APAXXZ@std@@@2@@std@@@std@@@8
data$r	SEGMENT
??_R0?AV?$_LaunchPad@V?$unique_ptr@V?$tuple@P6APAXXZ@std@@U?$default_delete@V?$tuple@P6APAXXZ@std@@@2@@std@@@std@@@8 DD FLAT:??_7type_info@@6B@ ; std::_LaunchPad<std::unique_ptr<std::tuple<void * (__cdecl*)(void)>,std::default_delete<std::tuple<void * (__cdecl*)(void)> > > > `RTTI Type Descriptor'
	DD	00H
	DB	'.?AV?$_LaunchPad@V?$unique_ptr@V?$tuple@P6APAXXZ@std@@U?'
	DB	'$default_delete@V?$tuple@P6APAXXZ@std@@@2@@std@@@std@@', 00H
data$r	ENDS
;	COMDAT ??_R4?$_LaunchPad@V?$unique_ptr@V?$tuple@P6APAXXZ@std@@U?$default_delete@V?$tuple@P6APAXXZ@std@@@2@@std@@@std@@6B@
rdata$r	SEGMENT
??_R4?$_LaunchPad@V?$unique_ptr@V?$tuple@P6APAXXZ@std@@U?$default_delete@V?$tuple@P6APAXXZ@std@@@2@@std@@@std@@6B@ DD 00H ; std::_LaunchPad<std::unique_ptr<std::tuple<void * (__cdecl*)(void)>,std::default_delete<std::tuple<void * (__cdecl*)(void)> > > >::`RTTI Complete Object Locator'
	DD	00H
	DD	00H
	DD	FLAT:??_R0?AV?$_LaunchPad@V?$unique_ptr@V?$tuple@P6APAXXZ@std@@U?$default_delete@V?$tuple@P6APAXXZ@std@@@2@@std@@@std@@@8
	DD	FLAT:??_R3?$_LaunchPad@V?$unique_ptr@V?$tuple@P6APAXXZ@std@@U?$default_delete@V?$tuple@P6APAXXZ@std@@@2@@std@@@std@@8
rdata$r	ENDS
;	COMDAT ??_R1A@?0A@EA@_Pad@std@@8
rdata$r	SEGMENT
??_R1A@?0A@EA@_Pad@std@@8 DD FLAT:??_R0?AV_Pad@std@@@8	; std::_Pad::`RTTI Base Class Descriptor at (0,-1,0,64)'
	DD	00H
	DD	00H
	DD	0ffffffffH
	DD	00H
	DD	040H
	DD	FLAT:??_R3_Pad@std@@8
rdata$r	ENDS
;	COMDAT ??_R2_Pad@std@@8
rdata$r	SEGMENT
??_R2_Pad@std@@8 DD FLAT:??_R1A@?0A@EA@_Pad@std@@8	; std::_Pad::`RTTI Base Class Array'
rdata$r	ENDS
;	COMDAT ??_R3_Pad@std@@8
rdata$r	SEGMENT
??_R3_Pad@std@@8 DD 00H					; std::_Pad::`RTTI Class Hierarchy Descriptor'
	DD	00H
	DD	01H
	DD	FLAT:??_R2_Pad@std@@8
rdata$r	ENDS
;	COMDAT ??_R0?AV_Pad@std@@@8
data$r	SEGMENT
??_R0?AV_Pad@std@@@8 DD FLAT:??_7type_info@@6B@		; std::_Pad `RTTI Type Descriptor'
	DD	00H
	DB	'.?AV_Pad@std@@', 00H
data$r	ENDS
;	COMDAT ??_R4_Pad@std@@6B@
rdata$r	SEGMENT
??_R4_Pad@std@@6B@ DD 00H				; std::_Pad::`RTTI Complete Object Locator'
	DD	00H
	DD	00H
	DD	FLAT:??_R0?AV_Pad@std@@@8
	DD	FLAT:??_R3_Pad@std@@8
rdata$r	ENDS
;	COMDAT ??_7?$_LaunchPad@V?$unique_ptr@V?$tuple@P6APAXPAUBank@@H@ZPAU1@H@std@@U?$default_delete@V?$tuple@P6APAXPAUBank@@H@ZPAU1@H@std@@@2@@std@@@std@@6B@
CONST	SEGMENT
??_7?$_LaunchPad@V?$unique_ptr@V?$tuple@P6APAXPAUBank@@H@ZPAU1@H@std@@U?$default_delete@V?$tuple@P6APAXPAUBank@@H@ZPAU1@H@std@@@2@@std@@@std@@6B@ DD FLAT:??_R4?$_LaunchPad@V?$unique_ptr@V?$tuple@P6APAXPAUBank@@H@ZPAU1@H@std@@U?$default_delete@V?$tuple@P6APAXPAUBank@@H@ZPAU1@H@std@@@2@@std@@@std@@6B@ ; std::_LaunchPad<std::unique_ptr<std::tuple<void * (__cdecl*)(Bank *,int),Bank *,int>,std::default_delete<std::tuple<void * (__cdecl*)(Bank *,int),Bank *,int> > > >::`vftable'
	DD	FLAT:?_Go@?$_LaunchPad@V?$unique_ptr@V?$tuple@P6APAXPAUBank@@H@ZPAU1@H@std@@U?$default_delete@V?$tuple@P6APAXPAUBank@@H@ZPAU1@H@std@@@2@@std@@@std@@UAEXXZ
CONST	ENDS
;	COMDAT ??_7?$_LaunchPad@V?$unique_ptr@V?$tuple@P6APAXXZ@std@@U?$default_delete@V?$tuple@P6APAXXZ@std@@@2@@std@@@std@@6B@
CONST	SEGMENT
??_7?$_LaunchPad@V?$unique_ptr@V?$tuple@P6APAXXZ@std@@U?$default_delete@V?$tuple@P6APAXXZ@std@@@2@@std@@@std@@6B@ DD FLAT:??_R4?$_LaunchPad@V?$unique_ptr@V?$tuple@P6APAXXZ@std@@U?$default_delete@V?$tuple@P6APAXXZ@std@@@2@@std@@@std@@6B@ ; std::_LaunchPad<std::unique_ptr<std::tuple<void * (__cdecl*)(void)>,std::default_delete<std::tuple<void * (__cdecl*)(void)> > > >::`vftable'
	DD	FLAT:?_Go@?$_LaunchPad@V?$unique_ptr@V?$tuple@P6APAXXZ@std@@U?$default_delete@V?$tuple@P6APAXXZ@std@@@2@@std@@@std@@UAEXXZ
CONST	ENDS
;	COMDAT ??_7_Pad@std@@6B@
CONST	SEGMENT
??_7_Pad@std@@6B@ DD FLAT:??_R4_Pad@std@@6B@		; std::_Pad::`vftable'
	DD	FLAT:__purecall
CONST	ENDS
; Function compile flags: /Odtp
;	COMDAT ??$?0AAH@?$_Tuple_val@H@std@@QAE@AAH@Z
_TEXT	SEGMENT
_this$ = -4						; size = 4
__Arg$ = 8						; size = 4
??$?0AAH@?$_Tuple_val@H@std@@QAE@AAH@Z PROC		; std::_Tuple_val<int>::_Tuple_val<int><int &>, COMDAT
; _this$ = ecx
; File c:\program files (x86)\microsoft visual studio 14.0\vc\include\tuple
; Line 164
	push	ebp
	mov	ebp, esp
	push	ecx
	mov	DWORD PTR _this$[ebp], ecx
; Line 163
	mov	eax, DWORD PTR __Arg$[ebp]
	push	eax
	call	??$forward@AAH@std@@YAAAHAAH@Z		; std::forward<int &>
	add	esp, 4
	mov	ecx, DWORD PTR _this$[ebp]
	mov	edx, DWORD PTR [eax]
	mov	DWORD PTR [ecx], edx
; Line 165
	mov	eax, DWORD PTR _this$[ebp]
	mov	esp, ebp
	pop	ebp
	ret	4
??$?0AAH@?$_Tuple_val@H@std@@QAE@AAH@Z ENDP		; std::_Tuple_val<int>::_Tuple_val<int><int &>
_TEXT	ENDS
; Function compile flags: /Odtp
;	COMDAT ??$forward@AAPAV?$tuple@P6APAXXZ@std@@@std@@YAAAPAV?$tuple@P6APAXXZ@0@AAPAV10@@Z
_TEXT	SEGMENT
__Arg$ = 8						; size = 4
??$forward@AAPAV?$tuple@P6APAXXZ@std@@@std@@YAAAPAV?$tuple@P6APAXXZ@0@AAPAV10@@Z PROC ; std::forward<std::tuple<void * (__cdecl*)(void)> * &>, COMDAT
; File c:\program files (x86)\microsoft visual studio 14.0\vc\include\type_traits
; Line 1275
	push	ebp
	mov	ebp, esp
; Line 1276
	mov	eax, DWORD PTR __Arg$[ebp]
; Line 1277
	pop	ebp
	ret	0
??$forward@AAPAV?$tuple@P6APAXXZ@std@@@std@@YAAAPAV?$tuple@P6APAXXZ@0@AAPAV10@@Z ENDP ; std::forward<std::tuple<void * (__cdecl*)(void)> * &>
_TEXT	ENDS
; Function compile flags: /Odtp
;	COMDAT ??$forward@AAPAV?$tuple@P6APAXPAUBank@@H@ZPAU1@H@std@@@std@@YAAAPAV?$tuple@P6APAXPAUBank@@H@ZPAU1@H@0@AAPAV10@@Z
_TEXT	SEGMENT
__Arg$ = 8						; size = 4
??$forward@AAPAV?$tuple@P6APAXPAUBank@@H@ZPAU1@H@std@@@std@@YAAAPAV?$tuple@P6APAXPAUBank@@H@ZPAU1@H@0@AAPAV10@@Z PROC ; std::forward<std::tuple<void * (__cdecl*)(Bank *,int),Bank *,int> * &>, COMDAT
; File c:\program files (x86)\microsoft visual studio 14.0\vc\include\type_traits
; Line 1275
	push	ebp
	mov	ebp, esp
; Line 1276
	mov	eax, DWORD PTR __Arg$[ebp]
; Line 1277
	pop	ebp
	ret	0
??$forward@AAPAV?$tuple@P6APAXPAUBank@@H@ZPAU1@H@std@@@std@@YAAAPAV?$tuple@P6APAXPAUBank@@H@ZPAU1@H@0@AAPAV10@@Z ENDP ; std::forward<std::tuple<void * (__cdecl*)(Bank *,int),Bank *,int> * &>
_TEXT	ENDS
; Function compile flags: /Odtp
;	COMDAT ??$?0AAPAUBank@@@?$_Tuple_val@PAUBank@@@std@@QAE@AAPAUBank@@@Z
_TEXT	SEGMENT
_this$ = -4						; size = 4
__Arg$ = 8						; size = 4
??$?0AAPAUBank@@@?$_Tuple_val@PAUBank@@@std@@QAE@AAPAUBank@@@Z PROC ; std::_Tuple_val<Bank *>::_Tuple_val<Bank *><Bank * &>, COMDAT
; _this$ = ecx
; File c:\program files (x86)\microsoft visual studio 14.0\vc\include\tuple
; Line 164
	push	ebp
	mov	ebp, esp
	push	ecx
	mov	DWORD PTR _this$[ebp], ecx
; Line 163
	mov	eax, DWORD PTR __Arg$[ebp]
	push	eax
	call	??$forward@AAPAUBank@@@std@@YAAAPAUBank@@AAPAU1@@Z ; std::forward<Bank * &>
	add	esp, 4
	mov	ecx, DWORD PTR _this$[ebp]
	mov	edx, DWORD PTR [eax]
	mov	DWORD PTR [ecx], edx
; Line 165
	mov	eax, DWORD PTR _this$[ebp]
	mov	esp, ebp
	pop	ebp
	ret	4
??$?0AAPAUBank@@@?$_Tuple_val@PAUBank@@@std@@QAE@AAPAUBank@@@Z ENDP ; std::_Tuple_val<Bank *>::_Tuple_val<Bank *><Bank * &>
_TEXT	ENDS
; Function compile flags: /Odtp
;	COMDAT ??$?0U_Exact_args_t@std@@AAH$$V$0A@@?$tuple@H@std@@QAE@U_Exact_args_t@1@AAH@Z
_TEXT	SEGMENT
_this$ = -8						; size = 4
$T1 = -1						; size = 1
___formal$ = 8						; size = 1
__This_arg$ = 12					; size = 4
??$?0U_Exact_args_t@std@@AAH$$V$0A@@?$tuple@H@std@@QAE@U_Exact_args_t@1@AAH@Z PROC ; std::tuple<int>::tuple<int><std::_Exact_args_t,int &,0>, COMDAT
; _this$ = ecx
; File c:\program files (x86)\microsoft visual studio 14.0\vc\include\tuple
; Line 304
	push	ebp
	mov	ebp, esp
	sub	esp, 8
	mov	DWORD PTR _this$[ebp], ecx
; Line 302
	xor	eax, eax
	mov	BYTE PTR $T1[ebp], al
	movzx	ecx, BYTE PTR $T1[ebp]
	push	ecx
	mov	ecx, DWORD PTR _this$[ebp]
	call	??$?0U_Exact_args_t@std@@$0A@@?$tuple@$$V@std@@QAE@U_Exact_args_t@1@@Z ; std::tuple<>::tuple<><std::_Exact_args_t,0>
; Line 303
	mov	edx, DWORD PTR __This_arg$[ebp]
	push	edx
	call	??$forward@AAH@std@@YAAAHAAH@Z		; std::forward<int &>
	add	esp, 4
	push	eax
	mov	ecx, DWORD PTR _this$[ebp]
	call	??$?0AAH@?$_Tuple_val@H@std@@QAE@AAH@Z	; std::_Tuple_val<int>::_Tuple_val<int><int &>
; Line 305
	mov	eax, DWORD PTR _this$[ebp]
	mov	esp, ebp
	pop	ebp
	ret	8
??$?0U_Exact_args_t@std@@AAH$$V$0A@@?$tuple@H@std@@QAE@U_Exact_args_t@1@AAH@Z ENDP ; std::tuple<int>::tuple<int><std::_Exact_args_t,int &,0>
_TEXT	ENDS
; Function compile flags: /Odtp
;	COMDAT ??$forward@ABQ6APAXXZ@std@@YAABQ6APAXXZABQ6APAXXZ@Z
_TEXT	SEGMENT
__Arg$ = 8						; size = 4
??$forward@ABQ6APAXXZ@std@@YAABQ6APAXXZABQ6APAXXZ@Z PROC ; std::forward<void * (__cdecl*const &)(void)>, COMDAT
; File c:\program files (x86)\microsoft visual studio 14.0\vc\include\type_traits
; Line 1275
	push	ebp
	mov	ebp, esp
; Line 1276
	mov	eax, DWORD PTR __Arg$[ebp]
; Line 1277
	pop	ebp
	ret	0
??$forward@ABQ6APAXXZ@std@@YAABQ6APAXXZABQ6APAXXZ@Z ENDP ; std::forward<void * (__cdecl*const &)(void)>
_TEXT	ENDS
; Function compile flags: /Odtp
;	COMDAT ??$?0U?$default_delete@V?$tuple@P6APAXXZ@std@@@std@@AAPAV?$tuple@P6APAXXZ@1@@?$_Compressed_pair@U?$default_delete@V?$tuple@P6APAXXZ@std@@@std@@PAV?$tuple@P6APAXXZ@2@$00@std@@QAE@U_One_then_variadic_args_t@1@$$QAU?$default_delete@V?$tuple@P6APAXXZ@std@@@1@AAPAV?$tuple@P6APAXXZ@1@@Z
_TEXT	SEGMENT
_this$ = -4						; size = 4
___formal$ = 8						; size = 1
__Val1$ = 12						; size = 4
_<_Val2_0>$ = 16					; size = 4
??$?0U?$default_delete@V?$tuple@P6APAXXZ@std@@@std@@AAPAV?$tuple@P6APAXXZ@1@@?$_Compressed_pair@U?$default_delete@V?$tuple@P6APAXXZ@std@@@std@@PAV?$tuple@P6APAXXZ@2@$00@std@@QAE@U_One_then_variadic_args_t@1@$$QAU?$default_delete@V?$tuple@P6APAXXZ@std@@@1@AAPAV?$tuple@P6APAXXZ@1@@Z PROC ; std::_Compressed_pair<std::default_delete<std::tuple<void * (__cdecl*)(void)> >,std::tuple<void * (__cdecl*)(void)> *,1>::_Compressed_pair<std::default_delete<std::tuple<void * (__cdecl*)(void)> >,std::tuple<void * (__cdecl*)(void)> *,1><std::default_delete<std::tuple<void * (__cdecl*)(void)> >,std::tuple<void * (__cdecl*)(void)> * &>, COMDAT
; _this$ = ecx
; File c:\program files (x86)\microsoft visual studio 14.0\vc\include\xutility
; Line 289
	push	ebp
	mov	ebp, esp
	push	ecx
	mov	DWORD PTR _this$[ebp], ecx
; Line 287
	mov	eax, DWORD PTR __Val1$[ebp]
	push	eax
	call	??$forward@U?$default_delete@V?$tuple@P6APAXXZ@std@@@std@@@std@@YA$$QAU?$default_delete@V?$tuple@P6APAXXZ@std@@@0@AAU10@@Z ; std::forward<std::default_delete<std::tuple<void * (__cdecl*)(void)> > >
	add	esp, 4
; Line 288
	mov	ecx, DWORD PTR _<_Val2_0>$[ebp]
	push	ecx
	call	??$forward@AAPAV?$tuple@P6APAXXZ@std@@@std@@YAAAPAV?$tuple@P6APAXXZ@0@AAPAV10@@Z ; std::forward<std::tuple<void * (__cdecl*)(void)> * &>
	add	esp, 4
	mov	edx, DWORD PTR _this$[ebp]
	mov	eax, DWORD PTR [eax]
	mov	DWORD PTR [edx], eax
; Line 290
	mov	eax, DWORD PTR _this$[ebp]
	mov	esp, ebp
	pop	ebp
	ret	12					; 0000000cH
??$?0U?$default_delete@V?$tuple@P6APAXXZ@std@@@std@@AAPAV?$tuple@P6APAXXZ@1@@?$_Compressed_pair@U?$default_delete@V?$tuple@P6APAXXZ@std@@@std@@PAV?$tuple@P6APAXXZ@2@$00@std@@QAE@U_One_then_variadic_args_t@1@$$QAU?$default_delete@V?$tuple@P6APAXXZ@std@@@1@AAPAV?$tuple@P6APAXXZ@1@@Z ENDP ; std::_Compressed_pair<std::default_delete<std::tuple<void * (__cdecl*)(void)> >,std::tuple<void * (__cdecl*)(void)> *,1>::_Compressed_pair<std::default_delete<std::tuple<void * (__cdecl*)(void)> >,std::tuple<void * (__cdecl*)(void)> *,1><std::default_delete<std::tuple<void * (__cdecl*)(void)> >,std::tuple<void * (__cdecl*)(void)> * &>
_TEXT	ENDS
; Function compile flags: /Odtp
;	COMDAT ??$?0U?$default_delete@V?$tuple@P6APAXPAUBank@@H@ZPAU1@H@std@@@std@@AAPAV?$tuple@P6APAXPAUBank@@H@ZPAU1@H@1@@?$_Compressed_pair@U?$default_delete@V?$tuple@P6APAXPAUBank@@H@ZPAU1@H@std@@@std@@PAV?$tuple@P6APAXPAUBank@@H@ZPAU1@H@2@$00@std@@QAE@U_One_then_variadic_args_t@1@$$QAU?$default_delete@V?$tuple@P6APAXPAUBank@@H@ZPAU1@H@std@@@1@AAPAV?$tuple@P6APAXPAUBank@@H@ZPAU1@H@1@@Z
_TEXT	SEGMENT
_this$ = -4						; size = 4
___formal$ = 8						; size = 1
__Val1$ = 12						; size = 4
_<_Val2_0>$ = 16					; size = 4
??$?0U?$default_delete@V?$tuple@P6APAXPAUBank@@H@ZPAU1@H@std@@@std@@AAPAV?$tuple@P6APAXPAUBank@@H@ZPAU1@H@1@@?$_Compressed_pair@U?$default_delete@V?$tuple@P6APAXPAUBank@@H@ZPAU1@H@std@@@std@@PAV?$tuple@P6APAXPAUBank@@H@ZPAU1@H@2@$00@std@@QAE@U_One_then_variadic_args_t@1@$$QAU?$default_delete@V?$tuple@P6APAXPAUBank@@H@ZPAU1@H@std@@@1@AAPAV?$tuple@P6APAXPAUBank@@H@ZPAU1@H@1@@Z PROC ; std::_Compressed_pair<std::default_delete<std::tuple<void * (__cdecl*)(Bank *,int),Bank *,int> >,std::tuple<void * (__cdecl*)(Bank *,int),Bank *,int> *,1>::_Compressed_pair<std::default_delete<std::tuple<void * (__cdecl*)(Bank *,int),Bank *,int> >,std::tuple<void * (__cdecl*)(Bank *,int),Bank *,int> *,1><std::default_delete<std::tuple<void * (__cdecl*)(Bank *,int),Bank *,int> >,std::tuple<void * (__cdecl*)(Bank *,int),Bank *,int> * &>, COMDAT
; _this$ = ecx
; File c:\program files (x86)\microsoft visual studio 14.0\vc\include\xutility
; Line 289
	push	ebp
	mov	ebp, esp
	push	ecx
	mov	DWORD PTR _this$[ebp], ecx
; Line 287
	mov	eax, DWORD PTR __Val1$[ebp]
	push	eax
	call	??$forward@U?$default_delete@V?$tuple@P6APAXPAUBank@@H@ZPAU1@H@std@@@std@@@std@@YA$$QAU?$default_delete@V?$tuple@P6APAXPAUBank@@H@ZPAU1@H@std@@@0@AAU10@@Z ; std::forward<std::default_delete<std::tuple<void * (__cdecl*)(Bank *,int),Bank *,int> > >
	add	esp, 4
; Line 288
	mov	ecx, DWORD PTR _<_Val2_0>$[ebp]
	push	ecx
	call	??$forward@AAPAV?$tuple@P6APAXPAUBank@@H@ZPAU1@H@std@@@std@@YAAAPAV?$tuple@P6APAXPAUBank@@H@ZPAU1@H@0@AAPAV10@@Z ; std::forward<std::tuple<void * (__cdecl*)(Bank *,int),Bank *,int> * &>
	add	esp, 4
	mov	edx, DWORD PTR _this$[ebp]
	mov	eax, DWORD PTR [eax]
	mov	DWORD PTR [edx], eax
; Line 290
	mov	eax, DWORD PTR _this$[ebp]
	mov	esp, ebp
	pop	ebp
	ret	12					; 0000000cH
??$?0U?$default_delete@V?$tuple@P6APAXPAUBank@@H@ZPAU1@H@std@@@std@@AAPAV?$tuple@P6APAXPAUBank@@H@ZPAU1@H@1@@?$_Compressed_pair@U?$default_delete@V?$tuple@P6APAXPAUBank@@H@ZPAU1@H@std@@@std@@PAV?$tuple@P6APAXPAUBank@@H@ZPAU1@H@2@$00@std@@QAE@U_One_then_variadic_args_t@1@$$QAU?$default_delete@V?$tuple@P6APAXPAUBank@@H@ZPAU1@H@std@@@1@AAPAV?$tuple@P6APAXPAUBank@@H@ZPAU1@H@1@@Z ENDP ; std::_Compressed_pair<std::default_delete<std::tuple<void * (__cdecl*)(Bank *,int),Bank *,int> >,std::tuple<void * (__cdecl*)(Bank *,int),Bank *,int> *,1>::_Compressed_pair<std::default_delete<std::tuple<void * (__cdecl*)(Bank *,int),Bank *,int> >,std::tuple<void * (__cdecl*)(Bank *,int),Bank *,int> *,1><std::default_delete<std::tuple<void * (__cdecl*)(Bank *,int),Bank *,int> >,std::tuple<void * (__cdecl*)(Bank *,int),Bank *,int> * &>
_TEXT	ENDS
; Function compile flags: /Odtp
;	COMDAT ??$invoke@P6APAXXZ$$V@std@@YAPAX$$QAP6APAXXZ@Z
_TEXT	SEGMENT
__Obj$ = 8						; size = 4
??$invoke@P6APAXXZ$$V@std@@YAPAX$$QAP6APAXXZ@Z PROC	; std::invoke<void * (__cdecl*)(void)>, COMDAT
; File c:\program files (x86)\microsoft visual studio 14.0\vc\include\type_traits
; Line 1442
	push	ebp
	mov	ebp, esp
; Line 1443
	mov	eax, DWORD PTR __Obj$[ebp]
	push	eax
	call	??$forward@P6APAXXZ@std@@YA$$QAP6APAXXZAAP6APAXXZ@Z ; std::forward<void * (__cdecl*)(void)>
	add	esp, 4
	push	eax
	call	??$_Call@P6APAXXZ$$V@_Invoker_functor@std@@SAPAX$$QAP6APAXXZ@Z ; std::_Invoker_functor::_Call<void * (__cdecl*)(void)>
	add	esp, 4
; Line 1445
	pop	ebp
	ret	0
??$invoke@P6APAXXZ$$V@std@@YAPAX$$QAP6APAXXZ@Z ENDP	; std::invoke<void * (__cdecl*)(void)>
_TEXT	ENDS
; Function compile flags: /Odtp
;	COMDAT ??$_Call@P6APAXXZ$$V@_Invoker_functor@std@@SAPAX$$QAP6APAXXZ@Z
_TEXT	SEGMENT
__Obj$ = 8						; size = 4
??$_Call@P6APAXXZ$$V@_Invoker_functor@std@@SAPAX$$QAP6APAXXZ@Z PROC ; std::_Invoker_functor::_Call<void * (__cdecl*)(void)>, COMDAT
; File c:\program files (x86)\microsoft visual studio 14.0\vc\include\type_traits
; Line 1374
	push	ebp
	mov	ebp, esp
; Line 1375
	mov	eax, DWORD PTR __Obj$[ebp]
	push	eax
	call	??$forward@P6APAXXZ@std@@YA$$QAP6APAXXZAAP6APAXXZ@Z ; std::forward<void * (__cdecl*)(void)>
	add	esp, 4
	mov	ecx, DWORD PTR [eax]
	call	ecx
; Line 1377
	pop	ebp
	ret	0
??$_Call@P6APAXXZ$$V@_Invoker_functor@std@@SAPAX$$QAP6APAXXZ@Z ENDP ; std::_Invoker_functor::_Call<void * (__cdecl*)(void)>
_TEXT	ENDS
; Function compile flags: /Odtp
;	COMDAT ??$forward@P6APAXXZ@std@@YA$$QAP6APAXXZAAP6APAXXZ@Z
_TEXT	SEGMENT
__Arg$ = 8						; size = 4
??$forward@P6APAXXZ@std@@YA$$QAP6APAXXZAAP6APAXXZ@Z PROC ; std::forward<void * (__cdecl*)(void)>, COMDAT
; File c:\program files (x86)\microsoft visual studio 14.0\vc\include\type_traits
; Line 1275
	push	ebp
	mov	ebp, esp
; Line 1276
	mov	eax, DWORD PTR __Arg$[ebp]
; Line 1277
	pop	ebp
	ret	0
??$forward@P6APAXXZ@std@@YA$$QAP6APAXXZAAP6APAXXZ@Z ENDP ; std::forward<void * (__cdecl*)(void)>
_TEXT	ENDS
; Function compile flags: /Odtp
;	COMDAT ??$move@AAP6APAXXZ@std@@YA$$QAP6APAXXZAAP6APAXXZ@Z
_TEXT	SEGMENT
__Arg$ = 8						; size = 4
??$move@AAP6APAXXZ@std@@YA$$QAP6APAXXZAAP6APAXXZ@Z PROC	; std::move<void * (__cdecl*&)(void)>, COMDAT
; File c:\program files (x86)\microsoft visual studio 14.0\vc\include\type_traits
; Line 1291
	push	ebp
	mov	ebp, esp
; Line 1292
	mov	eax, DWORD PTR __Arg$[ebp]
; Line 1293
	pop	ebp
	ret	0
??$move@AAP6APAXXZ@std@@YA$$QAP6APAXXZAAP6APAXXZ@Z ENDP	; std::move<void * (__cdecl*&)(void)>
_TEXT	ENDS
; Function compile flags: /Odtp
;	COMDAT ??$get@$0A@P6APAXXZ@std@@YAAAP6APAXXZAAV?$tuple@P6APAXXZ@0@@Z
_TEXT	SEGMENT
__Tuple$ = 8						; size = 4
??$get@$0A@P6APAXXZ@std@@YAAAP6APAXXZAAV?$tuple@P6APAXXZ@0@@Z PROC ; std::get<0,void * (__cdecl*)(void)>, COMDAT
; File c:\program files (x86)\microsoft visual studio 14.0\vc\include\tuple
; Line 883
	push	ebp
	mov	ebp, esp
; Line 886
	mov	eax, DWORD PTR __Tuple$[ebp]
; Line 887
	pop	ebp
	ret	0
??$get@$0A@P6APAXXZ@std@@YAAAP6APAXXZAAV?$tuple@P6APAXXZ@0@@Z ENDP ; std::get<0,void * (__cdecl*)(void)>
_TEXT	ENDS
; Function compile flags: /Odtp
;	COMDAT ??$invoke@P6APAXPAUBank@@H@ZPAU1@H@std@@YAPAX$$QAP6APAXPAUBank@@H@Z$$QAPAU1@$$QAH@Z
_TEXT	SEGMENT
__Obj$ = 8						; size = 4
_<_Args_0>$ = 12					; size = 4
_<_Args_1>$ = 16					; size = 4
??$invoke@P6APAXPAUBank@@H@ZPAU1@H@std@@YAPAX$$QAP6APAXPAUBank@@H@Z$$QAPAU1@$$QAH@Z PROC ; std::invoke<void * (__cdecl*)(Bank *,int),Bank *,int>, COMDAT
; File c:\program files (x86)\microsoft visual studio 14.0\vc\include\type_traits
; Line 1442
	push	ebp
	mov	ebp, esp
; Line 1443
	mov	eax, DWORD PTR _<_Args_1>$[ebp]
	push	eax
	call	??$forward@H@std@@YA$$QAHAAH@Z		; std::forward<int>
	add	esp, 4
	push	eax
	mov	ecx, DWORD PTR _<_Args_0>$[ebp]
	push	ecx
	call	??$forward@PAUBank@@@std@@YA$$QAPAUBank@@AAPAU1@@Z ; std::forward<Bank *>
	add	esp, 4
	push	eax
	mov	edx, DWORD PTR __Obj$[ebp]
	push	edx
	call	??$forward@P6APAXPAUBank@@H@Z@std@@YA$$QAP6APAXPAUBank@@H@ZAAP6APAX0H@Z@Z ; std::forward<void * (__cdecl*)(Bank *,int)>
	add	esp, 4
	push	eax
	call	??$_Call@P6APAXPAUBank@@H@ZPAU1@H@_Invoker_functor@std@@SAPAX$$QAP6APAXPAUBank@@H@Z$$QAPAU2@$$QAH@Z ; std::_Invoker_functor::_Call<void * (__cdecl*)(Bank *,int),Bank *,int>
	add	esp, 12					; 0000000cH
; Line 1445
	pop	ebp
	ret	0
??$invoke@P6APAXPAUBank@@H@ZPAU1@H@std@@YAPAX$$QAP6APAXPAUBank@@H@Z$$QAPAU1@$$QAH@Z ENDP ; std::invoke<void * (__cdecl*)(Bank *,int),Bank *,int>
_TEXT	ENDS
; Function compile flags: /Odtp
;	COMDAT ??$_Call@P6APAXPAUBank@@H@ZPAU1@H@_Invoker_functor@std@@SAPAX$$QAP6APAXPAUBank@@H@Z$$QAPAU2@$$QAH@Z
_TEXT	SEGMENT
__Obj$ = 8						; size = 4
_<_Args_0>$ = 12					; size = 4
_<_Args_1>$ = 16					; size = 4
??$_Call@P6APAXPAUBank@@H@ZPAU1@H@_Invoker_functor@std@@SAPAX$$QAP6APAXPAUBank@@H@Z$$QAPAU2@$$QAH@Z PROC ; std::_Invoker_functor::_Call<void * (__cdecl*)(Bank *,int),Bank *,int>, COMDAT
; File c:\program files (x86)\microsoft visual studio 14.0\vc\include\type_traits
; Line 1374
	push	ebp
	mov	ebp, esp
; Line 1375
	mov	eax, DWORD PTR _<_Args_1>$[ebp]
	push	eax
	call	??$forward@H@std@@YA$$QAHAAH@Z		; std::forward<int>
	add	esp, 4
	mov	ecx, DWORD PTR [eax]
	push	ecx
	mov	edx, DWORD PTR _<_Args_0>$[ebp]
	push	edx
	call	??$forward@PAUBank@@@std@@YA$$QAPAUBank@@AAPAU1@@Z ; std::forward<Bank *>
	add	esp, 4
	mov	eax, DWORD PTR [eax]
	push	eax
	mov	ecx, DWORD PTR __Obj$[ebp]
	push	ecx
	call	??$forward@P6APAXPAUBank@@H@Z@std@@YA$$QAP6APAXPAUBank@@H@ZAAP6APAX0H@Z@Z ; std::forward<void * (__cdecl*)(Bank *,int)>
	add	esp, 4
	mov	edx, DWORD PTR [eax]
	call	edx
	add	esp, 8
; Line 1377
	pop	ebp
	ret	0
??$_Call@P6APAXPAUBank@@H@ZPAU1@H@_Invoker_functor@std@@SAPAX$$QAP6APAXPAUBank@@H@Z$$QAPAU2@$$QAH@Z ENDP ; std::_Invoker_functor::_Call<void * (__cdecl*)(Bank *,int),Bank *,int>
_TEXT	ENDS
; Function compile flags: /Odtp
;	COMDAT ??$forward@H@std@@YA$$QAHAAH@Z
_TEXT	SEGMENT
__Arg$ = 8						; size = 4
??$forward@H@std@@YA$$QAHAAH@Z PROC			; std::forward<int>, COMDAT
; File c:\program files (x86)\microsoft visual studio 14.0\vc\include\type_traits
; Line 1275
	push	ebp
	mov	ebp, esp
; Line 1276
	mov	eax, DWORD PTR __Arg$[ebp]
; Line 1277
	pop	ebp
	ret	0
??$forward@H@std@@YA$$QAHAAH@Z ENDP			; std::forward<int>
_TEXT	ENDS
; Function compile flags: /Odtp
;	COMDAT ??$forward@PAUBank@@@std@@YA$$QAPAUBank@@AAPAU1@@Z
_TEXT	SEGMENT
__Arg$ = 8						; size = 4
??$forward@PAUBank@@@std@@YA$$QAPAUBank@@AAPAU1@@Z PROC	; std::forward<Bank *>, COMDAT
; File c:\program files (x86)\microsoft visual studio 14.0\vc\include\type_traits
; Line 1275
	push	ebp
	mov	ebp, esp
; Line 1276
	mov	eax, DWORD PTR __Arg$[ebp]
; Line 1277
	pop	ebp
	ret	0
??$forward@PAUBank@@@std@@YA$$QAPAUBank@@AAPAU1@@Z ENDP	; std::forward<Bank *>
_TEXT	ENDS
; Function compile flags: /Odtp
;	COMDAT ??$forward@P6APAXPAUBank@@H@Z@std@@YA$$QAP6APAXPAUBank@@H@ZAAP6APAX0H@Z@Z
_TEXT	SEGMENT
__Arg$ = 8						; size = 4
??$forward@P6APAXPAUBank@@H@Z@std@@YA$$QAP6APAXPAUBank@@H@ZAAP6APAX0H@Z@Z PROC ; std::forward<void * (__cdecl*)(Bank *,int)>, COMDAT
; File c:\program files (x86)\microsoft visual studio 14.0\vc\include\type_traits
; Line 1275
	push	ebp
	mov	ebp, esp
; Line 1276
	mov	eax, DWORD PTR __Arg$[ebp]
; Line 1277
	pop	ebp
	ret	0
??$forward@P6APAXPAUBank@@H@Z@std@@YA$$QAP6APAXPAUBank@@H@ZAAP6APAX0H@Z@Z ENDP ; std::forward<void * (__cdecl*)(Bank *,int)>
_TEXT	ENDS
; Function compile flags: /Odtp
;	COMDAT ??$get@$01P6APAXPAUBank@@H@ZPAU1@H@std@@YAAAHAAV?$tuple@P6APAXPAUBank@@H@ZPAU1@H@0@@Z
_TEXT	SEGMENT
__Tuple$ = 8						; size = 4
??$get@$01P6APAXPAUBank@@H@ZPAU1@H@std@@YAAAHAAV?$tuple@P6APAXPAUBank@@H@ZPAU1@H@0@@Z PROC ; std::get<2,void * (__cdecl*)(Bank *,int),Bank *,int>, COMDAT
; File c:\program files (x86)\microsoft visual studio 14.0\vc\include\tuple
; Line 883
	push	ebp
	mov	ebp, esp
; Line 886
	mov	eax, DWORD PTR __Tuple$[ebp]
; Line 887
	pop	ebp
	ret	0
??$get@$01P6APAXPAUBank@@H@ZPAU1@H@std@@YAAAHAAV?$tuple@P6APAXPAUBank@@H@ZPAU1@H@0@@Z ENDP ; std::get<2,void * (__cdecl*)(Bank *,int),Bank *,int>
_TEXT	ENDS
; Function compile flags: /Odtp
;	COMDAT ??$move@AAPAUBank@@@std@@YA$$QAPAUBank@@AAPAU1@@Z
_TEXT	SEGMENT
__Arg$ = 8						; size = 4
??$move@AAPAUBank@@@std@@YA$$QAPAUBank@@AAPAU1@@Z PROC	; std::move<Bank * &>, COMDAT
; File c:\program files (x86)\microsoft visual studio 14.0\vc\include\type_traits
; Line 1291
	push	ebp
	mov	ebp, esp
; Line 1292
	mov	eax, DWORD PTR __Arg$[ebp]
; Line 1293
	pop	ebp
	ret	0
??$move@AAPAUBank@@@std@@YA$$QAPAUBank@@AAPAU1@@Z ENDP	; std::move<Bank * &>
_TEXT	ENDS
; Function compile flags: /Odtp
;	COMDAT ??$get@$00P6APAXPAUBank@@H@ZPAU1@H@std@@YAAAPAUBank@@AAV?$tuple@P6APAXPAUBank@@H@ZPAU1@H@0@@Z
_TEXT	SEGMENT
__Tuple$ = 8						; size = 4
??$get@$00P6APAXPAUBank@@H@ZPAU1@H@std@@YAAAPAUBank@@AAV?$tuple@P6APAXPAUBank@@H@ZPAU1@H@0@@Z PROC ; std::get<1,void * (__cdecl*)(Bank *,int),Bank *,int>, COMDAT
; File c:\program files (x86)\microsoft visual studio 14.0\vc\include\tuple
; Line 883
	push	ebp
	mov	ebp, esp
; Line 886
	mov	eax, DWORD PTR __Tuple$[ebp]
	add	eax, 4
; Line 887
	pop	ebp
	ret	0
??$get@$00P6APAXPAUBank@@H@ZPAU1@H@std@@YAAAPAUBank@@AAV?$tuple@P6APAXPAUBank@@H@ZPAU1@H@0@@Z ENDP ; std::get<1,void * (__cdecl*)(Bank *,int),Bank *,int>
_TEXT	ENDS
; Function compile flags: /Odtp
;	COMDAT ??$move@AAP6APAXPAUBank@@H@Z@std@@YA$$QAP6APAXPAUBank@@H@ZAAP6APAX0H@Z@Z
_TEXT	SEGMENT
__Arg$ = 8						; size = 4
??$move@AAP6APAXPAUBank@@H@Z@std@@YA$$QAP6APAXPAUBank@@H@ZAAP6APAX0H@Z@Z PROC ; std::move<void * (__cdecl*&)(Bank *,int)>, COMDAT
; File c:\program files (x86)\microsoft visual studio 14.0\vc\include\type_traits
; Line 1291
	push	ebp
	mov	ebp, esp
; Line 1292
	mov	eax, DWORD PTR __Arg$[ebp]
; Line 1293
	pop	ebp
	ret	0
??$move@AAP6APAXPAUBank@@H@Z@std@@YA$$QAP6APAXPAUBank@@H@ZAAP6APAX0H@Z@Z ENDP ; std::move<void * (__cdecl*&)(Bank *,int)>
_TEXT	ENDS
; Function compile flags: /Odtp
;	COMDAT ??$get@$0A@P6APAXPAUBank@@H@ZPAU1@H@std@@YAAAP6APAXPAUBank@@H@ZAAV?$tuple@P6APAXPAUBank@@H@ZPAU1@H@0@@Z
_TEXT	SEGMENT
__Tuple$ = 8						; size = 4
??$get@$0A@P6APAXPAUBank@@H@ZPAU1@H@std@@YAAAP6APAXPAUBank@@H@ZAAV?$tuple@P6APAXPAUBank@@H@ZPAU1@H@0@@Z PROC ; std::get<0,void * (__cdecl*)(Bank *,int),Bank *,int>, COMDAT
; File c:\program files (x86)\microsoft visual studio 14.0\vc\include\tuple
; Line 883
	push	ebp
	mov	ebp, esp
; Line 886
	mov	eax, DWORD PTR __Tuple$[ebp]
	add	eax, 8
; Line 887
	pop	ebp
	ret	0
??$get@$0A@P6APAXPAUBank@@H@ZPAU1@H@std@@YAAAP6APAXPAUBank@@H@ZAAV?$tuple@P6APAXPAUBank@@H@ZPAU1@H@0@@Z ENDP ; std::get<0,void * (__cdecl*)(Bank *,int),Bank *,int>
_TEXT	ENDS
; Function compile flags: /Odtp
;	COMDAT ??$?0AAPAV?$tuple@P6APAXXZ@std@@@?$_Compressed_pair@U?$default_delete@V?$tuple@P6APAXXZ@std@@@std@@PAV?$tuple@P6APAXXZ@2@$00@std@@QAE@U_Zero_then_variadic_args_t@1@AAPAV?$tuple@P6APAXXZ@1@@Z
_TEXT	SEGMENT
_this$ = -4						; size = 4
___formal$ = 8						; size = 1
_<_Val2_0>$ = 12					; size = 4
??$?0AAPAV?$tuple@P6APAXXZ@std@@@?$_Compressed_pair@U?$default_delete@V?$tuple@P6APAXXZ@std@@@std@@PAV?$tuple@P6APAXXZ@2@$00@std@@QAE@U_Zero_then_variadic_args_t@1@AAPAV?$tuple@P6APAXXZ@1@@Z PROC ; std::_Compressed_pair<std::default_delete<std::tuple<void * (__cdecl*)(void)> >,std::tuple<void * (__cdecl*)(void)> *,1>::_Compressed_pair<std::default_delete<std::tuple<void * (__cdecl*)(void)> >,std::tuple<void * (__cdecl*)(void)> *,1><std::tuple<void * (__cdecl*)(void)> * &>, COMDAT
; _this$ = ecx
; File c:\program files (x86)\microsoft visual studio 14.0\vc\include\xutility
; Line 280
	push	ebp
	mov	ebp, esp
	push	ecx
	mov	DWORD PTR _this$[ebp], ecx
; Line 279
	mov	eax, DWORD PTR _<_Val2_0>$[ebp]
	push	eax
	call	??$forward@AAPAV?$tuple@P6APAXXZ@std@@@std@@YAAAPAV?$tuple@P6APAXXZ@0@AAPAV10@@Z ; std::forward<std::tuple<void * (__cdecl*)(void)> * &>
	add	esp, 4
	mov	ecx, DWORD PTR _this$[ebp]
	mov	edx, DWORD PTR [eax]
	mov	DWORD PTR [ecx], edx
; Line 281
	mov	eax, DWORD PTR _this$[ebp]
	mov	esp, ebp
	pop	ebp
	ret	8
??$?0AAPAV?$tuple@P6APAXXZ@std@@@?$_Compressed_pair@U?$default_delete@V?$tuple@P6APAXXZ@std@@@std@@PAV?$tuple@P6APAXXZ@2@$00@std@@QAE@U_Zero_then_variadic_args_t@1@AAPAV?$tuple@P6APAXXZ@1@@Z ENDP ; std::_Compressed_pair<std::default_delete<std::tuple<void * (__cdecl*)(void)> >,std::tuple<void * (__cdecl*)(void)> *,1>::_Compressed_pair<std::default_delete<std::tuple<void * (__cdecl*)(void)> >,std::tuple<void * (__cdecl*)(void)> *,1><std::tuple<void * (__cdecl*)(void)> * &>
_TEXT	ENDS
; Function compile flags: /Odtp
;	COMDAT ??$?0AAPAV?$tuple@P6APAXPAUBank@@H@ZPAU1@H@std@@@?$_Compressed_pair@U?$default_delete@V?$tuple@P6APAXPAUBank@@H@ZPAU1@H@std@@@std@@PAV?$tuple@P6APAXPAUBank@@H@ZPAU1@H@2@$00@std@@QAE@U_Zero_then_variadic_args_t@1@AAPAV?$tuple@P6APAXPAUBank@@H@ZPAU1@H@1@@Z
_TEXT	SEGMENT
_this$ = -4						; size = 4
___formal$ = 8						; size = 1
_<_Val2_0>$ = 12					; size = 4
??$?0AAPAV?$tuple@P6APAXPAUBank@@H@ZPAU1@H@std@@@?$_Compressed_pair@U?$default_delete@V?$tuple@P6APAXPAUBank@@H@ZPAU1@H@std@@@std@@PAV?$tuple@P6APAXPAUBank@@H@ZPAU1@H@2@$00@std@@QAE@U_Zero_then_variadic_args_t@1@AAPAV?$tuple@P6APAXPAUBank@@H@ZPAU1@H@1@@Z PROC ; std::_Compressed_pair<std::default_delete<std::tuple<void * (__cdecl*)(Bank *,int),Bank *,int> >,std::tuple<void * (__cdecl*)(Bank *,int),Bank *,int> *,1>::_Compressed_pair<std::default_delete<std::tuple<void * (__cdecl*)(Bank *,int),Bank *,int> >,std::tuple<void * (__cdecl*)(Bank *,int),Bank *,int> *,1><std::tuple<void * (__cdecl*)(Bank *,int),Bank *,int> * &>, COMDAT
; _this$ = ecx
; File c:\program files (x86)\microsoft visual studio 14.0\vc\include\xutility
; Line 280
	push	ebp
	mov	ebp, esp
	push	ecx
	mov	DWORD PTR _this$[ebp], ecx
; Line 279
	mov	eax, DWORD PTR _<_Val2_0>$[ebp]
	push	eax
	call	??$forward@AAPAV?$tuple@P6APAXPAUBank@@H@ZPAU1@H@std@@@std@@YAAAPAV?$tuple@P6APAXPAUBank@@H@ZPAU1@H@0@AAPAV10@@Z ; std::forward<std::tuple<void * (__cdecl*)(Bank *,int),Bank *,int> * &>
	add	esp, 4
	mov	ecx, DWORD PTR _this$[ebp]
	mov	edx, DWORD PTR [eax]
	mov	DWORD PTR [ecx], edx
; Line 281
	mov	eax, DWORD PTR _this$[ebp]
	mov	esp, ebp
	pop	ebp
	ret	8
??$?0AAPAV?$tuple@P6APAXPAUBank@@H@ZPAU1@H@std@@@?$_Compressed_pair@U?$default_delete@V?$tuple@P6APAXPAUBank@@H@ZPAU1@H@std@@@std@@PAV?$tuple@P6APAXPAUBank@@H@ZPAU1@H@2@$00@std@@QAE@U_Zero_then_variadic_args_t@1@AAPAV?$tuple@P6APAXPAUBank@@H@ZPAU1@H@1@@Z ENDP ; std::_Compressed_pair<std::default_delete<std::tuple<void * (__cdecl*)(Bank *,int),Bank *,int> >,std::tuple<void * (__cdecl*)(Bank *,int),Bank *,int> *,1>::_Compressed_pair<std::default_delete<std::tuple<void * (__cdecl*)(Bank *,int),Bank *,int> >,std::tuple<void * (__cdecl*)(Bank *,int),Bank *,int> *,1><std::tuple<void * (__cdecl*)(Bank *,int),Bank *,int> * &>
_TEXT	ENDS
; Function compile flags: /Odtp
;	COMDAT ??$?0A6APAXPAUBank@@H@Z@?$_Tuple_val@P6APAXPAUBank@@H@Z@std@@QAE@A6APAXPAUBank@@H@Z@Z
_TEXT	SEGMENT
_this$ = -4						; size = 4
__Arg$ = 8						; size = 4
??$?0A6APAXPAUBank@@H@Z@?$_Tuple_val@P6APAXPAUBank@@H@Z@std@@QAE@A6APAXPAUBank@@H@Z@Z PROC ; std::_Tuple_val<void * (__cdecl*)(Bank *,int)>::_Tuple_val<void * (__cdecl*)(Bank *,int)><void * (__cdecl&)(Bank *,int)>, COMDAT
; _this$ = ecx
; File c:\program files (x86)\microsoft visual studio 14.0\vc\include\tuple
; Line 164
	push	ebp
	mov	ebp, esp
	push	ecx
	mov	DWORD PTR _this$[ebp], ecx
; Line 163
	mov	eax, DWORD PTR __Arg$[ebp]
	push	eax
	call	??$forward@A6APAXPAUBank@@H@Z@std@@YAA6APAXPAUBank@@H@ZA6APAX0H@Z@Z ; std::forward<void * (__cdecl&)(Bank *,int)>
	add	esp, 4
	mov	ecx, DWORD PTR _this$[ebp]
	mov	DWORD PTR [ecx], eax
; Line 165
	mov	eax, DWORD PTR _this$[ebp]
	mov	esp, ebp
	pop	ebp
	ret	4
??$?0A6APAXPAUBank@@H@Z@?$_Tuple_val@P6APAXPAUBank@@H@Z@std@@QAE@A6APAXPAUBank@@H@Z@Z ENDP ; std::_Tuple_val<void * (__cdecl*)(Bank *,int)>::_Tuple_val<void * (__cdecl*)(Bank *,int)><void * (__cdecl&)(Bank *,int)>
_TEXT	ENDS
; Function compile flags: /Odtp
;	COMDAT ??$?0U_Exact_args_t@std@@AAPAUBank@@AAH$0A@@?$tuple@PAUBank@@H@std@@QAE@U_Exact_args_t@1@AAPAUBank@@AAH@Z
_TEXT	SEGMENT
_this$ = -8						; size = 4
$T1 = -1						; size = 1
___formal$ = 8						; size = 1
__This_arg$ = 12					; size = 4
_<_Rest_arg_0>$ = 16					; size = 4
??$?0U_Exact_args_t@std@@AAPAUBank@@AAH$0A@@?$tuple@PAUBank@@H@std@@QAE@U_Exact_args_t@1@AAPAUBank@@AAH@Z PROC ; std::tuple<Bank *,int>::tuple<Bank *,int><std::_Exact_args_t,Bank * &,int &,0>, COMDAT
; _this$ = ecx
; File c:\program files (x86)\microsoft visual studio 14.0\vc\include\tuple
; Line 304
	push	ebp
	mov	ebp, esp
	sub	esp, 8
	mov	DWORD PTR _this$[ebp], ecx
; Line 302
	xor	eax, eax
	mov	BYTE PTR $T1[ebp], al
	mov	ecx, DWORD PTR _<_Rest_arg_0>$[ebp]
	push	ecx
	call	??$forward@AAH@std@@YAAAHAAH@Z		; std::forward<int &>
	add	esp, 4
	push	eax
	movzx	edx, BYTE PTR $T1[ebp]
	push	edx
	mov	ecx, DWORD PTR _this$[ebp]
	call	??$?0U_Exact_args_t@std@@AAH$$V$0A@@?$tuple@H@std@@QAE@U_Exact_args_t@1@AAH@Z ; std::tuple<int>::tuple<int><std::_Exact_args_t,int &,0>
; Line 303
	mov	eax, DWORD PTR __This_arg$[ebp]
	push	eax
	call	??$forward@AAPAUBank@@@std@@YAAAPAUBank@@AAPAU1@@Z ; std::forward<Bank * &>
	add	esp, 4
	push	eax
	mov	ecx, DWORD PTR _this$[ebp]
	add	ecx, 4
	call	??$?0AAPAUBank@@@?$_Tuple_val@PAUBank@@@std@@QAE@AAPAUBank@@@Z ; std::_Tuple_val<Bank *>::_Tuple_val<Bank *><Bank * &>
; Line 305
	mov	eax, DWORD PTR _this$[ebp]
	mov	esp, ebp
	pop	ebp
	ret	12					; 0000000cH
??$?0U_Exact_args_t@std@@AAPAUBank@@AAH$0A@@?$tuple@PAUBank@@H@std@@QAE@U_Exact_args_t@1@AAPAUBank@@AAH@Z ENDP ; std::tuple<Bank *,int>::tuple<Bank *,int><std::_Exact_args_t,Bank * &,int &,0>
_TEXT	ENDS
; Function compile flags: /Odtp
;	COMDAT ??$?0ABQ6APAXXZ@?$_Tuple_val@P6APAXXZ@std@@QAE@ABQ6APAXXZ@Z
_TEXT	SEGMENT
_this$ = -4						; size = 4
__Arg$ = 8						; size = 4
??$?0ABQ6APAXXZ@?$_Tuple_val@P6APAXXZ@std@@QAE@ABQ6APAXXZ@Z PROC ; std::_Tuple_val<void * (__cdecl*)(void)>::_Tuple_val<void * (__cdecl*)(void)><void * (__cdecl*const &)(void)>, COMDAT
; _this$ = ecx
; File c:\program files (x86)\microsoft visual studio 14.0\vc\include\tuple
; Line 164
	push	ebp
	mov	ebp, esp
	push	ecx
	mov	DWORD PTR _this$[ebp], ecx
; Line 163
	mov	eax, DWORD PTR __Arg$[ebp]
	push	eax
	call	??$forward@ABQ6APAXXZ@std@@YAABQ6APAXXZABQ6APAXXZ@Z ; std::forward<void * (__cdecl*const &)(void)>
	add	esp, 4
	mov	ecx, DWORD PTR _this$[ebp]
	mov	edx, DWORD PTR [eax]
	mov	DWORD PTR [ecx], edx
; Line 165
	mov	eax, DWORD PTR _this$[ebp]
	mov	esp, ebp
	pop	ebp
	ret	4
??$?0ABQ6APAXXZ@?$_Tuple_val@P6APAXXZ@std@@QAE@ABQ6APAXXZ@Z ENDP ; std::_Tuple_val<void * (__cdecl*)(void)>::_Tuple_val<void * (__cdecl*)(void)><void * (__cdecl*const &)(void)>
_TEXT	ENDS
; Function compile flags: /Odtp
;	COMDAT ??$?0U_Exact_args_t@std@@$0A@@?$tuple@$$V@std@@QAE@U_Exact_args_t@1@@Z
_TEXT	SEGMENT
_this$ = -4						; size = 4
___formal$ = 8						; size = 1
??$?0U_Exact_args_t@std@@$0A@@?$tuple@$$V@std@@QAE@U_Exact_args_t@1@@Z PROC ; std::tuple<>::tuple<><std::_Exact_args_t,0>, COMDAT
; _this$ = ecx
; File c:\program files (x86)\microsoft visual studio 14.0\vc\include\tuple
; Line 255
	push	ebp
	mov	ebp, esp
	push	ecx
	mov	DWORD PTR _this$[ebp], ecx
; Line 256
	mov	eax, DWORD PTR _this$[ebp]
	mov	esp, ebp
	pop	ebp
	ret	4
??$?0U_Exact_args_t@std@@$0A@@?$tuple@$$V@std@@QAE@U_Exact_args_t@1@@Z ENDP ; std::tuple<>::tuple<><std::_Exact_args_t,0>
_TEXT	ENDS
; Function compile flags: /Odtp
;	COMDAT ??$duration_cast@V?$duration@_JU?$ratio@$00$0DLJKMKAA@@std@@@chrono@std@@_JU?$ratio@$00$0JIJGIA@@3@@chrono@std@@YA?AV?$duration@_JU?$ratio@$00$0DLJKMKAA@@std@@@01@ABV?$duration@_JU?$ratio@$00$0JIJGIA@@std@@@01@@Z
_TEXT	SEGMENT
$T1 = -104						; size = 8
$T2 = -96						; size = 8
$T3 = -88						; size = 8
$T4 = -80						; size = 8
$T5 = -72						; size = 8
$T6 = -64						; size = 8
$T7 = -56						; size = 8
$T8 = -48						; size = 8
$T9 = -40						; size = 8
$T10 = -32						; size = 8
$T11 = -24						; size = 4
$T12 = -20						; size = 4
$T13 = -16						; size = 4
tv93 = -12						; size = 4
tv90 = -8						; size = 4
tv87 = -4						; size = 4
___$ReturnUdt$ = 8					; size = 4
__Dur$ = 12						; size = 4
??$duration_cast@V?$duration@_JU?$ratio@$00$0DLJKMKAA@@std@@@chrono@std@@_JU?$ratio@$00$0JIJGIA@@3@@chrono@std@@YA?AV?$duration@_JU?$ratio@$00$0DLJKMKAA@@std@@@01@ABV?$duration@_JU?$ratio@$00$0JIJGIA@@std@@@01@@Z PROC ; std::chrono::duration_cast<std::chrono::duration<__int64,std::ratio<1,1000000000> >,__int64,std::ratio<1,10000000> >, COMDAT
; File c:\program files (x86)\microsoft visual studio 14.0\vc\include\chrono
; Line 551
	push	ebp
	mov	ebp, esp
	sub	esp, 104				; 00000068H
; Line 556
	xor	eax, eax
	je	SHORT $LN7@duration_c
	mov	ecx, DWORD PTR __Dur$[ebp]
	call	?count@?$duration@_JU?$ratio@$00$0JIJGIA@@std@@@chrono@std@@QBE_JXZ ; std::chrono::duration<__int64,std::ratio<1,10000000> >::count
	mov	DWORD PTR $T10[ebp], eax
	mov	DWORD PTR $T10[ebp+4], edx
	lea	ecx, DWORD PTR $T10[ebp]
	push	ecx
	lea	ecx, DWORD PTR $T4[ebp]
	call	??$?0_JX@?$duration@_JU?$ratio@$00$0DLJKMKAA@@std@@@chrono@std@@QAE@AB_J@Z ; std::chrono::duration<__int64,std::ratio<1,1000000000> >::duration<__int64,std::ratio<1,1000000000> ><__int64,void>
	mov	DWORD PTR tv93[ebp], eax
	jmp	$LN8@duration_c
$LN7@duration_c:
	mov	edx, 1
	test	edx, edx
	je	SHORT $LN5@duration_c
	mov	ecx, DWORD PTR __Dur$[ebp]
	call	?count@?$duration@_JU?$ratio@$00$0JIJGIA@@std@@@chrono@std@@QBE_JXZ ; std::chrono::duration<__int64,std::ratio<1,10000000> >::count
	push	0
	push	100					; 00000064H
	push	edx
	push	eax
	call	__allmul
	mov	DWORD PTR $T9[ebp], eax
	mov	DWORD PTR $T9[ebp+4], edx
	lea	eax, DWORD PTR $T9[ebp]
	push	eax
	lea	ecx, DWORD PTR $T3[ebp]
	call	??$?0_JX@?$duration@_JU?$ratio@$00$0DLJKMKAA@@std@@@chrono@std@@QAE@AB_J@Z ; std::chrono::duration<__int64,std::ratio<1,1000000000> >::duration<__int64,std::ratio<1,1000000000> ><__int64,void>
	mov	DWORD PTR tv90[ebp], eax
	jmp	SHORT $LN6@duration_c
$LN5@duration_c:
	xor	ecx, ecx
	je	SHORT $LN3@duration_c
	mov	ecx, DWORD PTR __Dur$[ebp]
	call	?count@?$duration@_JU?$ratio@$00$0JIJGIA@@std@@@chrono@std@@QBE_JXZ ; std::chrono::duration<__int64,std::ratio<1,10000000> >::count
	mov	DWORD PTR $T8[ebp], eax
	mov	DWORD PTR $T8[ebp+4], edx
	lea	edx, DWORD PTR $T8[ebp]
	push	edx
	lea	ecx, DWORD PTR $T2[ebp]
	call	??$?0_JX@?$duration@_JU?$ratio@$00$0DLJKMKAA@@std@@@chrono@std@@QAE@AB_J@Z ; std::chrono::duration<__int64,std::ratio<1,1000000000> >::duration<__int64,std::ratio<1,1000000000> ><__int64,void>
	mov	DWORD PTR tv87[ebp], eax
	jmp	SHORT $LN4@duration_c
$LN3@duration_c:
	mov	ecx, DWORD PTR __Dur$[ebp]
	call	?count@?$duration@_JU?$ratio@$00$0JIJGIA@@std@@@chrono@std@@QBE_JXZ ; std::chrono::duration<__int64,std::ratio<1,10000000> >::count
	push	0
	push	100					; 00000064H
	push	edx
	push	eax
	call	__allmul
	mov	DWORD PTR $T7[ebp], eax
	mov	DWORD PTR $T7[ebp+4], edx
	lea	eax, DWORD PTR $T7[ebp]
	push	eax
	lea	ecx, DWORD PTR $T1[ebp]
	call	??$?0_JX@?$duration@_JU?$ratio@$00$0DLJKMKAA@@std@@@chrono@std@@QAE@AB_J@Z ; std::chrono::duration<__int64,std::ratio<1,1000000000> >::duration<__int64,std::ratio<1,1000000000> ><__int64,void>
	mov	DWORD PTR tv87[ebp], eax
$LN4@duration_c:
	mov	ecx, DWORD PTR tv87[ebp]
	mov	DWORD PTR $T13[ebp], ecx
	mov	edx, DWORD PTR $T13[ebp]
	mov	eax, DWORD PTR [edx]
	mov	ecx, DWORD PTR [edx+4]
	mov	DWORD PTR $T6[ebp], eax
	mov	DWORD PTR $T6[ebp+4], ecx
	lea	edx, DWORD PTR $T6[ebp]
	mov	DWORD PTR tv90[ebp], edx
$LN6@duration_c:
	mov	eax, DWORD PTR tv90[ebp]
	mov	DWORD PTR $T12[ebp], eax
	mov	ecx, DWORD PTR $T12[ebp]
	mov	edx, DWORD PTR [ecx]
	mov	eax, DWORD PTR [ecx+4]
	mov	DWORD PTR $T5[ebp], edx
	mov	DWORD PTR $T5[ebp+4], eax
	lea	ecx, DWORD PTR $T5[ebp]
	mov	DWORD PTR tv93[ebp], ecx
$LN8@duration_c:
	mov	edx, DWORD PTR tv93[ebp]
	mov	DWORD PTR $T11[ebp], edx
	mov	eax, DWORD PTR $T11[ebp]
	mov	ecx, DWORD PTR [eax]
	mov	edx, DWORD PTR [eax+4]
	mov	eax, DWORD PTR ___$ReturnUdt$[ebp]
	mov	DWORD PTR [eax], ecx
	mov	DWORD PTR [eax+4], edx
	mov	eax, DWORD PTR ___$ReturnUdt$[ebp]
; Line 569
	mov	esp, ebp
	pop	ebp
	ret	0
??$duration_cast@V?$duration@_JU?$ratio@$00$0DLJKMKAA@@std@@@chrono@std@@_JU?$ratio@$00$0JIJGIA@@3@@chrono@std@@YA?AV?$duration@_JU?$ratio@$00$0DLJKMKAA@@std@@@01@ABV?$duration@_JU?$ratio@$00$0JIJGIA@@std@@@01@@Z ENDP ; std::chrono::duration_cast<std::chrono::duration<__int64,std::ratio<1,1000000000> >,__int64,std::ratio<1,10000000> >
_TEXT	ENDS
; Function compile flags: /Odtp
;	COMDAT ??$?M_JU?$ratio@$00$00@std@@_JU01@@chrono@std@@YA_NABV?$duration@_JU?$ratio@$00$00@std@@@01@0@Z
_TEXT	SEGMENT
$T1 = -36						; size = 8
$T2 = -28						; size = 8
tv94 = -20						; size = 8
tv91 = -12						; size = 8
tv71 = -4						; size = 4
__Left$ = 8						; size = 4
__Right$ = 12						; size = 4
??$?M_JU?$ratio@$00$00@std@@_JU01@@chrono@std@@YA_NABV?$duration@_JU?$ratio@$00$00@std@@@01@0@Z PROC ; std::chrono::operator<<__int64,std::ratio<1,1>,__int64,std::ratio<1,1> >, COMDAT
; File c:\program files (x86)\microsoft visual studio 14.0\vc\include\chrono
; Line 505
	push	ebp
	mov	ebp, esp
	sub	esp, 36					; 00000024H
	push	esi
	push	edi
; Line 509
	mov	eax, DWORD PTR __Left$[ebp]
	mov	ecx, DWORD PTR [eax]
	mov	edx, DWORD PTR [eax+4]
	mov	DWORD PTR $T2[ebp], ecx
	mov	DWORD PTR $T2[ebp+4], edx
	mov	eax, DWORD PTR __Right$[ebp]
	mov	ecx, DWORD PTR [eax]
	mov	edx, DWORD PTR [eax+4]
	mov	DWORD PTR $T1[ebp], ecx
	mov	DWORD PTR $T1[ebp+4], edx
	lea	ecx, DWORD PTR $T2[ebp]
	call	?count@?$duration@_JU?$ratio@$00$00@std@@@chrono@std@@QBE_JXZ ; std::chrono::duration<__int64,std::ratio<1,1> >::count
	mov	esi, eax
	mov	edi, edx
	lea	ecx, DWORD PTR $T1[ebp]
	call	?count@?$duration@_JU?$ratio@$00$00@std@@@chrono@std@@QBE_JXZ ; std::chrono::duration<__int64,std::ratio<1,1> >::count
	mov	DWORD PTR tv91[ebp], esi
	mov	DWORD PTR tv91[ebp+4], edi
	mov	DWORD PTR tv94[ebp], eax
	mov	DWORD PTR tv94[ebp+4], edx
	mov	eax, DWORD PTR tv91[ebp+4]
	cmp	eax, DWORD PTR tv94[ebp+4]
	jg	SHORT $LN3@operator
	jl	SHORT $LN5@operator
	mov	ecx, DWORD PTR tv91[ebp]
	cmp	ecx, DWORD PTR tv94[ebp]
	jae	SHORT $LN3@operator
$LN5@operator:
	mov	DWORD PTR tv71[ebp], 1
	jmp	SHORT $LN4@operator
$LN3@operator:
	mov	DWORD PTR tv71[ebp], 0
$LN4@operator:
	mov	al, BYTE PTR tv71[ebp]
; Line 510
	pop	edi
	pop	esi
	mov	esp, ebp
	pop	ebp
	ret	0
??$?M_JU?$ratio@$00$00@std@@_JU01@@chrono@std@@YA_NABV?$duration@_JU?$ratio@$00$00@std@@@01@0@Z ENDP ; std::chrono::operator<<__int64,std::ratio<1,1>,__int64,std::ratio<1,1> >
_TEXT	ENDS
; Function compile flags: /Odtp
;	COMDAT ??$?0PAV?$tuple@P6APAXXZ@std@@U?$default_delete@V?$tuple@P6APAXXZ@std@@@1@@?$_Unique_ptr_base@V?$tuple@P6APAXXZ@std@@U?$default_delete@V?$tuple@P6APAXXZ@std@@@2@@std@@QAE@PAV?$tuple@P6APAXXZ@1@$$QAU?$default_delete@V?$tuple@P6APAXXZ@std@@@1@@Z
_TEXT	SEGMENT
_this$ = -8						; size = 4
$T1 = -1						; size = 1
__Ptr$ = 8						; size = 4
__Dt$ = 12						; size = 4
??$?0PAV?$tuple@P6APAXXZ@std@@U?$default_delete@V?$tuple@P6APAXXZ@std@@@1@@?$_Unique_ptr_base@V?$tuple@P6APAXXZ@std@@U?$default_delete@V?$tuple@P6APAXXZ@std@@@2@@std@@QAE@PAV?$tuple@P6APAXXZ@1@$$QAU?$default_delete@V?$tuple@P6APAXXZ@std@@@1@@Z PROC ; std::_Unique_ptr_base<std::tuple<void * (__cdecl*)(void)>,std::default_delete<std::tuple<void * (__cdecl*)(void)> > >::_Unique_ptr_base<std::tuple<void * (__cdecl*)(void)>,std::default_delete<std::tuple<void * (__cdecl*)(void)> > ><std::tuple<void * (__cdecl*)(void)> *,std::default_delete<std::tuple<void * (__cdecl*)(void)> > >, COMDAT
; _this$ = ecx
; File c:\program files (x86)\microsoft visual studio 14.0\vc\include\memory
; Line 1242
	push	ebp
	mov	ebp, esp
	sub	esp, 8
	mov	DWORD PTR _this$[ebp], ecx
; Line 1241
	lea	eax, DWORD PTR __Ptr$[ebp]
	push	eax
	mov	ecx, DWORD PTR __Dt$[ebp]
	push	ecx
	call	??$forward@U?$default_delete@V?$tuple@P6APAXXZ@std@@@std@@@std@@YA$$QAU?$default_delete@V?$tuple@P6APAXXZ@std@@@0@AAU10@@Z ; std::forward<std::default_delete<std::tuple<void * (__cdecl*)(void)> > >
	add	esp, 4
	push	eax
	movzx	edx, BYTE PTR $T1[ebp]
	push	edx
	mov	ecx, DWORD PTR _this$[ebp]
	call	??$?0U?$default_delete@V?$tuple@P6APAXXZ@std@@@std@@AAPAV?$tuple@P6APAXXZ@1@@?$_Compressed_pair@U?$default_delete@V?$tuple@P6APAXXZ@std@@@std@@PAV?$tuple@P6APAXXZ@2@$00@std@@QAE@U_One_then_variadic_args_t@1@$$QAU?$default_delete@V?$tuple@P6APAXXZ@std@@@1@AAPAV?$tuple@P6APAXXZ@1@@Z ; std::_Compressed_pair<std::default_delete<std::tuple<void * (__cdecl*)(void)> >,std::tuple<void * (__cdecl*)(void)> *,1>::_Compressed_pair<std::default_delete<std::tuple<void * (__cdecl*)(void)> >,std::tuple<void * (__cdecl*)(void)> *,1><std::default_delete<std::tuple<void * (__cdecl*)(void)> >,std::tuple<void * (__cdecl*)(void)> * &>
; Line 1243
	mov	eax, DWORD PTR _this$[ebp]
	mov	esp, ebp
	pop	ebp
	ret	8
??$?0PAV?$tuple@P6APAXXZ@std@@U?$default_delete@V?$tuple@P6APAXXZ@std@@@1@@?$_Unique_ptr_base@V?$tuple@P6APAXXZ@std@@U?$default_delete@V?$tuple@P6APAXXZ@std@@@2@@std@@QAE@PAV?$tuple@P6APAXXZ@1@$$QAU?$default_delete@V?$tuple@P6APAXXZ@std@@@1@@Z ENDP ; std::_Unique_ptr_base<std::tuple<void * (__cdecl*)(void)>,std::default_delete<std::tuple<void * (__cdecl*)(void)> > >::_Unique_ptr_base<std::tuple<void * (__cdecl*)(void)>,std::default_delete<std::tuple<void * (__cdecl*)(void)> > ><std::tuple<void * (__cdecl*)(void)> *,std::default_delete<std::tuple<void * (__cdecl*)(void)> > >
_TEXT	ENDS
; Function compile flags: /Odtp
;	COMDAT ??$forward@U?$default_delete@V?$tuple@P6APAXXZ@std@@@std@@@std@@YA$$QAU?$default_delete@V?$tuple@P6APAXXZ@std@@@0@AAU10@@Z
_TEXT	SEGMENT
__Arg$ = 8						; size = 4
??$forward@U?$default_delete@V?$tuple@P6APAXXZ@std@@@std@@@std@@YA$$QAU?$default_delete@V?$tuple@P6APAXXZ@std@@@0@AAU10@@Z PROC ; std::forward<std::default_delete<std::tuple<void * (__cdecl*)(void)> > >, COMDAT
; File c:\program files (x86)\microsoft visual studio 14.0\vc\include\type_traits
; Line 1275
	push	ebp
	mov	ebp, esp
; Line 1276
	mov	eax, DWORD PTR __Arg$[ebp]
; Line 1277
	pop	ebp
	ret	0
??$forward@U?$default_delete@V?$tuple@P6APAXXZ@std@@@std@@@std@@YA$$QAU?$default_delete@V?$tuple@P6APAXXZ@std@@@0@AAU10@@Z ENDP ; std::forward<std::default_delete<std::tuple<void * (__cdecl*)(void)> > >
_TEXT	ENDS
; Function compile flags: /Odtp
;	COMDAT ??$?0PAV?$tuple@P6APAXPAUBank@@H@ZPAU1@H@std@@U?$default_delete@V?$tuple@P6APAXPAUBank@@H@ZPAU1@H@std@@@1@@?$_Unique_ptr_base@V?$tuple@P6APAXPAUBank@@H@ZPAU1@H@std@@U?$default_delete@V?$tuple@P6APAXPAUBank@@H@ZPAU1@H@std@@@2@@std@@QAE@PAV?$tuple@P6APAXPAUBank@@H@ZPAU1@H@1@$$QAU?$default_delete@V?$tuple@P6APAXPAUBank@@H@ZPAU1@H@std@@@1@@Z
_TEXT	SEGMENT
_this$ = -8						; size = 4
$T1 = -1						; size = 1
__Ptr$ = 8						; size = 4
__Dt$ = 12						; size = 4
??$?0PAV?$tuple@P6APAXPAUBank@@H@ZPAU1@H@std@@U?$default_delete@V?$tuple@P6APAXPAUBank@@H@ZPAU1@H@std@@@1@@?$_Unique_ptr_base@V?$tuple@P6APAXPAUBank@@H@ZPAU1@H@std@@U?$default_delete@V?$tuple@P6APAXPAUBank@@H@ZPAU1@H@std@@@2@@std@@QAE@PAV?$tuple@P6APAXPAUBank@@H@ZPAU1@H@1@$$QAU?$default_delete@V?$tuple@P6APAXPAUBank@@H@ZPAU1@H@std@@@1@@Z PROC ; std::_Unique_ptr_base<std::tuple<void * (__cdecl*)(Bank *,int),Bank *,int>,std::default_delete<std::tuple<void * (__cdecl*)(Bank *,int),Bank *,int> > >::_Unique_ptr_base<std::tuple<void * (__cdecl*)(Bank *,int),Bank *,int>,std::default_delete<std::tuple<void * (__cdecl*)(Bank *,int),Bank *,int> > ><std::tuple<void * (__cdecl*)(Bank *,int),Bank *,int> *,std::default_delete<std::tuple<void * (__cdecl*)(Bank *,int),Bank *,int> > >, COMDAT
; _this$ = ecx
; File c:\program files (x86)\microsoft visual studio 14.0\vc\include\memory
; Line 1242
	push	ebp
	mov	ebp, esp
	sub	esp, 8
	mov	DWORD PTR _this$[ebp], ecx
; Line 1241
	lea	eax, DWORD PTR __Ptr$[ebp]
	push	eax
	mov	ecx, DWORD PTR __Dt$[ebp]
	push	ecx
	call	??$forward@U?$default_delete@V?$tuple@P6APAXPAUBank@@H@ZPAU1@H@std@@@std@@@std@@YA$$QAU?$default_delete@V?$tuple@P6APAXPAUBank@@H@ZPAU1@H@std@@@0@AAU10@@Z ; std::forward<std::default_delete<std::tuple<void * (__cdecl*)(Bank *,int),Bank *,int> > >
	add	esp, 4
	push	eax
	movzx	edx, BYTE PTR $T1[ebp]
	push	edx
	mov	ecx, DWORD PTR _this$[ebp]
	call	??$?0U?$default_delete@V?$tuple@P6APAXPAUBank@@H@ZPAU1@H@std@@@std@@AAPAV?$tuple@P6APAXPAUBank@@H@ZPAU1@H@1@@?$_Compressed_pair@U?$default_delete@V?$tuple@P6APAXPAUBank@@H@ZPAU1@H@std@@@std@@PAV?$tuple@P6APAXPAUBank@@H@ZPAU1@H@2@$00@std@@QAE@U_One_then_variadic_args_t@1@$$QAU?$default_delete@V?$tuple@P6APAXPAUBank@@H@ZPAU1@H@std@@@1@AAPAV?$tuple@P6APAXPAUBank@@H@ZPAU1@H@1@@Z ; std::_Compressed_pair<std::default_delete<std::tuple<void * (__cdecl*)(Bank *,int),Bank *,int> >,std::tuple<void * (__cdecl*)(Bank *,int),Bank *,int> *,1>::_Compressed_pair<std::default_delete<std::tuple<void * (__cdecl*)(Bank *,int),Bank *,int> >,std::tuple<void * (__cdecl*)(Bank *,int),Bank *,int> *,1><std::default_delete<std::tuple<void * (__cdecl*)(Bank *,int),Bank *,int> >,std::tuple<void * (__cdecl*)(Bank *,int),Bank *,int> * &>
; Line 1243
	mov	eax, DWORD PTR _this$[ebp]
	mov	esp, ebp
	pop	ebp
	ret	8
??$?0PAV?$tuple@P6APAXPAUBank@@H@ZPAU1@H@std@@U?$default_delete@V?$tuple@P6APAXPAUBank@@H@ZPAU1@H@std@@@1@@?$_Unique_ptr_base@V?$tuple@P6APAXPAUBank@@H@ZPAU1@H@std@@U?$default_delete@V?$tuple@P6APAXPAUBank@@H@ZPAU1@H@std@@@2@@std@@QAE@PAV?$tuple@P6APAXPAUBank@@H@ZPAU1@H@1@$$QAU?$default_delete@V?$tuple@P6APAXPAUBank@@H@ZPAU1@H@std@@@1@@Z ENDP ; std::_Unique_ptr_base<std::tuple<void * (__cdecl*)(Bank *,int),Bank *,int>,std::default_delete<std::tuple<void * (__cdecl*)(Bank *,int),Bank *,int> > >::_Unique_ptr_base<std::tuple<void * (__cdecl*)(Bank *,int),Bank *,int>,std::default_delete<std::tuple<void * (__cdecl*)(Bank *,int),Bank *,int> > ><std::tuple<void * (__cdecl*)(Bank *,int),Bank *,int> *,std::default_delete<std::tuple<void * (__cdecl*)(Bank *,int),Bank *,int> > >
_TEXT	ENDS
; Function compile flags: /Odtp
;	COMDAT ??$forward@U?$default_delete@V?$tuple@P6APAXPAUBank@@H@ZPAU1@H@std@@@std@@@std@@YA$$QAU?$default_delete@V?$tuple@P6APAXPAUBank@@H@ZPAU1@H@std@@@0@AAU10@@Z
_TEXT	SEGMENT
__Arg$ = 8						; size = 4
??$forward@U?$default_delete@V?$tuple@P6APAXPAUBank@@H@ZPAU1@H@std@@@std@@@std@@YA$$QAU?$default_delete@V?$tuple@P6APAXPAUBank@@H@ZPAU1@H@std@@@0@AAU10@@Z PROC ; std::forward<std::default_delete<std::tuple<void * (__cdecl*)(Bank *,int),Bank *,int> > >, COMDAT
; File c:\program files (x86)\microsoft visual studio 14.0\vc\include\type_traits
; Line 1275
	push	ebp
	mov	ebp, esp
; Line 1276
	mov	eax, DWORD PTR __Arg$[ebp]
; Line 1277
	pop	ebp
	ret	0
??$forward@U?$default_delete@V?$tuple@P6APAXPAUBank@@H@ZPAU1@H@std@@@std@@@std@@YA$$QAU?$default_delete@V?$tuple@P6APAXPAUBank@@H@ZPAU1@H@std@@@0@AAU10@@Z ENDP ; std::forward<std::default_delete<std::tuple<void * (__cdecl*)(Bank *,int),Bank *,int> > >
_TEXT	ENDS
; Function compile flags: /Odtp
;	COMDAT ??$_Execute@$0A@@?$_LaunchPad@V?$unique_ptr@V?$tuple@P6APAXXZ@std@@U?$default_delete@V?$tuple@P6APAXXZ@std@@@2@@std@@@std@@CAXAAV?$tuple@P6APAXXZ@1@U?$integer_sequence@I$0A@@1@@Z
_TEXT	SEGMENT
__Tup$ = 8						; size = 4
___formal$ = 12						; size = 1
??$_Execute@$0A@@?$_LaunchPad@V?$unique_ptr@V?$tuple@P6APAXXZ@std@@U?$default_delete@V?$tuple@P6APAXXZ@std@@@2@@std@@@std@@CAXAAV?$tuple@P6APAXXZ@1@U?$integer_sequence@I$0A@@1@@Z PROC ; std::_LaunchPad<std::unique_ptr<std::tuple<void * (__cdecl*)(void)>,std::default_delete<std::tuple<void * (__cdecl*)(void)> > > >::_Execute<0>, COMDAT
; File c:\program files (x86)\microsoft visual studio 14.0\vc\include\thr\xthread
; Line 239
	push	ebp
	mov	ebp, esp
; Line 240
	mov	eax, DWORD PTR __Tup$[ebp]
	push	eax
	call	??$get@$0A@P6APAXXZ@std@@YAAAP6APAXXZAAV?$tuple@P6APAXXZ@0@@Z ; std::get<0,void * (__cdecl*)(void)>
	add	esp, 4
	push	eax
	call	??$move@AAP6APAXXZ@std@@YA$$QAP6APAXXZAAP6APAXXZ@Z ; std::move<void * (__cdecl*&)(void)>
	add	esp, 4
	push	eax
	call	??$invoke@P6APAXXZ$$V@std@@YAPAX$$QAP6APAXXZ@Z ; std::invoke<void * (__cdecl*)(void)>
	add	esp, 4
; Line 241
	pop	ebp
	ret	0
??$_Execute@$0A@@?$_LaunchPad@V?$unique_ptr@V?$tuple@P6APAXXZ@std@@U?$default_delete@V?$tuple@P6APAXXZ@std@@@2@@std@@@std@@CAXAAV?$tuple@P6APAXXZ@1@U?$integer_sequence@I$0A@@1@@Z ENDP ; std::_LaunchPad<std::unique_ptr<std::tuple<void * (__cdecl*)(void)>,std::default_delete<std::tuple<void * (__cdecl*)(void)> > > >::_Execute<0>
_TEXT	ENDS
; Function compile flags: /Odtp
;	COMDAT ??$_Execute@$0A@$00$01@?$_LaunchPad@V?$unique_ptr@V?$tuple@P6APAXPAUBank@@H@ZPAU1@H@std@@U?$default_delete@V?$tuple@P6APAXPAUBank@@H@ZPAU1@H@std@@@2@@std@@@std@@CAXAAV?$tuple@P6APAXPAUBank@@H@ZPAU1@H@1@U?$integer_sequence@I$0A@$00$01@1@@Z
_TEXT	SEGMENT
__Tup$ = 8						; size = 4
___formal$ = 12						; size = 1
??$_Execute@$0A@$00$01@?$_LaunchPad@V?$unique_ptr@V?$tuple@P6APAXPAUBank@@H@ZPAU1@H@std@@U?$default_delete@V?$tuple@P6APAXPAUBank@@H@ZPAU1@H@std@@@2@@std@@@std@@CAXAAV?$tuple@P6APAXPAUBank@@H@ZPAU1@H@1@U?$integer_sequence@I$0A@$00$01@1@@Z PROC ; std::_LaunchPad<std::unique_ptr<std::tuple<void * (__cdecl*)(Bank *,int),Bank *,int>,std::default_delete<std::tuple<void * (__cdecl*)(Bank *,int),Bank *,int> > > >::_Execute<0,1,2>, COMDAT
; File c:\program files (x86)\microsoft visual studio 14.0\vc\include\thr\xthread
; Line 239
	push	ebp
	mov	ebp, esp
; Line 240
	mov	eax, DWORD PTR __Tup$[ebp]
	push	eax
	call	??$get@$01P6APAXPAUBank@@H@ZPAU1@H@std@@YAAAHAAV?$tuple@P6APAXPAUBank@@H@ZPAU1@H@0@@Z ; std::get<2,void * (__cdecl*)(Bank *,int),Bank *,int>
	add	esp, 4
	push	eax
	call	??$move@AAH@std@@YA$$QAHAAH@Z		; std::move<int &>
	add	esp, 4
	push	eax
	mov	ecx, DWORD PTR __Tup$[ebp]
	push	ecx
	call	??$get@$00P6APAXPAUBank@@H@ZPAU1@H@std@@YAAAPAUBank@@AAV?$tuple@P6APAXPAUBank@@H@ZPAU1@H@0@@Z ; std::get<1,void * (__cdecl*)(Bank *,int),Bank *,int>
	add	esp, 4
	push	eax
	call	??$move@AAPAUBank@@@std@@YA$$QAPAUBank@@AAPAU1@@Z ; std::move<Bank * &>
	add	esp, 4
	push	eax
	mov	edx, DWORD PTR __Tup$[ebp]
	push	edx
	call	??$get@$0A@P6APAXPAUBank@@H@ZPAU1@H@std@@YAAAP6APAXPAUBank@@H@ZAAV?$tuple@P6APAXPAUBank@@H@ZPAU1@H@0@@Z ; std::get<0,void * (__cdecl*)(Bank *,int),Bank *,int>
	add	esp, 4
	push	eax
	call	??$move@AAP6APAXPAUBank@@H@Z@std@@YA$$QAP6APAXPAUBank@@H@ZAAP6APAX0H@Z@Z ; std::move<void * (__cdecl*&)(Bank *,int)>
	add	esp, 4
	push	eax
	call	??$invoke@P6APAXPAUBank@@H@ZPAU1@H@std@@YAPAX$$QAP6APAXPAUBank@@H@Z$$QAPAU1@$$QAH@Z ; std::invoke<void * (__cdecl*)(Bank *,int),Bank *,int>
	add	esp, 12					; 0000000cH
; Line 241
	pop	ebp
	ret	0
??$_Execute@$0A@$00$01@?$_LaunchPad@V?$unique_ptr@V?$tuple@P6APAXPAUBank@@H@ZPAU1@H@std@@U?$default_delete@V?$tuple@P6APAXPAUBank@@H@ZPAU1@H@std@@@2@@std@@@std@@CAXAAV?$tuple@P6APAXPAUBank@@H@ZPAU1@H@1@U?$integer_sequence@I$0A@$00$01@1@@Z ENDP ; std::_LaunchPad<std::unique_ptr<std::tuple<void * (__cdecl*)(Bank *,int),Bank *,int>,std::default_delete<std::tuple<void * (__cdecl*)(Bank *,int),Bank *,int> > > >::_Execute<0,1,2>
_TEXT	ENDS
; Function compile flags: /Odtp
;	COMDAT ?zero@?$duration_values@_J@chrono@std@@SA_JXZ
_TEXT	SEGMENT
?zero@?$duration_values@_J@chrono@std@@SA_JXZ PROC	; std::chrono::duration_values<__int64>::zero, COMDAT
; File c:\program files (x86)\microsoft visual studio 14.0\vc\include\chrono
; Line 39
	push	ebp
	mov	ebp, esp
; Line 40
	xor	eax, eax
	xor	edx, edx
; Line 41
	pop	ebp
	ret	0
?zero@?$duration_values@_J@chrono@std@@SA_JXZ ENDP	; std::chrono::duration_values<__int64>::zero
_TEXT	ENDS
; Function compile flags: /Odtp
;	COMDAT ??$?0PAV?$tuple@P6APAXXZ@std@@@?$_Unique_ptr_base@V?$tuple@P6APAXXZ@std@@U?$default_delete@V?$tuple@P6APAXXZ@std@@@2@@std@@QAE@PAV?$tuple@P6APAXXZ@1@@Z
_TEXT	SEGMENT
_this$ = -8						; size = 4
$T1 = -1						; size = 1
__Ptr$ = 8						; size = 4
??$?0PAV?$tuple@P6APAXXZ@std@@@?$_Unique_ptr_base@V?$tuple@P6APAXXZ@std@@U?$default_delete@V?$tuple@P6APAXXZ@std@@@2@@std@@QAE@PAV?$tuple@P6APAXXZ@1@@Z PROC ; std::_Unique_ptr_base<std::tuple<void * (__cdecl*)(void)>,std::default_delete<std::tuple<void * (__cdecl*)(void)> > >::_Unique_ptr_base<std::tuple<void * (__cdecl*)(void)>,std::default_delete<std::tuple<void * (__cdecl*)(void)> > ><std::tuple<void * (__cdecl*)(void)> *>, COMDAT
; _this$ = ecx
; File c:\program files (x86)\microsoft visual studio 14.0\vc\include\memory
; Line 1248
	push	ebp
	mov	ebp, esp
	sub	esp, 8
	mov	DWORD PTR _this$[ebp], ecx
; Line 1247
	lea	eax, DWORD PTR __Ptr$[ebp]
	push	eax
	movzx	ecx, BYTE PTR $T1[ebp]
	push	ecx
	mov	ecx, DWORD PTR _this$[ebp]
	call	??$?0AAPAV?$tuple@P6APAXXZ@std@@@?$_Compressed_pair@U?$default_delete@V?$tuple@P6APAXXZ@std@@@std@@PAV?$tuple@P6APAXXZ@2@$00@std@@QAE@U_Zero_then_variadic_args_t@1@AAPAV?$tuple@P6APAXXZ@1@@Z ; std::_Compressed_pair<std::default_delete<std::tuple<void * (__cdecl*)(void)> >,std::tuple<void * (__cdecl*)(void)> *,1>::_Compressed_pair<std::default_delete<std::tuple<void * (__cdecl*)(void)> >,std::tuple<void * (__cdecl*)(void)> *,1><std::tuple<void * (__cdecl*)(void)> * &>
; Line 1249
	mov	eax, DWORD PTR _this$[ebp]
	mov	esp, ebp
	pop	ebp
	ret	4
??$?0PAV?$tuple@P6APAXXZ@std@@@?$_Unique_ptr_base@V?$tuple@P6APAXXZ@std@@U?$default_delete@V?$tuple@P6APAXXZ@std@@@2@@std@@QAE@PAV?$tuple@P6APAXXZ@1@@Z ENDP ; std::_Unique_ptr_base<std::tuple<void * (__cdecl*)(void)>,std::default_delete<std::tuple<void * (__cdecl*)(void)> > >::_Unique_ptr_base<std::tuple<void * (__cdecl*)(void)>,std::default_delete<std::tuple<void * (__cdecl*)(void)> > ><std::tuple<void * (__cdecl*)(void)> *>
_TEXT	ENDS
; Function compile flags: /Odtp
;	COMDAT ??$?0PAV?$tuple@P6APAXPAUBank@@H@ZPAU1@H@std@@@?$_Unique_ptr_base@V?$tuple@P6APAXPAUBank@@H@ZPAU1@H@std@@U?$default_delete@V?$tuple@P6APAXPAUBank@@H@ZPAU1@H@std@@@2@@std@@QAE@PAV?$tuple@P6APAXPAUBank@@H@ZPAU1@H@1@@Z
_TEXT	SEGMENT
_this$ = -8						; size = 4
$T1 = -1						; size = 1
__Ptr$ = 8						; size = 4
??$?0PAV?$tuple@P6APAXPAUBank@@H@ZPAU1@H@std@@@?$_Unique_ptr_base@V?$tuple@P6APAXPAUBank@@H@ZPAU1@H@std@@U?$default_delete@V?$tuple@P6APAXPAUBank@@H@ZPAU1@H@std@@@2@@std@@QAE@PAV?$tuple@P6APAXPAUBank@@H@ZPAU1@H@1@@Z PROC ; std::_Unique_ptr_base<std::tuple<void * (__cdecl*)(Bank *,int),Bank *,int>,std::default_delete<std::tuple<void * (__cdecl*)(Bank *,int),Bank *,int> > >::_Unique_ptr_base<std::tuple<void * (__cdecl*)(Bank *,int),Bank *,int>,std::default_delete<std::tuple<void * (__cdecl*)(Bank *,int),Bank *,int> > ><std::tuple<void * (__cdecl*)(Bank *,int),Bank *,int> *>, COMDAT
; _this$ = ecx
; File c:\program files (x86)\microsoft visual studio 14.0\vc\include\memory
; Line 1248
	push	ebp
	mov	ebp, esp
	sub	esp, 8
	mov	DWORD PTR _this$[ebp], ecx
; Line 1247
	lea	eax, DWORD PTR __Ptr$[ebp]
	push	eax
	movzx	ecx, BYTE PTR $T1[ebp]
	push	ecx
	mov	ecx, DWORD PTR _this$[ebp]
	call	??$?0AAPAV?$tuple@P6APAXPAUBank@@H@ZPAU1@H@std@@@?$_Compressed_pair@U?$default_delete@V?$tuple@P6APAXPAUBank@@H@ZPAU1@H@std@@@std@@PAV?$tuple@P6APAXPAUBank@@H@ZPAU1@H@2@$00@std@@QAE@U_Zero_then_variadic_args_t@1@AAPAV?$tuple@P6APAXPAUBank@@H@ZPAU1@H@1@@Z ; std::_Compressed_pair<std::default_delete<std::tuple<void * (__cdecl*)(Bank *,int),Bank *,int> >,std::tuple<void * (__cdecl*)(Bank *,int),Bank *,int> *,1>::_Compressed_pair<std::default_delete<std::tuple<void * (__cdecl*)(Bank *,int),Bank *,int> >,std::tuple<void * (__cdecl*)(Bank *,int),Bank *,int> *,1><std::tuple<void * (__cdecl*)(Bank *,int),Bank *,int> * &>
; Line 1249
	mov	eax, DWORD PTR _this$[ebp]
	mov	esp, ebp
	pop	ebp
	ret	4
??$?0PAV?$tuple@P6APAXPAUBank@@H@ZPAU1@H@std@@@?$_Unique_ptr_base@V?$tuple@P6APAXPAUBank@@H@ZPAU1@H@std@@U?$default_delete@V?$tuple@P6APAXPAUBank@@H@ZPAU1@H@std@@@2@@std@@QAE@PAV?$tuple@P6APAXPAUBank@@H@ZPAU1@H@1@@Z ENDP ; std::_Unique_ptr_base<std::tuple<void * (__cdecl*)(Bank *,int),Bank *,int>,std::default_delete<std::tuple<void * (__cdecl*)(Bank *,int),Bank *,int> > >::_Unique_ptr_base<std::tuple<void * (__cdecl*)(Bank *,int),Bank *,int>,std::default_delete<std::tuple<void * (__cdecl*)(Bank *,int),Bank *,int> > ><std::tuple<void * (__cdecl*)(Bank *,int),Bank *,int> *>
_TEXT	ENDS
; Function compile flags: /Odtp
;	COMDAT ??$?0V?$unique_ptr@V?$tuple@P6APAXPAUBank@@H@ZPAU1@H@std@@U?$default_delete@V?$tuple@P6APAXPAUBank@@H@ZPAU1@H@std@@@2@@std@@@?$_LaunchPad@V?$unique_ptr@V?$tuple@P6APAXPAUBank@@H@ZPAU1@H@std@@U?$default_delete@V?$tuple@P6APAXPAUBank@@H@ZPAU1@H@std@@@2@@std@@@std@@QAE@$$QAV?$unique_ptr@V?$tuple@P6APAXPAUBank@@H@ZPAU1@H@std@@U?$default_delete@V?$tuple@P6APAXPAUBank@@H@ZPAU1@H@std@@@2@@1@@Z
_TEXT	SEGMENT
_this$ = -4						; size = 4
__Tgt$ = 8						; size = 4
??$?0V?$unique_ptr@V?$tuple@P6APAXPAUBank@@H@ZPAU1@H@std@@U?$default_delete@V?$tuple@P6APAXPAUBank@@H@ZPAU1@H@std@@@2@@std@@@?$_LaunchPad@V?$unique_ptr@V?$tuple@P6APAXPAUBank@@H@ZPAU1@H@std@@U?$default_delete@V?$tuple@P6APAXPAUBank@@H@ZPAU1@H@std@@@2@@std@@@std@@QAE@$$QAV?$unique_ptr@V?$tuple@P6APAXPAUBank@@H@ZPAU1@H@std@@U?$default_delete@V?$tuple@P6APAXPAUBank@@H@ZPAU1@H@std@@@2@@1@@Z PROC ; std::_LaunchPad<std::unique_ptr<std::tuple<void * (__cdecl*)(Bank *,int),Bank *,int>,std::default_delete<std::tuple<void * (__cdecl*)(Bank *,int),Bank *,int> > > >::_LaunchPad<std::unique_ptr<std::tuple<void * (__cdecl*)(Bank *,int),Bank *,int>,std::default_delete<std::tuple<void * (__cdecl*)(Bank *,int),Bank *,int> > > ><std::unique_ptr<std::tuple<void * (__cdecl*)(Bank *,int),Bank *,int>,std::default_delete<std::tuple<void * (__cdecl*)(Bank *,int),Bank *,int> > > >, COMDAT
; _this$ = ecx
; File c:\program files (x86)\microsoft visual studio 14.0\vc\include\thr\xthread
; Line 227
	push	ebp
	mov	ebp, esp
	push	ecx
	mov	DWORD PTR _this$[ebp], ecx
	mov	ecx, DWORD PTR _this$[ebp]
	call	??0_Pad@std@@QAE@XZ			; std::_Pad::_Pad
	mov	eax, DWORD PTR _this$[ebp]
	mov	DWORD PTR [eax], OFFSET ??_7?$_LaunchPad@V?$unique_ptr@V?$tuple@P6APAXPAUBank@@H@ZPAU1@H@std@@U?$default_delete@V?$tuple@P6APAXPAUBank@@H@ZPAU1@H@std@@@2@@std@@@std@@6B@
; Line 226
	mov	ecx, DWORD PTR __Tgt$[ebp]
	push	ecx
	call	??$forward@V?$unique_ptr@V?$tuple@P6APAXPAUBank@@H@ZPAU1@H@std@@U?$default_delete@V?$tuple@P6APAXPAUBank@@H@ZPAU1@H@std@@@2@@std@@@std@@YA$$QAV?$unique_ptr@V?$tuple@P6APAXPAUBank@@H@ZPAU1@H@std@@U?$default_delete@V?$tuple@P6APAXPAUBank@@H@ZPAU1@H@std@@@2@@0@AAV10@@Z ; std::forward<std::unique_ptr<std::tuple<void * (__cdecl*)(Bank *,int),Bank *,int>,std::default_delete<std::tuple<void * (__cdecl*)(Bank *,int),Bank *,int> > > >
	add	esp, 4
	push	eax
	mov	ecx, DWORD PTR _this$[ebp]
	add	ecx, 16					; 00000010H
	call	??0?$unique_ptr@V?$tuple@P6APAXPAUBank@@H@ZPAU1@H@std@@U?$default_delete@V?$tuple@P6APAXPAUBank@@H@ZPAU1@H@std@@@2@@std@@QAE@$$QAV01@@Z ; std::unique_ptr<std::tuple<void * (__cdecl*)(Bank *,int),Bank *,int>,std::default_delete<std::tuple<void * (__cdecl*)(Bank *,int),Bank *,int> > >::unique_ptr<std::tuple<void * (__cdecl*)(Bank *,int),Bank *,int>,std::default_delete<std::tuple<void * (__cdecl*)(Bank *,int),Bank *,int> > >
; Line 228
	mov	eax, DWORD PTR _this$[ebp]
	mov	esp, ebp
	pop	ebp
	ret	4
??$?0V?$unique_ptr@V?$tuple@P6APAXPAUBank@@H@ZPAU1@H@std@@U?$default_delete@V?$tuple@P6APAXPAUBank@@H@ZPAU1@H@std@@@2@@std@@@?$_LaunchPad@V?$unique_ptr@V?$tuple@P6APAXPAUBank@@H@ZPAU1@H@std@@U?$default_delete@V?$tuple@P6APAXPAUBank@@H@ZPAU1@H@std@@@2@@std@@@std@@QAE@$$QAV?$unique_ptr@V?$tuple@P6APAXPAUBank@@H@ZPAU1@H@std@@U?$default_delete@V?$tuple@P6APAXPAUBank@@H@ZPAU1@H@std@@@2@@1@@Z ENDP ; std::_LaunchPad<std::unique_ptr<std::tuple<void * (__cdecl*)(Bank *,int),Bank *,int>,std::default_delete<std::tuple<void * (__cdecl*)(Bank *,int),Bank *,int> > > >::_LaunchPad<std::unique_ptr<std::tuple<void * (__cdecl*)(Bank *,int),Bank *,int>,std::default_delete<std::tuple<void * (__cdecl*)(Bank *,int),Bank *,int> > > ><std::unique_ptr<std::tuple<void * (__cdecl*)(Bank *,int),Bank *,int>,std::default_delete<std::tuple<void * (__cdecl*)(Bank *,int),Bank *,int> > > >
_TEXT	ENDS
; Function compile flags: /Odtp
;	COMDAT ??1?$_LaunchPad@V?$unique_ptr@V?$tuple@P6APAXPAUBank@@H@ZPAU1@H@std@@U?$default_delete@V?$tuple@P6APAXPAUBank@@H@ZPAU1@H@std@@@2@@std@@@std@@QAE@XZ
_TEXT	SEGMENT
_this$ = -4						; size = 4
??1?$_LaunchPad@V?$unique_ptr@V?$tuple@P6APAXPAUBank@@H@ZPAU1@H@std@@U?$default_delete@V?$tuple@P6APAXPAUBank@@H@ZPAU1@H@std@@@2@@std@@@std@@QAE@XZ PROC ; std::_LaunchPad<std::unique_ptr<std::tuple<void * (__cdecl*)(Bank *,int),Bank *,int>,std::default_delete<std::tuple<void * (__cdecl*)(Bank *,int),Bank *,int> > > >::~_LaunchPad<std::unique_ptr<std::tuple<void * (__cdecl*)(Bank *,int),Bank *,int>,std::default_delete<std::tuple<void * (__cdecl*)(Bank *,int),Bank *,int> > > >, COMDAT
; _this$ = ecx
	push	ebp
	mov	ebp, esp
	push	ecx
	mov	DWORD PTR _this$[ebp], ecx
	mov	ecx, DWORD PTR _this$[ebp]
	add	ecx, 16					; 00000010H
	call	??1?$unique_ptr@V?$tuple@P6APAXPAUBank@@H@ZPAU1@H@std@@U?$default_delete@V?$tuple@P6APAXPAUBank@@H@ZPAU1@H@std@@@2@@std@@QAE@XZ ; std::unique_ptr<std::tuple<void * (__cdecl*)(Bank *,int),Bank *,int>,std::default_delete<std::tuple<void * (__cdecl*)(Bank *,int),Bank *,int> > >::~unique_ptr<std::tuple<void * (__cdecl*)(Bank *,int),Bank *,int>,std::default_delete<std::tuple<void * (__cdecl*)(Bank *,int),Bank *,int> > >
	mov	ecx, DWORD PTR _this$[ebp]
	call	??1_Pad@std@@QAE@XZ			; std::_Pad::~_Pad
	mov	esp, ebp
	pop	ebp
	ret	0
??1?$_LaunchPad@V?$unique_ptr@V?$tuple@P6APAXPAUBank@@H@ZPAU1@H@std@@U?$default_delete@V?$tuple@P6APAXPAUBank@@H@ZPAU1@H@std@@@2@@std@@@std@@QAE@XZ ENDP ; std::_LaunchPad<std::unique_ptr<std::tuple<void * (__cdecl*)(Bank *,int),Bank *,int>,std::default_delete<std::tuple<void * (__cdecl*)(Bank *,int),Bank *,int> > > >::~_LaunchPad<std::unique_ptr<std::tuple<void * (__cdecl*)(Bank *,int),Bank *,int>,std::default_delete<std::tuple<void * (__cdecl*)(Bank *,int),Bank *,int> > > >
_TEXT	ENDS
; Function compile flags: /Odtp
;	COMDAT ?_Run@?$_LaunchPad@V?$unique_ptr@V?$tuple@P6APAXPAUBank@@H@ZPAU1@H@std@@U?$default_delete@V?$tuple@P6APAXPAUBank@@H@ZPAU1@H@std@@@2@@std@@@std@@CAXPAV12@@Z
_TEXT	SEGMENT
__Local$ = -8						; size = 4
$T1 = -1						; size = 1
__Ln$ = 8						; size = 4
?_Run@?$_LaunchPad@V?$unique_ptr@V?$tuple@P6APAXPAUBank@@H@ZPAU1@H@std@@U?$default_delete@V?$tuple@P6APAXPAUBank@@H@ZPAU1@H@std@@@2@@std@@@std@@CAXPAV12@@Z PROC ; std::_LaunchPad<std::unique_ptr<std::tuple<void * (__cdecl*)(Bank *,int),Bank *,int>,std::default_delete<std::tuple<void * (__cdecl*)(Bank *,int),Bank *,int> > > >::_Run, COMDAT
; File c:\program files (x86)\microsoft visual studio 14.0\vc\include\thr\xthread
; Line 244
	push	ebp
	mov	ebp, esp
	sub	esp, 8
; Line 245
	mov	eax, DWORD PTR __Ln$[ebp]
	add	eax, 16					; 00000010H
	push	eax
	call	??$forward@V?$unique_ptr@V?$tuple@P6APAXPAUBank@@H@ZPAU1@H@std@@U?$default_delete@V?$tuple@P6APAXPAUBank@@H@ZPAU1@H@std@@@2@@std@@@std@@YA$$QAV?$unique_ptr@V?$tuple@P6APAXPAUBank@@H@ZPAU1@H@std@@U?$default_delete@V?$tuple@P6APAXPAUBank@@H@ZPAU1@H@std@@@2@@0@AAV10@@Z ; std::forward<std::unique_ptr<std::tuple<void * (__cdecl*)(Bank *,int),Bank *,int>,std::default_delete<std::tuple<void * (__cdecl*)(Bank *,int),Bank *,int> > > >
	add	esp, 4
	push	eax
	lea	ecx, DWORD PTR __Local$[ebp]
	call	??0?$unique_ptr@V?$tuple@P6APAXPAUBank@@H@ZPAU1@H@std@@U?$default_delete@V?$tuple@P6APAXPAUBank@@H@ZPAU1@H@std@@@2@@std@@QAE@$$QAV01@@Z ; std::unique_ptr<std::tuple<void * (__cdecl*)(Bank *,int),Bank *,int>,std::default_delete<std::tuple<void * (__cdecl*)(Bank *,int),Bank *,int> > >::unique_ptr<std::tuple<void * (__cdecl*)(Bank *,int),Bank *,int>,std::default_delete<std::tuple<void * (__cdecl*)(Bank *,int),Bank *,int> > >
; Line 246
	mov	ecx, DWORD PTR __Ln$[ebp]
	call	?_Release@_Pad@std@@QAEXXZ		; std::_Pad::_Release
; Line 247
	movzx	ecx, BYTE PTR $T1[ebp]
	push	ecx
	lea	ecx, DWORD PTR __Local$[ebp]
	call	??D?$unique_ptr@V?$tuple@P6APAXPAUBank@@H@ZPAU1@H@std@@U?$default_delete@V?$tuple@P6APAXPAUBank@@H@ZPAU1@H@std@@@2@@std@@QBEAAV?$tuple@P6APAXPAUBank@@H@ZPAU1@H@1@XZ ; std::unique_ptr<std::tuple<void * (__cdecl*)(Bank *,int),Bank *,int>,std::default_delete<std::tuple<void * (__cdecl*)(Bank *,int),Bank *,int> > >::operator*
	push	eax
	call	??$_Execute@$0A@$00$01@?$_LaunchPad@V?$unique_ptr@V?$tuple@P6APAXPAUBank@@H@ZPAU1@H@std@@U?$default_delete@V?$tuple@P6APAXPAUBank@@H@ZPAU1@H@std@@@2@@std@@@std@@CAXAAV?$tuple@P6APAXPAUBank@@H@ZPAU1@H@1@U?$integer_sequence@I$0A@$00$01@1@@Z ; std::_LaunchPad<std::unique_ptr<std::tuple<void * (__cdecl*)(Bank *,int),Bank *,int>,std::default_delete<std::tuple<void * (__cdecl*)(Bank *,int),Bank *,int> > > >::_Execute<0,1,2>
	add	esp, 8
; Line 250
	lea	ecx, DWORD PTR __Local$[ebp]
	call	??1?$unique_ptr@V?$tuple@P6APAXPAUBank@@H@ZPAU1@H@std@@U?$default_delete@V?$tuple@P6APAXPAUBank@@H@ZPAU1@H@std@@@2@@std@@QAE@XZ ; std::unique_ptr<std::tuple<void * (__cdecl*)(Bank *,int),Bank *,int>,std::default_delete<std::tuple<void * (__cdecl*)(Bank *,int),Bank *,int> > >::~unique_ptr<std::tuple<void * (__cdecl*)(Bank *,int),Bank *,int>,std::default_delete<std::tuple<void * (__cdecl*)(Bank *,int),Bank *,int> > >
	mov	esp, ebp
	pop	ebp
	ret	0
?_Run@?$_LaunchPad@V?$unique_ptr@V?$tuple@P6APAXPAUBank@@H@ZPAU1@H@std@@U?$default_delete@V?$tuple@P6APAXPAUBank@@H@ZPAU1@H@std@@@2@@std@@@std@@CAXPAV12@@Z ENDP ; std::_LaunchPad<std::unique_ptr<std::tuple<void * (__cdecl*)(Bank *,int),Bank *,int>,std::default_delete<std::tuple<void * (__cdecl*)(Bank *,int),Bank *,int> > > >::_Run
_TEXT	ENDS
; Function compile flags: /Odtp
;	COMDAT ?_Go@?$_LaunchPad@V?$unique_ptr@V?$tuple@P6APAXPAUBank@@H@ZPAU1@H@std@@U?$default_delete@V?$tuple@P6APAXPAUBank@@H@ZPAU1@H@std@@@2@@std@@@std@@UAEXXZ
_TEXT	SEGMENT
_this$ = -4						; size = 4
?_Go@?$_LaunchPad@V?$unique_ptr@V?$tuple@P6APAXPAUBank@@H@ZPAU1@H@std@@U?$default_delete@V?$tuple@P6APAXPAUBank@@H@ZPAU1@H@std@@@2@@std@@@std@@UAEXXZ PROC ; std::_LaunchPad<std::unique_ptr<std::tuple<void * (__cdecl*)(Bank *,int),Bank *,int>,std::default_delete<std::tuple<void * (__cdecl*)(Bank *,int),Bank *,int> > > >::_Go, COMDAT
; _this$ = ecx
; File c:\program files (x86)\microsoft visual studio 14.0\vc\include\thr\xthread
; Line 231
	push	ebp
	mov	ebp, esp
	push	ecx
	mov	DWORD PTR _this$[ebp], ecx
; Line 232
	mov	eax, DWORD PTR _this$[ebp]
	push	eax
	call	?_Run@?$_LaunchPad@V?$unique_ptr@V?$tuple@P6APAXPAUBank@@H@ZPAU1@H@std@@U?$default_delete@V?$tuple@P6APAXPAUBank@@H@ZPAU1@H@std@@@2@@std@@@std@@CAXPAV12@@Z ; std::_LaunchPad<std::unique_ptr<std::tuple<void * (__cdecl*)(Bank *,int),Bank *,int>,std::default_delete<std::tuple<void * (__cdecl*)(Bank *,int),Bank *,int> > > >::_Run
	add	esp, 4
; Line 233
	mov	esp, ebp
	pop	ebp
	ret	0
?_Go@?$_LaunchPad@V?$unique_ptr@V?$tuple@P6APAXPAUBank@@H@ZPAU1@H@std@@U?$default_delete@V?$tuple@P6APAXPAUBank@@H@ZPAU1@H@std@@@2@@std@@@std@@UAEXXZ ENDP ; std::_LaunchPad<std::unique_ptr<std::tuple<void * (__cdecl*)(Bank *,int),Bank *,int>,std::default_delete<std::tuple<void * (__cdecl*)(Bank *,int),Bank *,int> > > >::_Go
_TEXT	ENDS
; Function compile flags: /Odtp
;	COMDAT ??$forward@V?$unique_ptr@V?$tuple@P6APAXPAUBank@@H@ZPAU1@H@std@@U?$default_delete@V?$tuple@P6APAXPAUBank@@H@ZPAU1@H@std@@@2@@std@@@std@@YA$$QAV?$unique_ptr@V?$tuple@P6APAXPAUBank@@H@ZPAU1@H@std@@U?$default_delete@V?$tuple@P6APAXPAUBank@@H@ZPAU1@H@std@@@2@@0@AAV10@@Z
_TEXT	SEGMENT
__Arg$ = 8						; size = 4
??$forward@V?$unique_ptr@V?$tuple@P6APAXPAUBank@@H@ZPAU1@H@std@@U?$default_delete@V?$tuple@P6APAXPAUBank@@H@ZPAU1@H@std@@@2@@std@@@std@@YA$$QAV?$unique_ptr@V?$tuple@P6APAXPAUBank@@H@ZPAU1@H@std@@U?$default_delete@V?$tuple@P6APAXPAUBank@@H@ZPAU1@H@std@@@2@@0@AAV10@@Z PROC ; std::forward<std::unique_ptr<std::tuple<void * (__cdecl*)(Bank *,int),Bank *,int>,std::default_delete<std::tuple<void * (__cdecl*)(Bank *,int),Bank *,int> > > >, COMDAT
; File c:\program files (x86)\microsoft visual studio 14.0\vc\include\type_traits
; Line 1275
	push	ebp
	mov	ebp, esp
; Line 1276
	mov	eax, DWORD PTR __Arg$[ebp]
; Line 1277
	pop	ebp
	ret	0
??$forward@V?$unique_ptr@V?$tuple@P6APAXPAUBank@@H@ZPAU1@H@std@@U?$default_delete@V?$tuple@P6APAXPAUBank@@H@ZPAU1@H@std@@@2@@std@@@std@@YA$$QAV?$unique_ptr@V?$tuple@P6APAXPAUBank@@H@ZPAU1@H@std@@U?$default_delete@V?$tuple@P6APAXPAUBank@@H@ZPAU1@H@std@@@2@@0@AAV10@@Z ENDP ; std::forward<std::unique_ptr<std::tuple<void * (__cdecl*)(Bank *,int),Bank *,int>,std::default_delete<std::tuple<void * (__cdecl*)(Bank *,int),Bank *,int> > > >
_TEXT	ENDS
; Function compile flags: /Odtp
;	COMDAT ??$?0A6APAXPAUBank@@H@ZAAPAU0@AAH$0A@@?$tuple@P6APAXPAUBank@@H@ZPAU1@H@std@@QAE@A6APAXPAUBank@@H@ZAAPAU2@AAH@Z
_TEXT	SEGMENT
_this$ = -8						; size = 4
$T1 = -1						; size = 1
__This_arg$ = 8						; size = 4
_<_Rest_arg_0>$ = 12					; size = 4
_<_Rest_arg_1>$ = 16					; size = 4
??$?0A6APAXPAUBank@@H@ZAAPAU0@AAH$0A@@?$tuple@P6APAXPAUBank@@H@ZPAU1@H@std@@QAE@A6APAXPAUBank@@H@ZAAPAU2@AAH@Z PROC ; std::tuple<void * (__cdecl*)(Bank *,int),Bank *,int>::tuple<void * (__cdecl*)(Bank *,int),Bank *,int><void * (__cdecl&)(Bank *,int),Bank * &,int &,0>, COMDAT
; _this$ = ecx
; File c:\program files (x86)\microsoft visual studio 14.0\vc\include\tuple
; Line 469
	push	ebp
	mov	ebp, esp
	sub	esp, 8
	mov	DWORD PTR _this$[ebp], ecx
; Line 467
	xor	eax, eax
	mov	BYTE PTR $T1[ebp], al
	mov	ecx, DWORD PTR _<_Rest_arg_1>$[ebp]
	push	ecx
	call	??$forward@AAH@std@@YAAAHAAH@Z		; std::forward<int &>
	add	esp, 4
	push	eax
	mov	edx, DWORD PTR _<_Rest_arg_0>$[ebp]
	push	edx
	call	??$forward@AAPAUBank@@@std@@YAAAPAUBank@@AAPAU1@@Z ; std::forward<Bank * &>
	add	esp, 4
	push	eax
	movzx	eax, BYTE PTR $T1[ebp]
	push	eax
	mov	ecx, DWORD PTR _this$[ebp]
	call	??$?0U_Exact_args_t@std@@AAPAUBank@@AAH$0A@@?$tuple@PAUBank@@H@std@@QAE@U_Exact_args_t@1@AAPAUBank@@AAH@Z ; std::tuple<Bank *,int>::tuple<Bank *,int><std::_Exact_args_t,Bank * &,int &,0>
; Line 468
	mov	ecx, DWORD PTR __This_arg$[ebp]
	push	ecx
	call	??$forward@A6APAXPAUBank@@H@Z@std@@YAA6APAXPAUBank@@H@ZA6APAX0H@Z@Z ; std::forward<void * (__cdecl&)(Bank *,int)>
	add	esp, 4
	push	eax
	mov	ecx, DWORD PTR _this$[ebp]
	add	ecx, 8
	call	??$?0A6APAXPAUBank@@H@Z@?$_Tuple_val@P6APAXPAUBank@@H@Z@std@@QAE@A6APAXPAUBank@@H@Z@Z ; std::_Tuple_val<void * (__cdecl*)(Bank *,int)>::_Tuple_val<void * (__cdecl*)(Bank *,int)><void * (__cdecl&)(Bank *,int)>
; Line 470
	mov	eax, DWORD PTR _this$[ebp]
	mov	esp, ebp
	pop	ebp
	ret	12					; 0000000cH
??$?0A6APAXPAUBank@@H@ZAAPAU0@AAH$0A@@?$tuple@P6APAXPAUBank@@H@ZPAU1@H@std@@QAE@A6APAXPAUBank@@H@ZAAPAU2@AAH@Z ENDP ; std::tuple<void * (__cdecl*)(Bank *,int),Bank *,int>::tuple<void * (__cdecl*)(Bank *,int),Bank *,int><void * (__cdecl&)(Bank *,int),Bank * &,int &,0>
_TEXT	ENDS
; Function compile flags: /Odtp
;	COMDAT ??$?0V?$unique_ptr@V?$tuple@P6APAXXZ@std@@U?$default_delete@V?$tuple@P6APAXXZ@std@@@2@@std@@@?$_LaunchPad@V?$unique_ptr@V?$tuple@P6APAXXZ@std@@U?$default_delete@V?$tuple@P6APAXXZ@std@@@2@@std@@@std@@QAE@$$QAV?$unique_ptr@V?$tuple@P6APAXXZ@std@@U?$default_delete@V?$tuple@P6APAXXZ@std@@@2@@1@@Z
_TEXT	SEGMENT
_this$ = -4						; size = 4
__Tgt$ = 8						; size = 4
??$?0V?$unique_ptr@V?$tuple@P6APAXXZ@std@@U?$default_delete@V?$tuple@P6APAXXZ@std@@@2@@std@@@?$_LaunchPad@V?$unique_ptr@V?$tuple@P6APAXXZ@std@@U?$default_delete@V?$tuple@P6APAXXZ@std@@@2@@std@@@std@@QAE@$$QAV?$unique_ptr@V?$tuple@P6APAXXZ@std@@U?$default_delete@V?$tuple@P6APAXXZ@std@@@2@@1@@Z PROC ; std::_LaunchPad<std::unique_ptr<std::tuple<void * (__cdecl*)(void)>,std::default_delete<std::tuple<void * (__cdecl*)(void)> > > >::_LaunchPad<std::unique_ptr<std::tuple<void * (__cdecl*)(void)>,std::default_delete<std::tuple<void * (__cdecl*)(void)> > > ><std::unique_ptr<std::tuple<void * (__cdecl*)(void)>,std::default_delete<std::tuple<void * (__cdecl*)(void)> > > >, COMDAT
; _this$ = ecx
; File c:\program files (x86)\microsoft visual studio 14.0\vc\include\thr\xthread
; Line 227
	push	ebp
	mov	ebp, esp
	push	ecx
	mov	DWORD PTR _this$[ebp], ecx
	mov	ecx, DWORD PTR _this$[ebp]
	call	??0_Pad@std@@QAE@XZ			; std::_Pad::_Pad
	mov	eax, DWORD PTR _this$[ebp]
	mov	DWORD PTR [eax], OFFSET ??_7?$_LaunchPad@V?$unique_ptr@V?$tuple@P6APAXXZ@std@@U?$default_delete@V?$tuple@P6APAXXZ@std@@@2@@std@@@std@@6B@
; Line 226
	mov	ecx, DWORD PTR __Tgt$[ebp]
	push	ecx
	call	??$forward@V?$unique_ptr@V?$tuple@P6APAXXZ@std@@U?$default_delete@V?$tuple@P6APAXXZ@std@@@2@@std@@@std@@YA$$QAV?$unique_ptr@V?$tuple@P6APAXXZ@std@@U?$default_delete@V?$tuple@P6APAXXZ@std@@@2@@0@AAV10@@Z ; std::forward<std::unique_ptr<std::tuple<void * (__cdecl*)(void)>,std::default_delete<std::tuple<void * (__cdecl*)(void)> > > >
	add	esp, 4
	push	eax
	mov	ecx, DWORD PTR _this$[ebp]
	add	ecx, 16					; 00000010H
	call	??0?$unique_ptr@V?$tuple@P6APAXXZ@std@@U?$default_delete@V?$tuple@P6APAXXZ@std@@@2@@std@@QAE@$$QAV01@@Z ; std::unique_ptr<std::tuple<void * (__cdecl*)(void)>,std::default_delete<std::tuple<void * (__cdecl*)(void)> > >::unique_ptr<std::tuple<void * (__cdecl*)(void)>,std::default_delete<std::tuple<void * (__cdecl*)(void)> > >
; Line 228
	mov	eax, DWORD PTR _this$[ebp]
	mov	esp, ebp
	pop	ebp
	ret	4
??$?0V?$unique_ptr@V?$tuple@P6APAXXZ@std@@U?$default_delete@V?$tuple@P6APAXXZ@std@@@2@@std@@@?$_LaunchPad@V?$unique_ptr@V?$tuple@P6APAXXZ@std@@U?$default_delete@V?$tuple@P6APAXXZ@std@@@2@@std@@@std@@QAE@$$QAV?$unique_ptr@V?$tuple@P6APAXXZ@std@@U?$default_delete@V?$tuple@P6APAXXZ@std@@@2@@1@@Z ENDP ; std::_LaunchPad<std::unique_ptr<std::tuple<void * (__cdecl*)(void)>,std::default_delete<std::tuple<void * (__cdecl*)(void)> > > >::_LaunchPad<std::unique_ptr<std::tuple<void * (__cdecl*)(void)>,std::default_delete<std::tuple<void * (__cdecl*)(void)> > > ><std::unique_ptr<std::tuple<void * (__cdecl*)(void)>,std::default_delete<std::tuple<void * (__cdecl*)(void)> > > >
_TEXT	ENDS
; Function compile flags: /Odtp
;	COMDAT ??1?$_LaunchPad@V?$unique_ptr@V?$tuple@P6APAXXZ@std@@U?$default_delete@V?$tuple@P6APAXXZ@std@@@2@@std@@@std@@QAE@XZ
_TEXT	SEGMENT
_this$ = -4						; size = 4
??1?$_LaunchPad@V?$unique_ptr@V?$tuple@P6APAXXZ@std@@U?$default_delete@V?$tuple@P6APAXXZ@std@@@2@@std@@@std@@QAE@XZ PROC ; std::_LaunchPad<std::unique_ptr<std::tuple<void * (__cdecl*)(void)>,std::default_delete<std::tuple<void * (__cdecl*)(void)> > > >::~_LaunchPad<std::unique_ptr<std::tuple<void * (__cdecl*)(void)>,std::default_delete<std::tuple<void * (__cdecl*)(void)> > > >, COMDAT
; _this$ = ecx
	push	ebp
	mov	ebp, esp
	push	ecx
	mov	DWORD PTR _this$[ebp], ecx
	mov	ecx, DWORD PTR _this$[ebp]
	add	ecx, 16					; 00000010H
	call	??1?$unique_ptr@V?$tuple@P6APAXXZ@std@@U?$default_delete@V?$tuple@P6APAXXZ@std@@@2@@std@@QAE@XZ ; std::unique_ptr<std::tuple<void * (__cdecl*)(void)>,std::default_delete<std::tuple<void * (__cdecl*)(void)> > >::~unique_ptr<std::tuple<void * (__cdecl*)(void)>,std::default_delete<std::tuple<void * (__cdecl*)(void)> > >
	mov	ecx, DWORD PTR _this$[ebp]
	call	??1_Pad@std@@QAE@XZ			; std::_Pad::~_Pad
	mov	esp, ebp
	pop	ebp
	ret	0
??1?$_LaunchPad@V?$unique_ptr@V?$tuple@P6APAXXZ@std@@U?$default_delete@V?$tuple@P6APAXXZ@std@@@2@@std@@@std@@QAE@XZ ENDP ; std::_LaunchPad<std::unique_ptr<std::tuple<void * (__cdecl*)(void)>,std::default_delete<std::tuple<void * (__cdecl*)(void)> > > >::~_LaunchPad<std::unique_ptr<std::tuple<void * (__cdecl*)(void)>,std::default_delete<std::tuple<void * (__cdecl*)(void)> > > >
_TEXT	ENDS
; Function compile flags: /Odtp
;	COMDAT ?_Run@?$_LaunchPad@V?$unique_ptr@V?$tuple@P6APAXXZ@std@@U?$default_delete@V?$tuple@P6APAXXZ@std@@@2@@std@@@std@@CAXPAV12@@Z
_TEXT	SEGMENT
__Local$ = -8						; size = 4
$T1 = -1						; size = 1
__Ln$ = 8						; size = 4
?_Run@?$_LaunchPad@V?$unique_ptr@V?$tuple@P6APAXXZ@std@@U?$default_delete@V?$tuple@P6APAXXZ@std@@@2@@std@@@std@@CAXPAV12@@Z PROC ; std::_LaunchPad<std::unique_ptr<std::tuple<void * (__cdecl*)(void)>,std::default_delete<std::tuple<void * (__cdecl*)(void)> > > >::_Run, COMDAT
; File c:\program files (x86)\microsoft visual studio 14.0\vc\include\thr\xthread
; Line 244
	push	ebp
	mov	ebp, esp
	sub	esp, 8
; Line 245
	mov	eax, DWORD PTR __Ln$[ebp]
	add	eax, 16					; 00000010H
	push	eax
	call	??$forward@V?$unique_ptr@V?$tuple@P6APAXXZ@std@@U?$default_delete@V?$tuple@P6APAXXZ@std@@@2@@std@@@std@@YA$$QAV?$unique_ptr@V?$tuple@P6APAXXZ@std@@U?$default_delete@V?$tuple@P6APAXXZ@std@@@2@@0@AAV10@@Z ; std::forward<std::unique_ptr<std::tuple<void * (__cdecl*)(void)>,std::default_delete<std::tuple<void * (__cdecl*)(void)> > > >
	add	esp, 4
	push	eax
	lea	ecx, DWORD PTR __Local$[ebp]
	call	??0?$unique_ptr@V?$tuple@P6APAXXZ@std@@U?$default_delete@V?$tuple@P6APAXXZ@std@@@2@@std@@QAE@$$QAV01@@Z ; std::unique_ptr<std::tuple<void * (__cdecl*)(void)>,std::default_delete<std::tuple<void * (__cdecl*)(void)> > >::unique_ptr<std::tuple<void * (__cdecl*)(void)>,std::default_delete<std::tuple<void * (__cdecl*)(void)> > >
; Line 246
	mov	ecx, DWORD PTR __Ln$[ebp]
	call	?_Release@_Pad@std@@QAEXXZ		; std::_Pad::_Release
; Line 247
	movzx	ecx, BYTE PTR $T1[ebp]
	push	ecx
	lea	ecx, DWORD PTR __Local$[ebp]
	call	??D?$unique_ptr@V?$tuple@P6APAXXZ@std@@U?$default_delete@V?$tuple@P6APAXXZ@std@@@2@@std@@QBEAAV?$tuple@P6APAXXZ@1@XZ ; std::unique_ptr<std::tuple<void * (__cdecl*)(void)>,std::default_delete<std::tuple<void * (__cdecl*)(void)> > >::operator*
	push	eax
	call	??$_Execute@$0A@@?$_LaunchPad@V?$unique_ptr@V?$tuple@P6APAXXZ@std@@U?$default_delete@V?$tuple@P6APAXXZ@std@@@2@@std@@@std@@CAXAAV?$tuple@P6APAXXZ@1@U?$integer_sequence@I$0A@@1@@Z ; std::_LaunchPad<std::unique_ptr<std::tuple<void * (__cdecl*)(void)>,std::default_delete<std::tuple<void * (__cdecl*)(void)> > > >::_Execute<0>
	add	esp, 8
; Line 250
	lea	ecx, DWORD PTR __Local$[ebp]
	call	??1?$unique_ptr@V?$tuple@P6APAXXZ@std@@U?$default_delete@V?$tuple@P6APAXXZ@std@@@2@@std@@QAE@XZ ; std::unique_ptr<std::tuple<void * (__cdecl*)(void)>,std::default_delete<std::tuple<void * (__cdecl*)(void)> > >::~unique_ptr<std::tuple<void * (__cdecl*)(void)>,std::default_delete<std::tuple<void * (__cdecl*)(void)> > >
	mov	esp, ebp
	pop	ebp
	ret	0
?_Run@?$_LaunchPad@V?$unique_ptr@V?$tuple@P6APAXXZ@std@@U?$default_delete@V?$tuple@P6APAXXZ@std@@@2@@std@@@std@@CAXPAV12@@Z ENDP ; std::_LaunchPad<std::unique_ptr<std::tuple<void * (__cdecl*)(void)>,std::default_delete<std::tuple<void * (__cdecl*)(void)> > > >::_Run
_TEXT	ENDS
; Function compile flags: /Odtp
;	COMDAT ?_Go@?$_LaunchPad@V?$unique_ptr@V?$tuple@P6APAXXZ@std@@U?$default_delete@V?$tuple@P6APAXXZ@std@@@2@@std@@@std@@UAEXXZ
_TEXT	SEGMENT
_this$ = -4						; size = 4
?_Go@?$_LaunchPad@V?$unique_ptr@V?$tuple@P6APAXXZ@std@@U?$default_delete@V?$tuple@P6APAXXZ@std@@@2@@std@@@std@@UAEXXZ PROC ; std::_LaunchPad<std::unique_ptr<std::tuple<void * (__cdecl*)(void)>,std::default_delete<std::tuple<void * (__cdecl*)(void)> > > >::_Go, COMDAT
; _this$ = ecx
; File c:\program files (x86)\microsoft visual studio 14.0\vc\include\thr\xthread
; Line 231
	push	ebp
	mov	ebp, esp
	push	ecx
	mov	DWORD PTR _this$[ebp], ecx
; Line 232
	mov	eax, DWORD PTR _this$[ebp]
	push	eax
	call	?_Run@?$_LaunchPad@V?$unique_ptr@V?$tuple@P6APAXXZ@std@@U?$default_delete@V?$tuple@P6APAXXZ@std@@@2@@std@@@std@@CAXPAV12@@Z ; std::_LaunchPad<std::unique_ptr<std::tuple<void * (__cdecl*)(void)>,std::default_delete<std::tuple<void * (__cdecl*)(void)> > > >::_Run
	add	esp, 4
; Line 233
	mov	esp, ebp
	pop	ebp
	ret	0
?_Go@?$_LaunchPad@V?$unique_ptr@V?$tuple@P6APAXXZ@std@@U?$default_delete@V?$tuple@P6APAXXZ@std@@@2@@std@@@std@@UAEXXZ ENDP ; std::_LaunchPad<std::unique_ptr<std::tuple<void * (__cdecl*)(void)>,std::default_delete<std::tuple<void * (__cdecl*)(void)> > > >::_Go
_TEXT	ENDS
; Function compile flags: /Odtp
;	COMDAT ??$forward@V?$unique_ptr@V?$tuple@P6APAXXZ@std@@U?$default_delete@V?$tuple@P6APAXXZ@std@@@2@@std@@@std@@YA$$QAV?$unique_ptr@V?$tuple@P6APAXXZ@std@@U?$default_delete@V?$tuple@P6APAXXZ@std@@@2@@0@AAV10@@Z
_TEXT	SEGMENT
__Arg$ = 8						; size = 4
??$forward@V?$unique_ptr@V?$tuple@P6APAXXZ@std@@U?$default_delete@V?$tuple@P6APAXXZ@std@@@2@@std@@@std@@YA$$QAV?$unique_ptr@V?$tuple@P6APAXXZ@std@@U?$default_delete@V?$tuple@P6APAXXZ@std@@@2@@0@AAV10@@Z PROC ; std::forward<std::unique_ptr<std::tuple<void * (__cdecl*)(void)>,std::default_delete<std::tuple<void * (__cdecl*)(void)> > > >, COMDAT
; File c:\program files (x86)\microsoft visual studio 14.0\vc\include\type_traits
; Line 1275
	push	ebp
	mov	ebp, esp
; Line 1276
	mov	eax, DWORD PTR __Arg$[ebp]
; Line 1277
	pop	ebp
	ret	0
??$forward@V?$unique_ptr@V?$tuple@P6APAXXZ@std@@U?$default_delete@V?$tuple@P6APAXXZ@std@@@2@@std@@@std@@YA$$QAV?$unique_ptr@V?$tuple@P6APAXXZ@std@@U?$default_delete@V?$tuple@P6APAXXZ@std@@@2@@0@AAV10@@Z ENDP ; std::forward<std::unique_ptr<std::tuple<void * (__cdecl*)(void)>,std::default_delete<std::tuple<void * (__cdecl*)(void)> > > >
_TEXT	ENDS
; Function compile flags: /Odtp
;	COMDAT ??$?0P6APAXXZ$0A@@?$tuple@P6APAXXZ@std@@QAE@ABQ6APAXXZ@Z
_TEXT	SEGMENT
_this$ = -8						; size = 4
$T1 = -1						; size = 1
__This_arg$ = 8						; size = 4
??$?0P6APAXXZ$0A@@?$tuple@P6APAXXZ@std@@QAE@ABQ6APAXXZ@Z PROC ; std::tuple<void * (__cdecl*)(void)>::tuple<void * (__cdecl*)(void)><void * (__cdecl*)(void),0>, COMDAT
; _this$ = ecx
; File c:\program files (x86)\microsoft visual studio 14.0\vc\include\tuple
; Line 428
	push	ebp
	mov	ebp, esp
	sub	esp, 8
	mov	DWORD PTR _this$[ebp], ecx
; Line 427
	xor	eax, eax
	mov	BYTE PTR $T1[ebp], al
	movzx	ecx, BYTE PTR $T1[ebp]
	push	ecx
	mov	ecx, DWORD PTR _this$[ebp]
	call	??$?0U_Exact_args_t@std@@$0A@@?$tuple@$$V@std@@QAE@U_Exact_args_t@1@@Z ; std::tuple<>::tuple<><std::_Exact_args_t,0>
	mov	edx, DWORD PTR __This_arg$[ebp]
	push	edx
	mov	ecx, DWORD PTR _this$[ebp]
	call	??$?0ABQ6APAXXZ@?$_Tuple_val@P6APAXXZ@std@@QAE@ABQ6APAXXZ@Z ; std::_Tuple_val<void * (__cdecl*)(void)>::_Tuple_val<void * (__cdecl*)(void)><void * (__cdecl*const &)(void)>
; Line 429
	mov	eax, DWORD PTR _this$[ebp]
	mov	esp, ebp
	pop	ebp
	ret	4
??$?0P6APAXXZ$0A@@?$tuple@P6APAXXZ@std@@QAE@ABQ6APAXXZ@Z ENDP ; std::tuple<void * (__cdecl*)(void)>::tuple<void * (__cdecl*)(void)><void * (__cdecl*)(void),0>
_TEXT	ENDS
; Function compile flags: /Odtp
;	COMDAT ??$?0_JU?$ratio@$00$00@std@@X@?$duration@_JU?$ratio@$00$0DLJKMKAA@@std@@@chrono@std@@QAE@ABV?$duration@_JU?$ratio@$00$00@std@@@12@@Z
_TEXT	SEGMENT
$T1 = -12						; size = 8
_this$ = -4						; size = 4
__Dur$ = 8						; size = 4
??$?0_JU?$ratio@$00$00@std@@X@?$duration@_JU?$ratio@$00$0DLJKMKAA@@std@@@chrono@std@@QAE@ABV?$duration@_JU?$ratio@$00$00@std@@@12@@Z PROC ; std::chrono::duration<__int64,std::ratio<1,1000000000> >::duration<__int64,std::ratio<1,1000000000> ><__int64,std::ratio<1,1>,void>, COMDAT
; _this$ = ecx
; File c:\program files (x86)\microsoft visual studio 14.0\vc\include\chrono
; Line 130
	push	ebp
	mov	ebp, esp
	sub	esp, 12					; 0000000cH
	mov	DWORD PTR _this$[ebp], ecx
; Line 129
	mov	eax, DWORD PTR __Dur$[ebp]
	push	eax
	lea	ecx, DWORD PTR $T1[ebp]
	push	ecx
	call	??$duration_cast@V?$duration@_JU?$ratio@$00$0DLJKMKAA@@std@@@chrono@std@@_JU?$ratio@$00$00@3@@chrono@std@@YA?AV?$duration@_JU?$ratio@$00$0DLJKMKAA@@std@@@01@ABV?$duration@_JU?$ratio@$00$00@std@@@01@@Z ; std::chrono::duration_cast<std::chrono::duration<__int64,std::ratio<1,1000000000> >,__int64,std::ratio<1,1> >
	add	esp, 8
	mov	ecx, eax
	call	?count@?$duration@_JU?$ratio@$00$0DLJKMKAA@@std@@@chrono@std@@QBE_JXZ ; std::chrono::duration<__int64,std::ratio<1,1000000000> >::count
	mov	ecx, DWORD PTR _this$[ebp]
	mov	DWORD PTR [ecx], eax
	mov	DWORD PTR [ecx+4], edx
; Line 131
	mov	eax, DWORD PTR _this$[ebp]
	mov	esp, ebp
	pop	ebp
	ret	4
??$?0_JU?$ratio@$00$00@std@@X@?$duration@_JU?$ratio@$00$0DLJKMKAA@@std@@@chrono@std@@QAE@ABV?$duration@_JU?$ratio@$00$00@std@@@12@@Z ENDP ; std::chrono::duration<__int64,std::ratio<1,1000000000> >::duration<__int64,std::ratio<1,1000000000> ><__int64,std::ratio<1,1>,void>
_TEXT	ENDS
; Function compile flags: /Odtp
;	COMDAT ??$?0_JX@?$duration@_JU?$ratio@$00$00@std@@@chrono@std@@QAE@AB_J@Z
_TEXT	SEGMENT
_this$ = -4						; size = 4
__Val$ = 8						; size = 4
??$?0_JX@?$duration@_JU?$ratio@$00$00@std@@@chrono@std@@QAE@AB_J@Z PROC ; std::chrono::duration<__int64,std::ratio<1,1> >::duration<__int64,std::ratio<1,1> ><__int64,void>, COMDAT
; _this$ = ecx
; File c:\program files (x86)\microsoft visual studio 14.0\vc\include\chrono
; Line 117
	push	ebp
	mov	ebp, esp
	push	ecx
	mov	DWORD PTR _this$[ebp], ecx
; Line 116
	mov	eax, DWORD PTR _this$[ebp]
	mov	ecx, DWORD PTR __Val$[ebp]
	mov	edx, DWORD PTR [ecx]
	mov	DWORD PTR [eax], edx
	mov	ecx, DWORD PTR [ecx+4]
	mov	DWORD PTR [eax+4], ecx
; Line 118
	mov	eax, DWORD PTR _this$[ebp]
	mov	esp, ebp
	pop	ebp
	ret	4
??$?0_JX@?$duration@_JU?$ratio@$00$00@std@@@chrono@std@@QAE@AB_J@Z ENDP ; std::chrono::duration<__int64,std::ratio<1,1> >::duration<__int64,std::ratio<1,1> ><__int64,void>
_TEXT	ENDS
; Function compile flags: /Odtp
;	COMDAT ??$duration_cast@V?$duration@_JU?$ratio@$00$00@std@@@chrono@std@@_JU?$ratio@$00$0DLJKMKAA@@3@@chrono@std@@YA?AV?$duration@_JU?$ratio@$00$00@std@@@01@ABV?$duration@_JU?$ratio@$00$0DLJKMKAA@@std@@@01@@Z
_TEXT	SEGMENT
$T1 = -104						; size = 8
$T2 = -96						; size = 8
$T3 = -88						; size = 8
$T4 = -80						; size = 8
$T5 = -72						; size = 8
$T6 = -64						; size = 8
$T7 = -56						; size = 8
$T8 = -48						; size = 8
$T9 = -40						; size = 8
$T10 = -32						; size = 8
$T11 = -24						; size = 4
$T12 = -20						; size = 4
$T13 = -16						; size = 4
tv93 = -12						; size = 4
tv90 = -8						; size = 4
tv87 = -4						; size = 4
___$ReturnUdt$ = 8					; size = 4
__Dur$ = 12						; size = 4
??$duration_cast@V?$duration@_JU?$ratio@$00$00@std@@@chrono@std@@_JU?$ratio@$00$0DLJKMKAA@@3@@chrono@std@@YA?AV?$duration@_JU?$ratio@$00$00@std@@@01@ABV?$duration@_JU?$ratio@$00$0DLJKMKAA@@std@@@01@@Z PROC ; std::chrono::duration_cast<std::chrono::duration<__int64,std::ratio<1,1> >,__int64,std::ratio<1,1000000000> >, COMDAT
; File c:\program files (x86)\microsoft visual studio 14.0\vc\include\chrono
; Line 551
	push	ebp
	mov	ebp, esp
	sub	esp, 104				; 00000068H
; Line 556
	xor	eax, eax
	je	SHORT $LN7@duration_c
	mov	ecx, DWORD PTR __Dur$[ebp]
	call	?count@?$duration@_JU?$ratio@$00$0DLJKMKAA@@std@@@chrono@std@@QBE_JXZ ; std::chrono::duration<__int64,std::ratio<1,1000000000> >::count
	mov	DWORD PTR $T10[ebp], eax
	mov	DWORD PTR $T10[ebp+4], edx
	lea	ecx, DWORD PTR $T10[ebp]
	push	ecx
	lea	ecx, DWORD PTR $T4[ebp]
	call	??$?0_JX@?$duration@_JU?$ratio@$00$00@std@@@chrono@std@@QAE@AB_J@Z ; std::chrono::duration<__int64,std::ratio<1,1> >::duration<__int64,std::ratio<1,1> ><__int64,void>
	mov	DWORD PTR tv93[ebp], eax
	jmp	$LN8@duration_c
$LN7@duration_c:
	xor	edx, edx
	je	SHORT $LN5@duration_c
	mov	ecx, DWORD PTR __Dur$[ebp]
	call	?count@?$duration@_JU?$ratio@$00$0DLJKMKAA@@std@@@chrono@std@@QBE_JXZ ; std::chrono::duration<__int64,std::ratio<1,1000000000> >::count
	mov	DWORD PTR $T9[ebp], eax
	mov	DWORD PTR $T9[ebp+4], edx
	lea	eax, DWORD PTR $T9[ebp]
	push	eax
	lea	ecx, DWORD PTR $T3[ebp]
	call	??$?0_JX@?$duration@_JU?$ratio@$00$00@std@@@chrono@std@@QAE@AB_J@Z ; std::chrono::duration<__int64,std::ratio<1,1> >::duration<__int64,std::ratio<1,1> ><__int64,void>
	mov	DWORD PTR tv90[ebp], eax
	jmp	SHORT $LN6@duration_c
$LN5@duration_c:
	mov	ecx, 1
	test	ecx, ecx
	je	SHORT $LN3@duration_c
	mov	ecx, DWORD PTR __Dur$[ebp]
	call	?count@?$duration@_JU?$ratio@$00$0DLJKMKAA@@std@@@chrono@std@@QBE_JXZ ; std::chrono::duration<__int64,std::ratio<1,1000000000> >::count
	push	0
	push	1000000000				; 3b9aca00H
	push	edx
	push	eax
	call	__alldiv
	mov	DWORD PTR $T8[ebp], eax
	mov	DWORD PTR $T8[ebp+4], edx
	lea	edx, DWORD PTR $T8[ebp]
	push	edx
	lea	ecx, DWORD PTR $T2[ebp]
	call	??$?0_JX@?$duration@_JU?$ratio@$00$00@std@@@chrono@std@@QAE@AB_J@Z ; std::chrono::duration<__int64,std::ratio<1,1> >::duration<__int64,std::ratio<1,1> ><__int64,void>
	mov	DWORD PTR tv87[ebp], eax
	jmp	SHORT $LN4@duration_c
$LN3@duration_c:
	mov	ecx, DWORD PTR __Dur$[ebp]
	call	?count@?$duration@_JU?$ratio@$00$0DLJKMKAA@@std@@@chrono@std@@QBE_JXZ ; std::chrono::duration<__int64,std::ratio<1,1000000000> >::count
	push	0
	push	1000000000				; 3b9aca00H
	push	edx
	push	eax
	call	__alldiv
	mov	DWORD PTR $T7[ebp], eax
	mov	DWORD PTR $T7[ebp+4], edx
	lea	eax, DWORD PTR $T7[ebp]
	push	eax
	lea	ecx, DWORD PTR $T1[ebp]
	call	??$?0_JX@?$duration@_JU?$ratio@$00$00@std@@@chrono@std@@QAE@AB_J@Z ; std::chrono::duration<__int64,std::ratio<1,1> >::duration<__int64,std::ratio<1,1> ><__int64,void>
	mov	DWORD PTR tv87[ebp], eax
$LN4@duration_c:
	mov	ecx, DWORD PTR tv87[ebp]
	mov	DWORD PTR $T13[ebp], ecx
	mov	edx, DWORD PTR $T13[ebp]
	mov	eax, DWORD PTR [edx]
	mov	ecx, DWORD PTR [edx+4]
	mov	DWORD PTR $T6[ebp], eax
	mov	DWORD PTR $T6[ebp+4], ecx
	lea	edx, DWORD PTR $T6[ebp]
	mov	DWORD PTR tv90[ebp], edx
$LN6@duration_c:
	mov	eax, DWORD PTR tv90[ebp]
	mov	DWORD PTR $T12[ebp], eax
	mov	ecx, DWORD PTR $T12[ebp]
	mov	edx, DWORD PTR [ecx]
	mov	eax, DWORD PTR [ecx+4]
	mov	DWORD PTR $T5[ebp], edx
	mov	DWORD PTR $T5[ebp+4], eax
	lea	ecx, DWORD PTR $T5[ebp]
	mov	DWORD PTR tv93[ebp], ecx
$LN8@duration_c:
	mov	edx, DWORD PTR tv93[ebp]
	mov	DWORD PTR $T11[ebp], edx
	mov	eax, DWORD PTR $T11[ebp]
	mov	ecx, DWORD PTR [eax]
	mov	edx, DWORD PTR [eax+4]
	mov	eax, DWORD PTR ___$ReturnUdt$[ebp]
	mov	DWORD PTR [eax], ecx
	mov	DWORD PTR [eax+4], edx
	mov	eax, DWORD PTR ___$ReturnUdt$[ebp]
; Line 569
	mov	esp, ebp
	pop	ebp
	ret	0
??$duration_cast@V?$duration@_JU?$ratio@$00$00@std@@@chrono@std@@_JU?$ratio@$00$0DLJKMKAA@@3@@chrono@std@@YA?AV?$duration@_JU?$ratio@$00$00@std@@@01@ABV?$duration@_JU?$ratio@$00$0DLJKMKAA@@std@@@01@@Z ENDP ; std::chrono::duration_cast<std::chrono::duration<__int64,std::ratio<1,1> >,__int64,std::ratio<1,1000000000> >
_TEXT	ENDS
; Function compile flags: /Odtp
;	COMDAT ??$duration_cast@V?$duration@_JU?$ratio@$00$0DLJKMKAA@@std@@@chrono@std@@_JU?$ratio@$00$00@3@@chrono@std@@YA?AV?$duration@_JU?$ratio@$00$0DLJKMKAA@@std@@@01@ABV?$duration@_JU?$ratio@$00$00@std@@@01@@Z
_TEXT	SEGMENT
$T1 = -104						; size = 8
$T2 = -96						; size = 8
$T3 = -88						; size = 8
$T4 = -80						; size = 8
$T5 = -72						; size = 8
$T6 = -64						; size = 8
$T7 = -56						; size = 8
$T8 = -48						; size = 8
$T9 = -40						; size = 8
$T10 = -32						; size = 8
$T11 = -24						; size = 4
$T12 = -20						; size = 4
$T13 = -16						; size = 4
tv93 = -12						; size = 4
tv90 = -8						; size = 4
tv87 = -4						; size = 4
___$ReturnUdt$ = 8					; size = 4
__Dur$ = 12						; size = 4
??$duration_cast@V?$duration@_JU?$ratio@$00$0DLJKMKAA@@std@@@chrono@std@@_JU?$ratio@$00$00@3@@chrono@std@@YA?AV?$duration@_JU?$ratio@$00$0DLJKMKAA@@std@@@01@ABV?$duration@_JU?$ratio@$00$00@std@@@01@@Z PROC ; std::chrono::duration_cast<std::chrono::duration<__int64,std::ratio<1,1000000000> >,__int64,std::ratio<1,1> >, COMDAT
; File c:\program files (x86)\microsoft visual studio 14.0\vc\include\chrono
; Line 551
	push	ebp
	mov	ebp, esp
	sub	esp, 104				; 00000068H
; Line 556
	xor	eax, eax
	je	SHORT $LN7@duration_c
	mov	ecx, DWORD PTR __Dur$[ebp]
	call	?count@?$duration@_JU?$ratio@$00$00@std@@@chrono@std@@QBE_JXZ ; std::chrono::duration<__int64,std::ratio<1,1> >::count
	mov	DWORD PTR $T10[ebp], eax
	mov	DWORD PTR $T10[ebp+4], edx
	lea	ecx, DWORD PTR $T10[ebp]
	push	ecx
	lea	ecx, DWORD PTR $T4[ebp]
	call	??$?0_JX@?$duration@_JU?$ratio@$00$0DLJKMKAA@@std@@@chrono@std@@QAE@AB_J@Z ; std::chrono::duration<__int64,std::ratio<1,1000000000> >::duration<__int64,std::ratio<1,1000000000> ><__int64,void>
	mov	DWORD PTR tv93[ebp], eax
	jmp	$LN8@duration_c
$LN7@duration_c:
	mov	edx, 1
	test	edx, edx
	je	SHORT $LN5@duration_c
	mov	ecx, DWORD PTR __Dur$[ebp]
	call	?count@?$duration@_JU?$ratio@$00$00@std@@@chrono@std@@QBE_JXZ ; std::chrono::duration<__int64,std::ratio<1,1> >::count
	push	0
	push	1000000000				; 3b9aca00H
	push	edx
	push	eax
	call	__allmul
	mov	DWORD PTR $T9[ebp], eax
	mov	DWORD PTR $T9[ebp+4], edx
	lea	eax, DWORD PTR $T9[ebp]
	push	eax
	lea	ecx, DWORD PTR $T3[ebp]
	call	??$?0_JX@?$duration@_JU?$ratio@$00$0DLJKMKAA@@std@@@chrono@std@@QAE@AB_J@Z ; std::chrono::duration<__int64,std::ratio<1,1000000000> >::duration<__int64,std::ratio<1,1000000000> ><__int64,void>
	mov	DWORD PTR tv90[ebp], eax
	jmp	SHORT $LN6@duration_c
$LN5@duration_c:
	xor	ecx, ecx
	je	SHORT $LN3@duration_c
	mov	ecx, DWORD PTR __Dur$[ebp]
	call	?count@?$duration@_JU?$ratio@$00$00@std@@@chrono@std@@QBE_JXZ ; std::chrono::duration<__int64,std::ratio<1,1> >::count
	mov	DWORD PTR $T8[ebp], eax
	mov	DWORD PTR $T8[ebp+4], edx
	lea	edx, DWORD PTR $T8[ebp]
	push	edx
	lea	ecx, DWORD PTR $T2[ebp]
	call	??$?0_JX@?$duration@_JU?$ratio@$00$0DLJKMKAA@@std@@@chrono@std@@QAE@AB_J@Z ; std::chrono::duration<__int64,std::ratio<1,1000000000> >::duration<__int64,std::ratio<1,1000000000> ><__int64,void>
	mov	DWORD PTR tv87[ebp], eax
	jmp	SHORT $LN4@duration_c
$LN3@duration_c:
	mov	ecx, DWORD PTR __Dur$[ebp]
	call	?count@?$duration@_JU?$ratio@$00$00@std@@@chrono@std@@QBE_JXZ ; std::chrono::duration<__int64,std::ratio<1,1> >::count
	push	0
	push	1000000000				; 3b9aca00H
	push	edx
	push	eax
	call	__allmul
	mov	DWORD PTR $T7[ebp], eax
	mov	DWORD PTR $T7[ebp+4], edx
	lea	eax, DWORD PTR $T7[ebp]
	push	eax
	lea	ecx, DWORD PTR $T1[ebp]
	call	??$?0_JX@?$duration@_JU?$ratio@$00$0DLJKMKAA@@std@@@chrono@std@@QAE@AB_J@Z ; std::chrono::duration<__int64,std::ratio<1,1000000000> >::duration<__int64,std::ratio<1,1000000000> ><__int64,void>
	mov	DWORD PTR tv87[ebp], eax
$LN4@duration_c:
	mov	ecx, DWORD PTR tv87[ebp]
	mov	DWORD PTR $T13[ebp], ecx
	mov	edx, DWORD PTR $T13[ebp]
	mov	eax, DWORD PTR [edx]
	mov	ecx, DWORD PTR [edx+4]
	mov	DWORD PTR $T6[ebp], eax
	mov	DWORD PTR $T6[ebp+4], ecx
	lea	edx, DWORD PTR $T6[ebp]
	mov	DWORD PTR tv90[ebp], edx
$LN6@duration_c:
	mov	eax, DWORD PTR tv90[ebp]
	mov	DWORD PTR $T12[ebp], eax
	mov	ecx, DWORD PTR $T12[ebp]
	mov	edx, DWORD PTR [ecx]
	mov	eax, DWORD PTR [ecx+4]
	mov	DWORD PTR $T5[ebp], edx
	mov	DWORD PTR $T5[ebp+4], eax
	lea	ecx, DWORD PTR $T5[ebp]
	mov	DWORD PTR tv93[ebp], ecx
$LN8@duration_c:
	mov	edx, DWORD PTR tv93[ebp]
	mov	DWORD PTR $T11[ebp], edx
	mov	eax, DWORD PTR $T11[ebp]
	mov	ecx, DWORD PTR [eax]
	mov	edx, DWORD PTR [eax+4]
	mov	eax, DWORD PTR ___$ReturnUdt$[ebp]
	mov	DWORD PTR [eax], ecx
	mov	DWORD PTR [eax+4], edx
	mov	eax, DWORD PTR ___$ReturnUdt$[ebp]
; Line 569
	mov	esp, ebp
	pop	ebp
	ret	0
??$duration_cast@V?$duration@_JU?$ratio@$00$0DLJKMKAA@@std@@@chrono@std@@_JU?$ratio@$00$00@3@@chrono@std@@YA?AV?$duration@_JU?$ratio@$00$0DLJKMKAA@@std@@@01@ABV?$duration@_JU?$ratio@$00$00@std@@@01@@Z ENDP ; std::chrono::duration_cast<std::chrono::duration<__int64,std::ratio<1,1000000000> >,__int64,std::ratio<1,1> >
_TEXT	ENDS
; Function compile flags: /Odtp
;	COMDAT ??$?0_JU?$ratio@$00$0JIJGIA@@std@@X@?$duration@_JU?$ratio@$00$0DLJKMKAA@@std@@@chrono@std@@QAE@ABV?$duration@_JU?$ratio@$00$0JIJGIA@@std@@@12@@Z
_TEXT	SEGMENT
$T1 = -12						; size = 8
_this$ = -4						; size = 4
__Dur$ = 8						; size = 4
??$?0_JU?$ratio@$00$0JIJGIA@@std@@X@?$duration@_JU?$ratio@$00$0DLJKMKAA@@std@@@chrono@std@@QAE@ABV?$duration@_JU?$ratio@$00$0JIJGIA@@std@@@12@@Z PROC ; std::chrono::duration<__int64,std::ratio<1,1000000000> >::duration<__int64,std::ratio<1,1000000000> ><__int64,std::ratio<1,10000000>,void>, COMDAT
; _this$ = ecx
; File c:\program files (x86)\microsoft visual studio 14.0\vc\include\chrono
; Line 130
	push	ebp
	mov	ebp, esp
	sub	esp, 12					; 0000000cH
	mov	DWORD PTR _this$[ebp], ecx
; Line 129
	mov	eax, DWORD PTR __Dur$[ebp]
	push	eax
	lea	ecx, DWORD PTR $T1[ebp]
	push	ecx
	call	??$duration_cast@V?$duration@_JU?$ratio@$00$0DLJKMKAA@@std@@@chrono@std@@_JU?$ratio@$00$0JIJGIA@@3@@chrono@std@@YA?AV?$duration@_JU?$ratio@$00$0DLJKMKAA@@std@@@01@ABV?$duration@_JU?$ratio@$00$0JIJGIA@@std@@@01@@Z ; std::chrono::duration_cast<std::chrono::duration<__int64,std::ratio<1,1000000000> >,__int64,std::ratio<1,10000000> >
	add	esp, 8
	mov	ecx, eax
	call	?count@?$duration@_JU?$ratio@$00$0DLJKMKAA@@std@@@chrono@std@@QBE_JXZ ; std::chrono::duration<__int64,std::ratio<1,1000000000> >::count
	mov	ecx, DWORD PTR _this$[ebp]
	mov	DWORD PTR [ecx], eax
	mov	DWORD PTR [ecx+4], edx
; Line 131
	mov	eax, DWORD PTR _this$[ebp]
	mov	esp, ebp
	pop	ebp
	ret	4
??$?0_JU?$ratio@$00$0JIJGIA@@std@@X@?$duration@_JU?$ratio@$00$0DLJKMKAA@@std@@@chrono@std@@QAE@ABV?$duration@_JU?$ratio@$00$0JIJGIA@@std@@@12@@Z ENDP ; std::chrono::duration<__int64,std::ratio<1,1000000000> >::duration<__int64,std::ratio<1,1000000000> ><__int64,std::ratio<1,10000000>,void>
_TEXT	ENDS
; Function compile flags: /Odtp
;	COMDAT ??$?N_JU?$ratio@$00$00@std@@_JU01@@chrono@std@@YA_NABV?$duration@_JU?$ratio@$00$00@std@@@01@0@Z
_TEXT	SEGMENT
tv69 = -4						; size = 4
__Left$ = 8						; size = 4
__Right$ = 12						; size = 4
??$?N_JU?$ratio@$00$00@std@@_JU01@@chrono@std@@YA_NABV?$duration@_JU?$ratio@$00$00@std@@@01@0@Z PROC ; std::chrono::operator<=<__int64,std::ratio<1,1>,__int64,std::ratio<1,1> >, COMDAT
; File c:\program files (x86)\microsoft visual studio 14.0\vc\include\chrono
; Line 519
	push	ebp
	mov	ebp, esp
	push	ecx
; Line 520
	mov	eax, DWORD PTR __Left$[ebp]
	push	eax
	mov	ecx, DWORD PTR __Right$[ebp]
	push	ecx
	call	??$?M_JU?$ratio@$00$00@std@@_JU01@@chrono@std@@YA_NABV?$duration@_JU?$ratio@$00$00@std@@@01@0@Z ; std::chrono::operator<<__int64,std::ratio<1,1>,__int64,std::ratio<1,1> >
	add	esp, 8
	movzx	edx, al
	test	edx, edx
	jne	SHORT $LN3@operator
	mov	DWORD PTR tv69[ebp], 1
	jmp	SHORT $LN4@operator
$LN3@operator:
	mov	DWORD PTR tv69[ebp], 0
$LN4@operator:
	mov	al, BYTE PTR tv69[ebp]
; Line 521
	mov	esp, ebp
	pop	ebp
	ret	0
??$?N_JU?$ratio@$00$00@std@@_JU01@@chrono@std@@YA_NABV?$duration@_JU?$ratio@$00$00@std@@@01@0@Z ENDP ; std::chrono::operator<=<__int64,std::ratio<1,1>,__int64,std::ratio<1,1> >
_TEXT	ENDS
; Function compile flags: /Odtp
;	COMDAT ??$_Launch@V?$unique_ptr@V?$tuple@P6APAXPAUBank@@H@ZPAU1@H@std@@U?$default_delete@V?$tuple@P6APAXPAUBank@@H@ZPAU1@H@std@@@2@@std@@@std@@YAXPAU_Thrd_imp_t@@$$QAV?$unique_ptr@V?$tuple@P6APAXPAUBank@@H@ZPAU1@H@std@@U?$default_delete@V?$tuple@P6APAXPAUBank@@H@ZPAU1@H@std@@@2@@0@@Z
_TEXT	SEGMENT
__Launcher$ = -20					; size = 20
__Thr$ = 8						; size = 4
__Tg$ = 12						; size = 4
??$_Launch@V?$unique_ptr@V?$tuple@P6APAXPAUBank@@H@ZPAU1@H@std@@U?$default_delete@V?$tuple@P6APAXPAUBank@@H@ZPAU1@H@std@@@2@@std@@@std@@YAXPAU_Thrd_imp_t@@$$QAV?$unique_ptr@V?$tuple@P6APAXPAUBank@@H@ZPAU1@H@std@@U?$default_delete@V?$tuple@P6APAXPAUBank@@H@ZPAU1@H@std@@@2@@0@@Z PROC ; std::_Launch<std::unique_ptr<std::tuple<void * (__cdecl*)(Bank *,int),Bank *,int>,std::default_delete<std::tuple<void * (__cdecl*)(Bank *,int),Bank *,int> > > >, COMDAT
; File c:\program files (x86)\microsoft visual studio 14.0\vc\include\thr\xthread
; Line 258
	push	ebp
	mov	ebp, esp
	sub	esp, 20					; 00000014H
; Line 259
	mov	eax, DWORD PTR __Tg$[ebp]
	push	eax
	call	??$forward@V?$unique_ptr@V?$tuple@P6APAXPAUBank@@H@ZPAU1@H@std@@U?$default_delete@V?$tuple@P6APAXPAUBank@@H@ZPAU1@H@std@@@2@@std@@@std@@YA$$QAV?$unique_ptr@V?$tuple@P6APAXPAUBank@@H@ZPAU1@H@std@@U?$default_delete@V?$tuple@P6APAXPAUBank@@H@ZPAU1@H@std@@@2@@0@AAV10@@Z ; std::forward<std::unique_ptr<std::tuple<void * (__cdecl*)(Bank *,int),Bank *,int>,std::default_delete<std::tuple<void * (__cdecl*)(Bank *,int),Bank *,int> > > >
	add	esp, 4
	push	eax
	lea	ecx, DWORD PTR __Launcher$[ebp]
	call	??$?0V?$unique_ptr@V?$tuple@P6APAXPAUBank@@H@ZPAU1@H@std@@U?$default_delete@V?$tuple@P6APAXPAUBank@@H@ZPAU1@H@std@@@2@@std@@@?$_LaunchPad@V?$unique_ptr@V?$tuple@P6APAXPAUBank@@H@ZPAU1@H@std@@U?$default_delete@V?$tuple@P6APAXPAUBank@@H@ZPAU1@H@std@@@2@@std@@@std@@QAE@$$QAV?$unique_ptr@V?$tuple@P6APAXPAUBank@@H@ZPAU1@H@std@@U?$default_delete@V?$tuple@P6APAXPAUBank@@H@ZPAU1@H@std@@@2@@1@@Z ; std::_LaunchPad<std::unique_ptr<std::tuple<void * (__cdecl*)(Bank *,int),Bank *,int>,std::default_delete<std::tuple<void * (__cdecl*)(Bank *,int),Bank *,int> > > >::_LaunchPad<std::unique_ptr<std::tuple<void * (__cdecl*)(Bank *,int),Bank *,int>,std::default_delete<std::tuple<void * (__cdecl*)(Bank *,int),Bank *,int> > > ><std::unique_ptr<std::tuple<void * (__cdecl*)(Bank *,int),Bank *,int>,std::default_delete<std::tuple<void * (__cdecl*)(Bank *,int),Bank *,int> > > >
; Line 260
	mov	ecx, DWORD PTR __Thr$[ebp]
	push	ecx
	lea	ecx, DWORD PTR __Launcher$[ebp]
	call	?_Launch@_Pad@std@@QAEXPAU_Thrd_imp_t@@@Z ; std::_Pad::_Launch
; Line 261
	lea	ecx, DWORD PTR __Launcher$[ebp]
	call	??1?$_LaunchPad@V?$unique_ptr@V?$tuple@P6APAXPAUBank@@H@ZPAU1@H@std@@U?$default_delete@V?$tuple@P6APAXPAUBank@@H@ZPAU1@H@std@@@2@@std@@@std@@QAE@XZ
	mov	esp, ebp
	pop	ebp
	ret	0
??$_Launch@V?$unique_ptr@V?$tuple@P6APAXPAUBank@@H@ZPAU1@H@std@@U?$default_delete@V?$tuple@P6APAXPAUBank@@H@ZPAU1@H@std@@@2@@std@@@std@@YAXPAU_Thrd_imp_t@@$$QAV?$unique_ptr@V?$tuple@P6APAXPAUBank@@H@ZPAU1@H@std@@U?$default_delete@V?$tuple@P6APAXPAUBank@@H@ZPAU1@H@std@@@2@@0@@Z ENDP ; std::_Launch<std::unique_ptr<std::tuple<void * (__cdecl*)(Bank *,int),Bank *,int>,std::default_delete<std::tuple<void * (__cdecl*)(Bank *,int),Bank *,int> > > >
_TEXT	ENDS
; Function compile flags: /Odtp
;	COMDAT ?release@?$unique_ptr@V?$tuple@P6APAXPAUBank@@H@ZPAU1@H@std@@U?$default_delete@V?$tuple@P6APAXPAUBank@@H@ZPAU1@H@std@@@2@@std@@QAEPAV?$tuple@P6APAXPAUBank@@H@ZPAU1@H@2@XZ
_TEXT	SEGMENT
__Ans$ = -8						; size = 4
_this$ = -4						; size = 4
?release@?$unique_ptr@V?$tuple@P6APAXPAUBank@@H@ZPAU1@H@std@@U?$default_delete@V?$tuple@P6APAXPAUBank@@H@ZPAU1@H@std@@@2@@std@@QAEPAV?$tuple@P6APAXPAUBank@@H@ZPAU1@H@2@XZ PROC ; std::unique_ptr<std::tuple<void * (__cdecl*)(Bank *,int),Bank *,int>,std::default_delete<std::tuple<void * (__cdecl*)(Bank *,int),Bank *,int> > >::release, COMDAT
; _this$ = ecx
; File c:\program files (x86)\microsoft visual studio 14.0\vc\include\memory
; Line 1421
	push	ebp
	mov	ebp, esp
	sub	esp, 8
	mov	DWORD PTR _this$[ebp], ecx
; Line 1422
	mov	ecx, DWORD PTR _this$[ebp]
	call	?get@?$unique_ptr@V?$tuple@P6APAXPAUBank@@H@ZPAU1@H@std@@U?$default_delete@V?$tuple@P6APAXPAUBank@@H@ZPAU1@H@std@@@2@@std@@QBEPAV?$tuple@P6APAXPAUBank@@H@ZPAU1@H@2@XZ ; std::unique_ptr<std::tuple<void * (__cdecl*)(Bank *,int),Bank *,int>,std::default_delete<std::tuple<void * (__cdecl*)(Bank *,int),Bank *,int> > >::get
	mov	DWORD PTR __Ans$[ebp], eax
; Line 1423
	mov	ecx, DWORD PTR _this$[ebp]
	call	?_Myptr@?$_Unique_ptr_base@V?$tuple@P6APAXPAUBank@@H@ZPAU1@H@std@@U?$default_delete@V?$tuple@P6APAXPAUBank@@H@ZPAU1@H@std@@@2@@std@@QAEAAPAV?$tuple@P6APAXPAUBank@@H@ZPAU1@H@2@XZ ; std::_Unique_ptr_base<std::tuple<void * (__cdecl*)(Bank *,int),Bank *,int>,std::default_delete<std::tuple<void * (__cdecl*)(Bank *,int),Bank *,int> > >::_Myptr
	mov	DWORD PTR [eax], 0
; Line 1424
	mov	eax, DWORD PTR __Ans$[ebp]
; Line 1425
	mov	esp, ebp
	pop	ebp
	ret	0
?release@?$unique_ptr@V?$tuple@P6APAXPAUBank@@H@ZPAU1@H@std@@U?$default_delete@V?$tuple@P6APAXPAUBank@@H@ZPAU1@H@std@@@2@@std@@QAEPAV?$tuple@P6APAXPAUBank@@H@ZPAU1@H@2@XZ ENDP ; std::unique_ptr<std::tuple<void * (__cdecl*)(Bank *,int),Bank *,int>,std::default_delete<std::tuple<void * (__cdecl*)(Bank *,int),Bank *,int> > >::release
_TEXT	ENDS
; Function compile flags: /Odtp
;	COMDAT ?get@?$unique_ptr@V?$tuple@P6APAXPAUBank@@H@ZPAU1@H@std@@U?$default_delete@V?$tuple@P6APAXPAUBank@@H@ZPAU1@H@std@@@2@@std@@QBEPAV?$tuple@P6APAXPAUBank@@H@ZPAU1@H@2@XZ
_TEXT	SEGMENT
_this$ = -4						; size = 4
?get@?$unique_ptr@V?$tuple@P6APAXPAUBank@@H@ZPAU1@H@std@@U?$default_delete@V?$tuple@P6APAXPAUBank@@H@ZPAU1@H@std@@@2@@std@@QBEPAV?$tuple@P6APAXPAUBank@@H@ZPAU1@H@2@XZ PROC ; std::unique_ptr<std::tuple<void * (__cdecl*)(Bank *,int),Bank *,int>,std::default_delete<std::tuple<void * (__cdecl*)(Bank *,int),Bank *,int> > >::get, COMDAT
; _this$ = ecx
; File c:\program files (x86)\microsoft visual studio 14.0\vc\include\memory
; Line 1411
	push	ebp
	mov	ebp, esp
	push	ecx
	mov	DWORD PTR _this$[ebp], ecx
; Line 1412
	mov	ecx, DWORD PTR _this$[ebp]
	call	?_Myptr@?$_Unique_ptr_base@V?$tuple@P6APAXPAUBank@@H@ZPAU1@H@std@@U?$default_delete@V?$tuple@P6APAXPAUBank@@H@ZPAU1@H@std@@@2@@std@@QBEABQAV?$tuple@P6APAXPAUBank@@H@ZPAU1@H@2@XZ ; std::_Unique_ptr_base<std::tuple<void * (__cdecl*)(Bank *,int),Bank *,int>,std::default_delete<std::tuple<void * (__cdecl*)(Bank *,int),Bank *,int> > >::_Myptr
	mov	eax, DWORD PTR [eax]
; Line 1413
	mov	esp, ebp
	pop	ebp
	ret	0
?get@?$unique_ptr@V?$tuple@P6APAXPAUBank@@H@ZPAU1@H@std@@U?$default_delete@V?$tuple@P6APAXPAUBank@@H@ZPAU1@H@std@@@2@@std@@QBEPAV?$tuple@P6APAXPAUBank@@H@ZPAU1@H@2@XZ ENDP ; std::unique_ptr<std::tuple<void * (__cdecl*)(Bank *,int),Bank *,int>,std::default_delete<std::tuple<void * (__cdecl*)(Bank *,int),Bank *,int> > >::get
_TEXT	ENDS
; Function compile flags: /Odtp
;	COMDAT ??D?$unique_ptr@V?$tuple@P6APAXPAUBank@@H@ZPAU1@H@std@@U?$default_delete@V?$tuple@P6APAXPAUBank@@H@ZPAU1@H@std@@@2@@std@@QBEAAV?$tuple@P6APAXPAUBank@@H@ZPAU1@H@1@XZ
_TEXT	SEGMENT
_this$ = -4						; size = 4
??D?$unique_ptr@V?$tuple@P6APAXPAUBank@@H@ZPAU1@H@std@@U?$default_delete@V?$tuple@P6APAXPAUBank@@H@ZPAU1@H@std@@@2@@std@@QBEAAV?$tuple@P6APAXPAUBank@@H@ZPAU1@H@1@XZ PROC ; std::unique_ptr<std::tuple<void * (__cdecl*)(Bank *,int),Bank *,int>,std::default_delete<std::tuple<void * (__cdecl*)(Bank *,int),Bank *,int> > >::operator*, COMDAT
; _this$ = ecx
; File c:\program files (x86)\microsoft visual studio 14.0\vc\include\memory
; Line 1401
	push	ebp
	mov	ebp, esp
	push	ecx
	mov	DWORD PTR _this$[ebp], ecx
; Line 1402
	mov	ecx, DWORD PTR _this$[ebp]
	call	?get@?$unique_ptr@V?$tuple@P6APAXPAUBank@@H@ZPAU1@H@std@@U?$default_delete@V?$tuple@P6APAXPAUBank@@H@ZPAU1@H@std@@@2@@std@@QBEPAV?$tuple@P6APAXPAUBank@@H@ZPAU1@H@2@XZ ; std::unique_ptr<std::tuple<void * (__cdecl*)(Bank *,int),Bank *,int>,std::default_delete<std::tuple<void * (__cdecl*)(Bank *,int),Bank *,int> > >::get
; Line 1403
	mov	esp, ebp
	pop	ebp
	ret	0
??D?$unique_ptr@V?$tuple@P6APAXPAUBank@@H@ZPAU1@H@std@@U?$default_delete@V?$tuple@P6APAXPAUBank@@H@ZPAU1@H@std@@@2@@std@@QBEAAV?$tuple@P6APAXPAUBank@@H@ZPAU1@H@1@XZ ENDP ; std::unique_ptr<std::tuple<void * (__cdecl*)(Bank *,int),Bank *,int>,std::default_delete<std::tuple<void * (__cdecl*)(Bank *,int),Bank *,int> > >::operator*
_TEXT	ENDS
; Function compile flags: /Odtp
;	COMDAT ??1?$unique_ptr@V?$tuple@P6APAXPAUBank@@H@ZPAU1@H@std@@U?$default_delete@V?$tuple@P6APAXPAUBank@@H@ZPAU1@H@std@@@2@@std@@QAE@XZ
_TEXT	SEGMENT
_this$ = -4						; size = 4
??1?$unique_ptr@V?$tuple@P6APAXPAUBank@@H@ZPAU1@H@std@@U?$default_delete@V?$tuple@P6APAXPAUBank@@H@ZPAU1@H@std@@@2@@std@@QAE@XZ PROC ; std::unique_ptr<std::tuple<void * (__cdecl*)(Bank *,int),Bank *,int>,std::default_delete<std::tuple<void * (__cdecl*)(Bank *,int),Bank *,int> > >::~unique_ptr<std::tuple<void * (__cdecl*)(Bank *,int),Bank *,int>,std::default_delete<std::tuple<void * (__cdecl*)(Bank *,int),Bank *,int> > >, COMDAT
; _this$ = ecx
; File c:\program files (x86)\microsoft visual studio 14.0\vc\include\memory
; Line 1395
	push	ebp
	mov	ebp, esp
	push	ecx
	mov	DWORD PTR _this$[ebp], ecx
; Line 1396
	mov	ecx, DWORD PTR _this$[ebp]
	call	?get@?$unique_ptr@V?$tuple@P6APAXPAUBank@@H@ZPAU1@H@std@@U?$default_delete@V?$tuple@P6APAXPAUBank@@H@ZPAU1@H@std@@@2@@std@@QBEPAV?$tuple@P6APAXPAUBank@@H@ZPAU1@H@2@XZ ; std::unique_ptr<std::tuple<void * (__cdecl*)(Bank *,int),Bank *,int>,std::default_delete<std::tuple<void * (__cdecl*)(Bank *,int),Bank *,int> > >::get
	test	eax, eax
	je	SHORT $LN1@unique_ptr
; Line 1397
	mov	ecx, DWORD PTR _this$[ebp]
	call	?get@?$unique_ptr@V?$tuple@P6APAXPAUBank@@H@ZPAU1@H@std@@U?$default_delete@V?$tuple@P6APAXPAUBank@@H@ZPAU1@H@std@@@2@@std@@QBEPAV?$tuple@P6APAXPAUBank@@H@ZPAU1@H@2@XZ ; std::unique_ptr<std::tuple<void * (__cdecl*)(Bank *,int),Bank *,int>,std::default_delete<std::tuple<void * (__cdecl*)(Bank *,int),Bank *,int> > >::get
	push	eax
	mov	ecx, DWORD PTR _this$[ebp]
	call	?get_deleter@?$_Unique_ptr_base@V?$tuple@P6APAXPAUBank@@H@ZPAU1@H@std@@U?$default_delete@V?$tuple@P6APAXPAUBank@@H@ZPAU1@H@std@@@2@@std@@QAEAAU?$default_delete@V?$tuple@P6APAXPAUBank@@H@ZPAU1@H@std@@@2@XZ ; std::_Unique_ptr_base<std::tuple<void * (__cdecl*)(Bank *,int),Bank *,int>,std::default_delete<std::tuple<void * (__cdecl*)(Bank *,int),Bank *,int> > >::get_deleter
	mov	ecx, eax
	call	??R?$default_delete@V?$tuple@P6APAXPAUBank@@H@ZPAU1@H@std@@@std@@QBEXPAV?$tuple@P6APAXPAUBank@@H@ZPAU1@H@1@@Z ; std::default_delete<std::tuple<void * (__cdecl*)(Bank *,int),Bank *,int> >::operator()
$LN1@unique_ptr:
; Line 1398
	mov	esp, ebp
	pop	ebp
	ret	0
??1?$unique_ptr@V?$tuple@P6APAXPAUBank@@H@ZPAU1@H@std@@U?$default_delete@V?$tuple@P6APAXPAUBank@@H@ZPAU1@H@std@@@2@@std@@QAE@XZ ENDP ; std::unique_ptr<std::tuple<void * (__cdecl*)(Bank *,int),Bank *,int>,std::default_delete<std::tuple<void * (__cdecl*)(Bank *,int),Bank *,int> > >::~unique_ptr<std::tuple<void * (__cdecl*)(Bank *,int),Bank *,int>,std::default_delete<std::tuple<void * (__cdecl*)(Bank *,int),Bank *,int> > >
_TEXT	ENDS
; Function compile flags: /Odtp
;	COMDAT ??0?$unique_ptr@V?$tuple@P6APAXPAUBank@@H@ZPAU1@H@std@@U?$default_delete@V?$tuple@P6APAXPAUBank@@H@ZPAU1@H@std@@@2@@std@@QAE@$$QAV01@@Z
_TEXT	SEGMENT
_this$ = -4						; size = 4
__Right$ = 8						; size = 4
??0?$unique_ptr@V?$tuple@P6APAXPAUBank@@H@ZPAU1@H@std@@U?$default_delete@V?$tuple@P6APAXPAUBank@@H@ZPAU1@H@std@@@2@@std@@QAE@$$QAV01@@Z PROC ; std::unique_ptr<std::tuple<void * (__cdecl*)(Bank *,int),Bank *,int>,std::default_delete<std::tuple<void * (__cdecl*)(Bank *,int),Bank *,int> > >::unique_ptr<std::tuple<void * (__cdecl*)(Bank *,int),Bank *,int>,std::default_delete<std::tuple<void * (__cdecl*)(Bank *,int),Bank *,int> > >, COMDAT
; _this$ = ecx
; File c:\program files (x86)\microsoft visual studio 14.0\vc\include\memory
; Line 1334
	push	ebp
	mov	ebp, esp
	push	ecx
	mov	DWORD PTR _this$[ebp], ecx
; Line 1332
	mov	ecx, DWORD PTR __Right$[ebp]
	call	?get_deleter@?$_Unique_ptr_base@V?$tuple@P6APAXPAUBank@@H@ZPAU1@H@std@@U?$default_delete@V?$tuple@P6APAXPAUBank@@H@ZPAU1@H@std@@@2@@std@@QAEAAU?$default_delete@V?$tuple@P6APAXPAUBank@@H@ZPAU1@H@std@@@2@XZ ; std::_Unique_ptr_base<std::tuple<void * (__cdecl*)(Bank *,int),Bank *,int>,std::default_delete<std::tuple<void * (__cdecl*)(Bank *,int),Bank *,int> > >::get_deleter
	push	eax
	call	??$forward@U?$default_delete@V?$tuple@P6APAXPAUBank@@H@ZPAU1@H@std@@@std@@@std@@YA$$QAU?$default_delete@V?$tuple@P6APAXPAUBank@@H@ZPAU1@H@std@@@0@AAU10@@Z ; std::forward<std::default_delete<std::tuple<void * (__cdecl*)(Bank *,int),Bank *,int> > >
	add	esp, 4
	push	eax
	mov	ecx, DWORD PTR __Right$[ebp]
	call	?release@?$unique_ptr@V?$tuple@P6APAXPAUBank@@H@ZPAU1@H@std@@U?$default_delete@V?$tuple@P6APAXPAUBank@@H@ZPAU1@H@std@@@2@@std@@QAEPAV?$tuple@P6APAXPAUBank@@H@ZPAU1@H@2@XZ ; std::unique_ptr<std::tuple<void * (__cdecl*)(Bank *,int),Bank *,int>,std::default_delete<std::tuple<void * (__cdecl*)(Bank *,int),Bank *,int> > >::release
	push	eax
	mov	ecx, DWORD PTR _this$[ebp]
	call	??$?0PAV?$tuple@P6APAXPAUBank@@H@ZPAU1@H@std@@U?$default_delete@V?$tuple@P6APAXPAUBank@@H@ZPAU1@H@std@@@1@@?$_Unique_ptr_base@V?$tuple@P6APAXPAUBank@@H@ZPAU1@H@std@@U?$default_delete@V?$tuple@P6APAXPAUBank@@H@ZPAU1@H@std@@@2@@std@@QAE@PAV?$tuple@P6APAXPAUBank@@H@ZPAU1@H@1@$$QAU?$default_delete@V?$tuple@P6APAXPAUBank@@H@ZPAU1@H@std@@@1@@Z ; std::_Unique_ptr_base<std::tuple<void * (__cdecl*)(Bank *,int),Bank *,int>,std::default_delete<std::tuple<void * (__cdecl*)(Bank *,int),Bank *,int> > >::_Unique_ptr_base<std::tuple<void * (__cdecl*)(Bank *,int),Bank *,int>,std::default_delete<std::tuple<void * (__cdecl*)(Bank *,int),Bank *,int> > ><std::tuple<void * (__cdecl*)(Bank *,int),Bank *,int> *,std::default_delete<std::tuple<void * (__cdecl*)(Bank *,int),Bank *,int> > >
; Line 1335
	mov	eax, DWORD PTR _this$[ebp]
	mov	esp, ebp
	pop	ebp
	ret	4
??0?$unique_ptr@V?$tuple@P6APAXPAUBank@@H@ZPAU1@H@std@@U?$default_delete@V?$tuple@P6APAXPAUBank@@H@ZPAU1@H@std@@@2@@std@@QAE@$$QAV01@@Z ENDP ; std::unique_ptr<std::tuple<void * (__cdecl*)(Bank *,int),Bank *,int>,std::default_delete<std::tuple<void * (__cdecl*)(Bank *,int),Bank *,int> > >::unique_ptr<std::tuple<void * (__cdecl*)(Bank *,int),Bank *,int>,std::default_delete<std::tuple<void * (__cdecl*)(Bank *,int),Bank *,int> > >
_TEXT	ENDS
; Function compile flags: /Odtp
;	COMDAT ??0?$unique_ptr@V?$tuple@P6APAXPAUBank@@H@ZPAU1@H@std@@U?$default_delete@V?$tuple@P6APAXPAUBank@@H@ZPAU1@H@std@@@2@@std@@QAE@PAV?$tuple@P6APAXPAUBank@@H@ZPAU1@H@1@@Z
_TEXT	SEGMENT
_this$ = -4						; size = 4
__Ptr$ = 8						; size = 4
??0?$unique_ptr@V?$tuple@P6APAXPAUBank@@H@ZPAU1@H@std@@U?$default_delete@V?$tuple@P6APAXPAUBank@@H@ZPAU1@H@std@@@2@@std@@QAE@PAV?$tuple@P6APAXPAUBank@@H@ZPAU1@H@1@@Z PROC ; std::unique_ptr<std::tuple<void * (__cdecl*)(Bank *,int),Bank *,int>,std::default_delete<std::tuple<void * (__cdecl*)(Bank *,int),Bank *,int> > >::unique_ptr<std::tuple<void * (__cdecl*)(Bank *,int),Bank *,int>,std::default_delete<std::tuple<void * (__cdecl*)(Bank *,int),Bank *,int> > >, COMDAT
; _this$ = ecx
; File c:\program files (x86)\microsoft visual studio 14.0\vc\include\memory
; Line 1311
	push	ebp
	mov	ebp, esp
	push	ecx
	mov	DWORD PTR _this$[ebp], ecx
; Line 1310
	mov	eax, DWORD PTR __Ptr$[ebp]
	push	eax
	mov	ecx, DWORD PTR _this$[ebp]
	call	??$?0PAV?$tuple@P6APAXPAUBank@@H@ZPAU1@H@std@@@?$_Unique_ptr_base@V?$tuple@P6APAXPAUBank@@H@ZPAU1@H@std@@U?$default_delete@V?$tuple@P6APAXPAUBank@@H@ZPAU1@H@std@@@2@@std@@QAE@PAV?$tuple@P6APAXPAUBank@@H@ZPAU1@H@1@@Z ; std::_Unique_ptr_base<std::tuple<void * (__cdecl*)(Bank *,int),Bank *,int>,std::default_delete<std::tuple<void * (__cdecl*)(Bank *,int),Bank *,int> > >::_Unique_ptr_base<std::tuple<void * (__cdecl*)(Bank *,int),Bank *,int>,std::default_delete<std::tuple<void * (__cdecl*)(Bank *,int),Bank *,int> > ><std::tuple<void * (__cdecl*)(Bank *,int),Bank *,int> *>
; Line 1314
	mov	eax, DWORD PTR _this$[ebp]
	mov	esp, ebp
	pop	ebp
	ret	4
??0?$unique_ptr@V?$tuple@P6APAXPAUBank@@H@ZPAU1@H@std@@U?$default_delete@V?$tuple@P6APAXPAUBank@@H@ZPAU1@H@std@@@2@@std@@QAE@PAV?$tuple@P6APAXPAUBank@@H@ZPAU1@H@1@@Z ENDP ; std::unique_ptr<std::tuple<void * (__cdecl*)(Bank *,int),Bank *,int>,std::default_delete<std::tuple<void * (__cdecl*)(Bank *,int),Bank *,int> > >::unique_ptr<std::tuple<void * (__cdecl*)(Bank *,int),Bank *,int>,std::default_delete<std::tuple<void * (__cdecl*)(Bank *,int),Bank *,int> > >
_TEXT	ENDS
; Function compile flags: /Odtp
;	COMDAT ?_Get_second@?$_Compressed_pair@U?$default_delete@V?$tuple@P6APAXPAUBank@@H@ZPAU1@H@std@@@std@@PAV?$tuple@P6APAXPAUBank@@H@ZPAU1@H@2@$00@std@@QBEABQAV?$tuple@P6APAXPAUBank@@H@ZPAU1@H@2@XZ
_TEXT	SEGMENT
_this$ = -4						; size = 4
?_Get_second@?$_Compressed_pair@U?$default_delete@V?$tuple@P6APAXPAUBank@@H@ZPAU1@H@std@@@std@@PAV?$tuple@P6APAXPAUBank@@H@ZPAU1@H@2@$00@std@@QBEABQAV?$tuple@P6APAXPAUBank@@H@ZPAU1@H@2@XZ PROC ; std::_Compressed_pair<std::default_delete<std::tuple<void * (__cdecl*)(Bank *,int),Bank *,int> >,std::tuple<void * (__cdecl*)(Bank *,int),Bank *,int> *,1>::_Get_second, COMDAT
; _this$ = ecx
; File c:\program files (x86)\microsoft visual studio 14.0\vc\include\xutility
; Line 319
	push	ebp
	mov	ebp, esp
	push	ecx
	mov	DWORD PTR _this$[ebp], ecx
; Line 320
	mov	eax, DWORD PTR _this$[ebp]
; Line 321
	mov	esp, ebp
	pop	ebp
	ret	0
?_Get_second@?$_Compressed_pair@U?$default_delete@V?$tuple@P6APAXPAUBank@@H@ZPAU1@H@std@@@std@@PAV?$tuple@P6APAXPAUBank@@H@ZPAU1@H@2@$00@std@@QBEABQAV?$tuple@P6APAXPAUBank@@H@ZPAU1@H@2@XZ ENDP ; std::_Compressed_pair<std::default_delete<std::tuple<void * (__cdecl*)(Bank *,int),Bank *,int> >,std::tuple<void * (__cdecl*)(Bank *,int),Bank *,int> *,1>::_Get_second
_TEXT	ENDS
; Function compile flags: /Odtp
;	COMDAT ?_Get_second@?$_Compressed_pair@U?$default_delete@V?$tuple@P6APAXPAUBank@@H@ZPAU1@H@std@@@std@@PAV?$tuple@P6APAXPAUBank@@H@ZPAU1@H@2@$00@std@@QAEAAPAV?$tuple@P6APAXPAUBank@@H@ZPAU1@H@2@XZ
_TEXT	SEGMENT
_this$ = -4						; size = 4
?_Get_second@?$_Compressed_pair@U?$default_delete@V?$tuple@P6APAXPAUBank@@H@ZPAU1@H@std@@@std@@PAV?$tuple@P6APAXPAUBank@@H@ZPAU1@H@2@$00@std@@QAEAAPAV?$tuple@P6APAXPAUBank@@H@ZPAU1@H@2@XZ PROC ; std::_Compressed_pair<std::default_delete<std::tuple<void * (__cdecl*)(Bank *,int),Bank *,int> >,std::tuple<void * (__cdecl*)(Bank *,int),Bank *,int> *,1>::_Get_second, COMDAT
; _this$ = ecx
; File c:\program files (x86)\microsoft visual studio 14.0\vc\include\xutility
; Line 314
	push	ebp
	mov	ebp, esp
	push	ecx
	mov	DWORD PTR _this$[ebp], ecx
; Line 315
	mov	eax, DWORD PTR _this$[ebp]
; Line 316
	mov	esp, ebp
	pop	ebp
	ret	0
?_Get_second@?$_Compressed_pair@U?$default_delete@V?$tuple@P6APAXPAUBank@@H@ZPAU1@H@std@@@std@@PAV?$tuple@P6APAXPAUBank@@H@ZPAU1@H@2@$00@std@@QAEAAPAV?$tuple@P6APAXPAUBank@@H@ZPAU1@H@2@XZ ENDP ; std::_Compressed_pair<std::default_delete<std::tuple<void * (__cdecl*)(Bank *,int),Bank *,int> >,std::tuple<void * (__cdecl*)(Bank *,int),Bank *,int> *,1>::_Get_second
_TEXT	ENDS
; Function compile flags: /Odtp
;	COMDAT ?_Get_first@?$_Compressed_pair@U?$default_delete@V?$tuple@P6APAXPAUBank@@H@ZPAU1@H@std@@@std@@PAV?$tuple@P6APAXPAUBank@@H@ZPAU1@H@2@$00@std@@QAEAAU?$default_delete@V?$tuple@P6APAXPAUBank@@H@ZPAU1@H@std@@@2@XZ
_TEXT	SEGMENT
_this$ = -4						; size = 4
?_Get_first@?$_Compressed_pair@U?$default_delete@V?$tuple@P6APAXPAUBank@@H@ZPAU1@H@std@@@std@@PAV?$tuple@P6APAXPAUBank@@H@ZPAU1@H@2@$00@std@@QAEAAU?$default_delete@V?$tuple@P6APAXPAUBank@@H@ZPAU1@H@std@@@2@XZ PROC ; std::_Compressed_pair<std::default_delete<std::tuple<void * (__cdecl*)(Bank *,int),Bank *,int> >,std::tuple<void * (__cdecl*)(Bank *,int),Bank *,int> *,1>::_Get_first, COMDAT
; _this$ = ecx
; File c:\program files (x86)\microsoft visual studio 14.0\vc\include\xutility
; Line 294
	push	ebp
	mov	ebp, esp
	push	ecx
	mov	DWORD PTR _this$[ebp], ecx
; Line 295
	mov	eax, DWORD PTR _this$[ebp]
; Line 296
	mov	esp, ebp
	pop	ebp
	ret	0
?_Get_first@?$_Compressed_pair@U?$default_delete@V?$tuple@P6APAXPAUBank@@H@ZPAU1@H@std@@@std@@PAV?$tuple@P6APAXPAUBank@@H@ZPAU1@H@2@$00@std@@QAEAAU?$default_delete@V?$tuple@P6APAXPAUBank@@H@ZPAU1@H@std@@@2@XZ ENDP ; std::_Compressed_pair<std::default_delete<std::tuple<void * (__cdecl*)(Bank *,int),Bank *,int> >,std::tuple<void * (__cdecl*)(Bank *,int),Bank *,int> *,1>::_Get_first
_TEXT	ENDS
; Function compile flags: /Odtp
;	COMDAT ?_Myptr@?$_Unique_ptr_base@V?$tuple@P6APAXPAUBank@@H@ZPAU1@H@std@@U?$default_delete@V?$tuple@P6APAXPAUBank@@H@ZPAU1@H@std@@@2@@std@@QBEABQAV?$tuple@P6APAXPAUBank@@H@ZPAU1@H@2@XZ
_TEXT	SEGMENT
_this$ = -4						; size = 4
?_Myptr@?$_Unique_ptr_base@V?$tuple@P6APAXPAUBank@@H@ZPAU1@H@std@@U?$default_delete@V?$tuple@P6APAXPAUBank@@H@ZPAU1@H@std@@@2@@std@@QBEABQAV?$tuple@P6APAXPAUBank@@H@ZPAU1@H@2@XZ PROC ; std::_Unique_ptr_base<std::tuple<void * (__cdecl*)(Bank *,int),Bank *,int>,std::default_delete<std::tuple<void * (__cdecl*)(Bank *,int),Bank *,int> > >::_Myptr, COMDAT
; _this$ = ecx
; File c:\program files (x86)\microsoft visual studio 14.0\vc\include\memory
; Line 1267
	push	ebp
	mov	ebp, esp
	push	ecx
	mov	DWORD PTR _this$[ebp], ecx
; Line 1268
	mov	ecx, DWORD PTR _this$[ebp]
	call	?_Get_second@?$_Compressed_pair@U?$default_delete@V?$tuple@P6APAXPAUBank@@H@ZPAU1@H@std@@@std@@PAV?$tuple@P6APAXPAUBank@@H@ZPAU1@H@2@$00@std@@QBEABQAV?$tuple@P6APAXPAUBank@@H@ZPAU1@H@2@XZ ; std::_Compressed_pair<std::default_delete<std::tuple<void * (__cdecl*)(Bank *,int),Bank *,int> >,std::tuple<void * (__cdecl*)(Bank *,int),Bank *,int> *,1>::_Get_second
; Line 1269
	mov	esp, ebp
	pop	ebp
	ret	0
?_Myptr@?$_Unique_ptr_base@V?$tuple@P6APAXPAUBank@@H@ZPAU1@H@std@@U?$default_delete@V?$tuple@P6APAXPAUBank@@H@ZPAU1@H@std@@@2@@std@@QBEABQAV?$tuple@P6APAXPAUBank@@H@ZPAU1@H@2@XZ ENDP ; std::_Unique_ptr_base<std::tuple<void * (__cdecl*)(Bank *,int),Bank *,int>,std::default_delete<std::tuple<void * (__cdecl*)(Bank *,int),Bank *,int> > >::_Myptr
_TEXT	ENDS
; Function compile flags: /Odtp
;	COMDAT ?_Myptr@?$_Unique_ptr_base@V?$tuple@P6APAXPAUBank@@H@ZPAU1@H@std@@U?$default_delete@V?$tuple@P6APAXPAUBank@@H@ZPAU1@H@std@@@2@@std@@QAEAAPAV?$tuple@P6APAXPAUBank@@H@ZPAU1@H@2@XZ
_TEXT	SEGMENT
_this$ = -4						; size = 4
?_Myptr@?$_Unique_ptr_base@V?$tuple@P6APAXPAUBank@@H@ZPAU1@H@std@@U?$default_delete@V?$tuple@P6APAXPAUBank@@H@ZPAU1@H@std@@@2@@std@@QAEAAPAV?$tuple@P6APAXPAUBank@@H@ZPAU1@H@2@XZ PROC ; std::_Unique_ptr_base<std::tuple<void * (__cdecl*)(Bank *,int),Bank *,int>,std::default_delete<std::tuple<void * (__cdecl*)(Bank *,int),Bank *,int> > >::_Myptr, COMDAT
; _this$ = ecx
; File c:\program files (x86)\microsoft visual studio 14.0\vc\include\memory
; Line 1262
	push	ebp
	mov	ebp, esp
	push	ecx
	mov	DWORD PTR _this$[ebp], ecx
; Line 1263
	mov	ecx, DWORD PTR _this$[ebp]
	call	?_Get_second@?$_Compressed_pair@U?$default_delete@V?$tuple@P6APAXPAUBank@@H@ZPAU1@H@std@@@std@@PAV?$tuple@P6APAXPAUBank@@H@ZPAU1@H@2@$00@std@@QAEAAPAV?$tuple@P6APAXPAUBank@@H@ZPAU1@H@2@XZ ; std::_Compressed_pair<std::default_delete<std::tuple<void * (__cdecl*)(Bank *,int),Bank *,int> >,std::tuple<void * (__cdecl*)(Bank *,int),Bank *,int> *,1>::_Get_second
; Line 1264
	mov	esp, ebp
	pop	ebp
	ret	0
?_Myptr@?$_Unique_ptr_base@V?$tuple@P6APAXPAUBank@@H@ZPAU1@H@std@@U?$default_delete@V?$tuple@P6APAXPAUBank@@H@ZPAU1@H@std@@@2@@std@@QAEAAPAV?$tuple@P6APAXPAUBank@@H@ZPAU1@H@2@XZ ENDP ; std::_Unique_ptr_base<std::tuple<void * (__cdecl*)(Bank *,int),Bank *,int>,std::default_delete<std::tuple<void * (__cdecl*)(Bank *,int),Bank *,int> > >::_Myptr
_TEXT	ENDS
; Function compile flags: /Odtp
;	COMDAT ?get_deleter@?$_Unique_ptr_base@V?$tuple@P6APAXPAUBank@@H@ZPAU1@H@std@@U?$default_delete@V?$tuple@P6APAXPAUBank@@H@ZPAU1@H@std@@@2@@std@@QAEAAU?$default_delete@V?$tuple@P6APAXPAUBank@@H@ZPAU1@H@std@@@2@XZ
_TEXT	SEGMENT
_this$ = -4						; size = 4
?get_deleter@?$_Unique_ptr_base@V?$tuple@P6APAXPAUBank@@H@ZPAU1@H@std@@U?$default_delete@V?$tuple@P6APAXPAUBank@@H@ZPAU1@H@std@@@2@@std@@QAEAAU?$default_delete@V?$tuple@P6APAXPAUBank@@H@ZPAU1@H@std@@@2@XZ PROC ; std::_Unique_ptr_base<std::tuple<void * (__cdecl*)(Bank *,int),Bank *,int>,std::default_delete<std::tuple<void * (__cdecl*)(Bank *,int),Bank *,int> > >::get_deleter, COMDAT
; _this$ = ecx
; File c:\program files (x86)\microsoft visual studio 14.0\vc\include\memory
; Line 1252
	push	ebp
	mov	ebp, esp
	push	ecx
	mov	DWORD PTR _this$[ebp], ecx
; Line 1253
	mov	ecx, DWORD PTR _this$[ebp]
	call	?_Get_first@?$_Compressed_pair@U?$default_delete@V?$tuple@P6APAXPAUBank@@H@ZPAU1@H@std@@@std@@PAV?$tuple@P6APAXPAUBank@@H@ZPAU1@H@2@$00@std@@QAEAAU?$default_delete@V?$tuple@P6APAXPAUBank@@H@ZPAU1@H@std@@@2@XZ ; std::_Compressed_pair<std::default_delete<std::tuple<void * (__cdecl*)(Bank *,int),Bank *,int> >,std::tuple<void * (__cdecl*)(Bank *,int),Bank *,int> *,1>::_Get_first
; Line 1254
	mov	esp, ebp
	pop	ebp
	ret	0
?get_deleter@?$_Unique_ptr_base@V?$tuple@P6APAXPAUBank@@H@ZPAU1@H@std@@U?$default_delete@V?$tuple@P6APAXPAUBank@@H@ZPAU1@H@std@@@2@@std@@QAEAAU?$default_delete@V?$tuple@P6APAXPAUBank@@H@ZPAU1@H@std@@@2@XZ ENDP ; std::_Unique_ptr_base<std::tuple<void * (__cdecl*)(Bank *,int),Bank *,int>,std::default_delete<std::tuple<void * (__cdecl*)(Bank *,int),Bank *,int> > >::get_deleter
_TEXT	ENDS
; Function compile flags: /Odtp
;	COMDAT ??R?$default_delete@V?$tuple@P6APAXPAUBank@@H@ZPAU1@H@std@@@std@@QBEXPAV?$tuple@P6APAXPAUBank@@H@ZPAU1@H@1@@Z
_TEXT	SEGMENT
_this$ = -8						; size = 4
$T1 = -4						; size = 4
__Ptr$ = 8						; size = 4
??R?$default_delete@V?$tuple@P6APAXPAUBank@@H@ZPAU1@H@std@@@std@@QBEXPAV?$tuple@P6APAXPAUBank@@H@ZPAU1@H@1@@Z PROC ; std::default_delete<std::tuple<void * (__cdecl*)(Bank *,int),Bank *,int> >::operator(), COMDAT
; _this$ = ecx
; File c:\program files (x86)\microsoft visual studio 14.0\vc\include\memory
; Line 1192
	push	ebp
	mov	ebp, esp
	sub	esp, 8
	mov	DWORD PTR _this$[ebp], ecx
; Line 1195
	mov	eax, DWORD PTR __Ptr$[ebp]
	mov	DWORD PTR $T1[ebp], eax
	push	12					; 0000000cH
	mov	ecx, DWORD PTR $T1[ebp]
	push	ecx
	call	??3@YAXPAXI@Z				; operator delete
	add	esp, 8
; Line 1196
	mov	esp, ebp
	pop	ebp
	ret	4
??R?$default_delete@V?$tuple@P6APAXPAUBank@@H@ZPAU1@H@std@@@std@@QBEXPAV?$tuple@P6APAXPAUBank@@H@ZPAU1@H@1@@Z ENDP ; std::default_delete<std::tuple<void * (__cdecl*)(Bank *,int),Bank *,int> >::operator()
_TEXT	ENDS
; Function compile flags: /Odtp
;	COMDAT ??$make_unique@V?$tuple@P6APAXPAUBank@@H@ZPAU1@H@std@@A6APAXPAUBank@@H@ZAAPAU3@AAH@std@@YA?AV?$unique_ptr@V?$tuple@P6APAXPAUBank@@H@ZPAU1@H@std@@U?$default_delete@V?$tuple@P6APAXPAUBank@@H@ZPAU1@H@std@@@2@@0@A6APAXPAUBank@@H@ZAAPAU2@AAH@Z
_TEXT	SEGMENT
tv83 = -8						; size = 4
$T1 = -4						; size = 4
___$ReturnUdt$ = 8					; size = 4
_<_Args_0>$ = 12					; size = 4
_<_Args_1>$ = 16					; size = 4
_<_Args_2>$ = 20					; size = 4
??$make_unique@V?$tuple@P6APAXPAUBank@@H@ZPAU1@H@std@@A6APAXPAUBank@@H@ZAAPAU3@AAH@std@@YA?AV?$unique_ptr@V?$tuple@P6APAXPAUBank@@H@ZPAU1@H@std@@U?$default_delete@V?$tuple@P6APAXPAUBank@@H@ZPAU1@H@std@@@2@@0@A6APAXPAUBank@@H@ZAAPAU2@AAH@Z PROC ; std::make_unique<std::tuple<void * (__cdecl*)(Bank *,int),Bank *,int>,void * (__cdecl&)(Bank *,int),Bank * &,int &>, COMDAT
; File c:\program files (x86)\microsoft visual studio 14.0\vc\include\memory
; Line 1629
	push	ebp
	mov	ebp, esp
	sub	esp, 8
; Line 1630
	push	12					; 0000000cH
	call	??2@YAPAXI@Z				; operator new
	add	esp, 4
	mov	DWORD PTR $T1[ebp], eax
	cmp	DWORD PTR $T1[ebp], 0
	je	SHORT $LN3@make_uniqu
	mov	eax, DWORD PTR _<_Args_2>$[ebp]
	push	eax
	call	??$forward@AAH@std@@YAAAHAAH@Z		; std::forward<int &>
	add	esp, 4
	push	eax
	mov	ecx, DWORD PTR _<_Args_1>$[ebp]
	push	ecx
	call	??$forward@AAPAUBank@@@std@@YAAAPAUBank@@AAPAU1@@Z ; std::forward<Bank * &>
	add	esp, 4
	push	eax
	mov	edx, DWORD PTR _<_Args_0>$[ebp]
	push	edx
	call	??$forward@A6APAXPAUBank@@H@Z@std@@YAA6APAXPAUBank@@H@ZA6APAX0H@Z@Z ; std::forward<void * (__cdecl&)(Bank *,int)>
	add	esp, 4
	push	eax
	mov	ecx, DWORD PTR $T1[ebp]
	call	??$?0A6APAXPAUBank@@H@ZAAPAU0@AAH$0A@@?$tuple@P6APAXPAUBank@@H@ZPAU1@H@std@@QAE@A6APAXPAUBank@@H@ZAAPAU2@AAH@Z ; std::tuple<void * (__cdecl*)(Bank *,int),Bank *,int>::tuple<void * (__cdecl*)(Bank *,int),Bank *,int><void * (__cdecl&)(Bank *,int),Bank * &,int &,0>
	mov	DWORD PTR tv83[ebp], eax
	jmp	SHORT $LN4@make_uniqu
$LN3@make_uniqu:
	mov	DWORD PTR tv83[ebp], 0
$LN4@make_uniqu:
	mov	eax, DWORD PTR tv83[ebp]
	push	eax
	mov	ecx, DWORD PTR ___$ReturnUdt$[ebp]
	call	??0?$unique_ptr@V?$tuple@P6APAXPAUBank@@H@ZPAU1@H@std@@U?$default_delete@V?$tuple@P6APAXPAUBank@@H@ZPAU1@H@std@@@2@@std@@QAE@PAV?$tuple@P6APAXPAUBank@@H@ZPAU1@H@1@@Z ; std::unique_ptr<std::tuple<void * (__cdecl*)(Bank *,int),Bank *,int>,std::default_delete<std::tuple<void * (__cdecl*)(Bank *,int),Bank *,int> > >::unique_ptr<std::tuple<void * (__cdecl*)(Bank *,int),Bank *,int>,std::default_delete<std::tuple<void * (__cdecl*)(Bank *,int),Bank *,int> > >
	mov	eax, DWORD PTR ___$ReturnUdt$[ebp]
; Line 1631
	mov	esp, ebp
	pop	ebp
	ret	0
??$make_unique@V?$tuple@P6APAXPAUBank@@H@ZPAU1@H@std@@A6APAXPAUBank@@H@ZAAPAU3@AAH@std@@YA?AV?$unique_ptr@V?$tuple@P6APAXPAUBank@@H@ZPAU1@H@std@@U?$default_delete@V?$tuple@P6APAXPAUBank@@H@ZPAU1@H@std@@@2@@0@A6APAXPAUBank@@H@ZAAPAU2@AAH@Z ENDP ; std::make_unique<std::tuple<void * (__cdecl*)(Bank *,int),Bank *,int>,void * (__cdecl&)(Bank *,int),Bank * &,int &>
_TEXT	ENDS
; Function compile flags: /Odtp
;	COMDAT ??$forward@AAH@std@@YAAAHAAH@Z
_TEXT	SEGMENT
__Arg$ = 8						; size = 4
??$forward@AAH@std@@YAAAHAAH@Z PROC			; std::forward<int &>, COMDAT
; File c:\program files (x86)\microsoft visual studio 14.0\vc\include\type_traits
; Line 1275
	push	ebp
	mov	ebp, esp
; Line 1276
	mov	eax, DWORD PTR __Arg$[ebp]
; Line 1277
	pop	ebp
	ret	0
??$forward@AAH@std@@YAAAHAAH@Z ENDP			; std::forward<int &>
_TEXT	ENDS
; Function compile flags: /Odtp
;	COMDAT ??$forward@AAPAUBank@@@std@@YAAAPAUBank@@AAPAU1@@Z
_TEXT	SEGMENT
__Arg$ = 8						; size = 4
??$forward@AAPAUBank@@@std@@YAAAPAUBank@@AAPAU1@@Z PROC	; std::forward<Bank * &>, COMDAT
; File c:\program files (x86)\microsoft visual studio 14.0\vc\include\type_traits
; Line 1275
	push	ebp
	mov	ebp, esp
; Line 1276
	mov	eax, DWORD PTR __Arg$[ebp]
; Line 1277
	pop	ebp
	ret	0
??$forward@AAPAUBank@@@std@@YAAAPAUBank@@AAPAU1@@Z ENDP	; std::forward<Bank * &>
_TEXT	ENDS
; Function compile flags: /Odtp
;	COMDAT ??$forward@A6APAXPAUBank@@H@Z@std@@YAA6APAXPAUBank@@H@ZA6APAX0H@Z@Z
_TEXT	SEGMENT
__Arg$ = 8						; size = 4
??$forward@A6APAXPAUBank@@H@Z@std@@YAA6APAXPAUBank@@H@ZA6APAX0H@Z@Z PROC ; std::forward<void * (__cdecl&)(Bank *,int)>, COMDAT
; File c:\program files (x86)\microsoft visual studio 14.0\vc\include\type_traits
; Line 1275
	push	ebp
	mov	ebp, esp
; Line 1276
	mov	eax, DWORD PTR __Arg$[ebp]
; Line 1277
	pop	ebp
	ret	0
??$forward@A6APAXPAUBank@@H@Z@std@@YAA6APAXPAUBank@@H@ZA6APAX0H@Z@Z ENDP ; std::forward<void * (__cdecl&)(Bank *,int)>
_TEXT	ENDS
; Function compile flags: /Odtp
;	COMDAT ??$_Launch@V?$unique_ptr@V?$tuple@P6APAXXZ@std@@U?$default_delete@V?$tuple@P6APAXXZ@std@@@2@@std@@@std@@YAXPAU_Thrd_imp_t@@$$QAV?$unique_ptr@V?$tuple@P6APAXXZ@std@@U?$default_delete@V?$tuple@P6APAXXZ@std@@@2@@0@@Z
_TEXT	SEGMENT
__Launcher$ = -20					; size = 20
__Thr$ = 8						; size = 4
__Tg$ = 12						; size = 4
??$_Launch@V?$unique_ptr@V?$tuple@P6APAXXZ@std@@U?$default_delete@V?$tuple@P6APAXXZ@std@@@2@@std@@@std@@YAXPAU_Thrd_imp_t@@$$QAV?$unique_ptr@V?$tuple@P6APAXXZ@std@@U?$default_delete@V?$tuple@P6APAXXZ@std@@@2@@0@@Z PROC ; std::_Launch<std::unique_ptr<std::tuple<void * (__cdecl*)(void)>,std::default_delete<std::tuple<void * (__cdecl*)(void)> > > >, COMDAT
; File c:\program files (x86)\microsoft visual studio 14.0\vc\include\thr\xthread
; Line 258
	push	ebp
	mov	ebp, esp
	sub	esp, 20					; 00000014H
; Line 259
	mov	eax, DWORD PTR __Tg$[ebp]
	push	eax
	call	??$forward@V?$unique_ptr@V?$tuple@P6APAXXZ@std@@U?$default_delete@V?$tuple@P6APAXXZ@std@@@2@@std@@@std@@YA$$QAV?$unique_ptr@V?$tuple@P6APAXXZ@std@@U?$default_delete@V?$tuple@P6APAXXZ@std@@@2@@0@AAV10@@Z ; std::forward<std::unique_ptr<std::tuple<void * (__cdecl*)(void)>,std::default_delete<std::tuple<void * (__cdecl*)(void)> > > >
	add	esp, 4
	push	eax
	lea	ecx, DWORD PTR __Launcher$[ebp]
	call	??$?0V?$unique_ptr@V?$tuple@P6APAXXZ@std@@U?$default_delete@V?$tuple@P6APAXXZ@std@@@2@@std@@@?$_LaunchPad@V?$unique_ptr@V?$tuple@P6APAXXZ@std@@U?$default_delete@V?$tuple@P6APAXXZ@std@@@2@@std@@@std@@QAE@$$QAV?$unique_ptr@V?$tuple@P6APAXXZ@std@@U?$default_delete@V?$tuple@P6APAXXZ@std@@@2@@1@@Z ; std::_LaunchPad<std::unique_ptr<std::tuple<void * (__cdecl*)(void)>,std::default_delete<std::tuple<void * (__cdecl*)(void)> > > >::_LaunchPad<std::unique_ptr<std::tuple<void * (__cdecl*)(void)>,std::default_delete<std::tuple<void * (__cdecl*)(void)> > > ><std::unique_ptr<std::tuple<void * (__cdecl*)(void)>,std::default_delete<std::tuple<void * (__cdecl*)(void)> > > >
; Line 260
	mov	ecx, DWORD PTR __Thr$[ebp]
	push	ecx
	lea	ecx, DWORD PTR __Launcher$[ebp]
	call	?_Launch@_Pad@std@@QAEXPAU_Thrd_imp_t@@@Z ; std::_Pad::_Launch
; Line 261
	lea	ecx, DWORD PTR __Launcher$[ebp]
	call	??1?$_LaunchPad@V?$unique_ptr@V?$tuple@P6APAXXZ@std@@U?$default_delete@V?$tuple@P6APAXXZ@std@@@2@@std@@@std@@QAE@XZ
	mov	esp, ebp
	pop	ebp
	ret	0
??$_Launch@V?$unique_ptr@V?$tuple@P6APAXXZ@std@@U?$default_delete@V?$tuple@P6APAXXZ@std@@@2@@std@@@std@@YAXPAU_Thrd_imp_t@@$$QAV?$unique_ptr@V?$tuple@P6APAXXZ@std@@U?$default_delete@V?$tuple@P6APAXXZ@std@@@2@@0@@Z ENDP ; std::_Launch<std::unique_ptr<std::tuple<void * (__cdecl*)(void)>,std::default_delete<std::tuple<void * (__cdecl*)(void)> > > >
_TEXT	ENDS
; Function compile flags: /Odtp
;	COMDAT ?release@?$unique_ptr@V?$tuple@P6APAXXZ@std@@U?$default_delete@V?$tuple@P6APAXXZ@std@@@2@@std@@QAEPAV?$tuple@P6APAXXZ@2@XZ
_TEXT	SEGMENT
__Ans$ = -8						; size = 4
_this$ = -4						; size = 4
?release@?$unique_ptr@V?$tuple@P6APAXXZ@std@@U?$default_delete@V?$tuple@P6APAXXZ@std@@@2@@std@@QAEPAV?$tuple@P6APAXXZ@2@XZ PROC ; std::unique_ptr<std::tuple<void * (__cdecl*)(void)>,std::default_delete<std::tuple<void * (__cdecl*)(void)> > >::release, COMDAT
; _this$ = ecx
; File c:\program files (x86)\microsoft visual studio 14.0\vc\include\memory
; Line 1421
	push	ebp
	mov	ebp, esp
	sub	esp, 8
	mov	DWORD PTR _this$[ebp], ecx
; Line 1422
	mov	ecx, DWORD PTR _this$[ebp]
	call	?get@?$unique_ptr@V?$tuple@P6APAXXZ@std@@U?$default_delete@V?$tuple@P6APAXXZ@std@@@2@@std@@QBEPAV?$tuple@P6APAXXZ@2@XZ ; std::unique_ptr<std::tuple<void * (__cdecl*)(void)>,std::default_delete<std::tuple<void * (__cdecl*)(void)> > >::get
	mov	DWORD PTR __Ans$[ebp], eax
; Line 1423
	mov	ecx, DWORD PTR _this$[ebp]
	call	?_Myptr@?$_Unique_ptr_base@V?$tuple@P6APAXXZ@std@@U?$default_delete@V?$tuple@P6APAXXZ@std@@@2@@std@@QAEAAPAV?$tuple@P6APAXXZ@2@XZ ; std::_Unique_ptr_base<std::tuple<void * (__cdecl*)(void)>,std::default_delete<std::tuple<void * (__cdecl*)(void)> > >::_Myptr
	mov	DWORD PTR [eax], 0
; Line 1424
	mov	eax, DWORD PTR __Ans$[ebp]
; Line 1425
	mov	esp, ebp
	pop	ebp
	ret	0
?release@?$unique_ptr@V?$tuple@P6APAXXZ@std@@U?$default_delete@V?$tuple@P6APAXXZ@std@@@2@@std@@QAEPAV?$tuple@P6APAXXZ@2@XZ ENDP ; std::unique_ptr<std::tuple<void * (__cdecl*)(void)>,std::default_delete<std::tuple<void * (__cdecl*)(void)> > >::release
_TEXT	ENDS
; Function compile flags: /Odtp
;	COMDAT ?get@?$unique_ptr@V?$tuple@P6APAXXZ@std@@U?$default_delete@V?$tuple@P6APAXXZ@std@@@2@@std@@QBEPAV?$tuple@P6APAXXZ@2@XZ
_TEXT	SEGMENT
_this$ = -4						; size = 4
?get@?$unique_ptr@V?$tuple@P6APAXXZ@std@@U?$default_delete@V?$tuple@P6APAXXZ@std@@@2@@std@@QBEPAV?$tuple@P6APAXXZ@2@XZ PROC ; std::unique_ptr<std::tuple<void * (__cdecl*)(void)>,std::default_delete<std::tuple<void * (__cdecl*)(void)> > >::get, COMDAT
; _this$ = ecx
; File c:\program files (x86)\microsoft visual studio 14.0\vc\include\memory
; Line 1411
	push	ebp
	mov	ebp, esp
	push	ecx
	mov	DWORD PTR _this$[ebp], ecx
; Line 1412
	mov	ecx, DWORD PTR _this$[ebp]
	call	?_Myptr@?$_Unique_ptr_base@V?$tuple@P6APAXXZ@std@@U?$default_delete@V?$tuple@P6APAXXZ@std@@@2@@std@@QBEABQAV?$tuple@P6APAXXZ@2@XZ ; std::_Unique_ptr_base<std::tuple<void * (__cdecl*)(void)>,std::default_delete<std::tuple<void * (__cdecl*)(void)> > >::_Myptr
	mov	eax, DWORD PTR [eax]
; Line 1413
	mov	esp, ebp
	pop	ebp
	ret	0
?get@?$unique_ptr@V?$tuple@P6APAXXZ@std@@U?$default_delete@V?$tuple@P6APAXXZ@std@@@2@@std@@QBEPAV?$tuple@P6APAXXZ@2@XZ ENDP ; std::unique_ptr<std::tuple<void * (__cdecl*)(void)>,std::default_delete<std::tuple<void * (__cdecl*)(void)> > >::get
_TEXT	ENDS
; Function compile flags: /Odtp
;	COMDAT ??D?$unique_ptr@V?$tuple@P6APAXXZ@std@@U?$default_delete@V?$tuple@P6APAXXZ@std@@@2@@std@@QBEAAV?$tuple@P6APAXXZ@1@XZ
_TEXT	SEGMENT
_this$ = -4						; size = 4
??D?$unique_ptr@V?$tuple@P6APAXXZ@std@@U?$default_delete@V?$tuple@P6APAXXZ@std@@@2@@std@@QBEAAV?$tuple@P6APAXXZ@1@XZ PROC ; std::unique_ptr<std::tuple<void * (__cdecl*)(void)>,std::default_delete<std::tuple<void * (__cdecl*)(void)> > >::operator*, COMDAT
; _this$ = ecx
; File c:\program files (x86)\microsoft visual studio 14.0\vc\include\memory
; Line 1401
	push	ebp
	mov	ebp, esp
	push	ecx
	mov	DWORD PTR _this$[ebp], ecx
; Line 1402
	mov	ecx, DWORD PTR _this$[ebp]
	call	?get@?$unique_ptr@V?$tuple@P6APAXXZ@std@@U?$default_delete@V?$tuple@P6APAXXZ@std@@@2@@std@@QBEPAV?$tuple@P6APAXXZ@2@XZ ; std::unique_ptr<std::tuple<void * (__cdecl*)(void)>,std::default_delete<std::tuple<void * (__cdecl*)(void)> > >::get
; Line 1403
	mov	esp, ebp
	pop	ebp
	ret	0
??D?$unique_ptr@V?$tuple@P6APAXXZ@std@@U?$default_delete@V?$tuple@P6APAXXZ@std@@@2@@std@@QBEAAV?$tuple@P6APAXXZ@1@XZ ENDP ; std::unique_ptr<std::tuple<void * (__cdecl*)(void)>,std::default_delete<std::tuple<void * (__cdecl*)(void)> > >::operator*
_TEXT	ENDS
; Function compile flags: /Odtp
;	COMDAT ??1?$unique_ptr@V?$tuple@P6APAXXZ@std@@U?$default_delete@V?$tuple@P6APAXXZ@std@@@2@@std@@QAE@XZ
_TEXT	SEGMENT
_this$ = -4						; size = 4
??1?$unique_ptr@V?$tuple@P6APAXXZ@std@@U?$default_delete@V?$tuple@P6APAXXZ@std@@@2@@std@@QAE@XZ PROC ; std::unique_ptr<std::tuple<void * (__cdecl*)(void)>,std::default_delete<std::tuple<void * (__cdecl*)(void)> > >::~unique_ptr<std::tuple<void * (__cdecl*)(void)>,std::default_delete<std::tuple<void * (__cdecl*)(void)> > >, COMDAT
; _this$ = ecx
; File c:\program files (x86)\microsoft visual studio 14.0\vc\include\memory
; Line 1395
	push	ebp
	mov	ebp, esp
	push	ecx
	mov	DWORD PTR _this$[ebp], ecx
; Line 1396
	mov	ecx, DWORD PTR _this$[ebp]
	call	?get@?$unique_ptr@V?$tuple@P6APAXXZ@std@@U?$default_delete@V?$tuple@P6APAXXZ@std@@@2@@std@@QBEPAV?$tuple@P6APAXXZ@2@XZ ; std::unique_ptr<std::tuple<void * (__cdecl*)(void)>,std::default_delete<std::tuple<void * (__cdecl*)(void)> > >::get
	test	eax, eax
	je	SHORT $LN1@unique_ptr
; Line 1397
	mov	ecx, DWORD PTR _this$[ebp]
	call	?get@?$unique_ptr@V?$tuple@P6APAXXZ@std@@U?$default_delete@V?$tuple@P6APAXXZ@std@@@2@@std@@QBEPAV?$tuple@P6APAXXZ@2@XZ ; std::unique_ptr<std::tuple<void * (__cdecl*)(void)>,std::default_delete<std::tuple<void * (__cdecl*)(void)> > >::get
	push	eax
	mov	ecx, DWORD PTR _this$[ebp]
	call	?get_deleter@?$_Unique_ptr_base@V?$tuple@P6APAXXZ@std@@U?$default_delete@V?$tuple@P6APAXXZ@std@@@2@@std@@QAEAAU?$default_delete@V?$tuple@P6APAXXZ@std@@@2@XZ ; std::_Unique_ptr_base<std::tuple<void * (__cdecl*)(void)>,std::default_delete<std::tuple<void * (__cdecl*)(void)> > >::get_deleter
	mov	ecx, eax
	call	??R?$default_delete@V?$tuple@P6APAXXZ@std@@@std@@QBEXPAV?$tuple@P6APAXXZ@1@@Z ; std::default_delete<std::tuple<void * (__cdecl*)(void)> >::operator()
$LN1@unique_ptr:
; Line 1398
	mov	esp, ebp
	pop	ebp
	ret	0
??1?$unique_ptr@V?$tuple@P6APAXXZ@std@@U?$default_delete@V?$tuple@P6APAXXZ@std@@@2@@std@@QAE@XZ ENDP ; std::unique_ptr<std::tuple<void * (__cdecl*)(void)>,std::default_delete<std::tuple<void * (__cdecl*)(void)> > >::~unique_ptr<std::tuple<void * (__cdecl*)(void)>,std::default_delete<std::tuple<void * (__cdecl*)(void)> > >
_TEXT	ENDS
; Function compile flags: /Odtp
;	COMDAT ??0?$unique_ptr@V?$tuple@P6APAXXZ@std@@U?$default_delete@V?$tuple@P6APAXXZ@std@@@2@@std@@QAE@$$QAV01@@Z
_TEXT	SEGMENT
_this$ = -4						; size = 4
__Right$ = 8						; size = 4
??0?$unique_ptr@V?$tuple@P6APAXXZ@std@@U?$default_delete@V?$tuple@P6APAXXZ@std@@@2@@std@@QAE@$$QAV01@@Z PROC ; std::unique_ptr<std::tuple<void * (__cdecl*)(void)>,std::default_delete<std::tuple<void * (__cdecl*)(void)> > >::unique_ptr<std::tuple<void * (__cdecl*)(void)>,std::default_delete<std::tuple<void * (__cdecl*)(void)> > >, COMDAT
; _this$ = ecx
; File c:\program files (x86)\microsoft visual studio 14.0\vc\include\memory
; Line 1334
	push	ebp
	mov	ebp, esp
	push	ecx
	mov	DWORD PTR _this$[ebp], ecx
; Line 1332
	mov	ecx, DWORD PTR __Right$[ebp]
	call	?get_deleter@?$_Unique_ptr_base@V?$tuple@P6APAXXZ@std@@U?$default_delete@V?$tuple@P6APAXXZ@std@@@2@@std@@QAEAAU?$default_delete@V?$tuple@P6APAXXZ@std@@@2@XZ ; std::_Unique_ptr_base<std::tuple<void * (__cdecl*)(void)>,std::default_delete<std::tuple<void * (__cdecl*)(void)> > >::get_deleter
	push	eax
	call	??$forward@U?$default_delete@V?$tuple@P6APAXXZ@std@@@std@@@std@@YA$$QAU?$default_delete@V?$tuple@P6APAXXZ@std@@@0@AAU10@@Z ; std::forward<std::default_delete<std::tuple<void * (__cdecl*)(void)> > >
	add	esp, 4
	push	eax
	mov	ecx, DWORD PTR __Right$[ebp]
	call	?release@?$unique_ptr@V?$tuple@P6APAXXZ@std@@U?$default_delete@V?$tuple@P6APAXXZ@std@@@2@@std@@QAEPAV?$tuple@P6APAXXZ@2@XZ ; std::unique_ptr<std::tuple<void * (__cdecl*)(void)>,std::default_delete<std::tuple<void * (__cdecl*)(void)> > >::release
	push	eax
	mov	ecx, DWORD PTR _this$[ebp]
	call	??$?0PAV?$tuple@P6APAXXZ@std@@U?$default_delete@V?$tuple@P6APAXXZ@std@@@1@@?$_Unique_ptr_base@V?$tuple@P6APAXXZ@std@@U?$default_delete@V?$tuple@P6APAXXZ@std@@@2@@std@@QAE@PAV?$tuple@P6APAXXZ@1@$$QAU?$default_delete@V?$tuple@P6APAXXZ@std@@@1@@Z ; std::_Unique_ptr_base<std::tuple<void * (__cdecl*)(void)>,std::default_delete<std::tuple<void * (__cdecl*)(void)> > >::_Unique_ptr_base<std::tuple<void * (__cdecl*)(void)>,std::default_delete<std::tuple<void * (__cdecl*)(void)> > ><std::tuple<void * (__cdecl*)(void)> *,std::default_delete<std::tuple<void * (__cdecl*)(void)> > >
; Line 1335
	mov	eax, DWORD PTR _this$[ebp]
	mov	esp, ebp
	pop	ebp
	ret	4
??0?$unique_ptr@V?$tuple@P6APAXXZ@std@@U?$default_delete@V?$tuple@P6APAXXZ@std@@@2@@std@@QAE@$$QAV01@@Z ENDP ; std::unique_ptr<std::tuple<void * (__cdecl*)(void)>,std::default_delete<std::tuple<void * (__cdecl*)(void)> > >::unique_ptr<std::tuple<void * (__cdecl*)(void)>,std::default_delete<std::tuple<void * (__cdecl*)(void)> > >
_TEXT	ENDS
; Function compile flags: /Odtp
;	COMDAT ??0?$unique_ptr@V?$tuple@P6APAXXZ@std@@U?$default_delete@V?$tuple@P6APAXXZ@std@@@2@@std@@QAE@PAV?$tuple@P6APAXXZ@1@@Z
_TEXT	SEGMENT
_this$ = -4						; size = 4
__Ptr$ = 8						; size = 4
??0?$unique_ptr@V?$tuple@P6APAXXZ@std@@U?$default_delete@V?$tuple@P6APAXXZ@std@@@2@@std@@QAE@PAV?$tuple@P6APAXXZ@1@@Z PROC ; std::unique_ptr<std::tuple<void * (__cdecl*)(void)>,std::default_delete<std::tuple<void * (__cdecl*)(void)> > >::unique_ptr<std::tuple<void * (__cdecl*)(void)>,std::default_delete<std::tuple<void * (__cdecl*)(void)> > >, COMDAT
; _this$ = ecx
; File c:\program files (x86)\microsoft visual studio 14.0\vc\include\memory
; Line 1311
	push	ebp
	mov	ebp, esp
	push	ecx
	mov	DWORD PTR _this$[ebp], ecx
; Line 1310
	mov	eax, DWORD PTR __Ptr$[ebp]
	push	eax
	mov	ecx, DWORD PTR _this$[ebp]
	call	??$?0PAV?$tuple@P6APAXXZ@std@@@?$_Unique_ptr_base@V?$tuple@P6APAXXZ@std@@U?$default_delete@V?$tuple@P6APAXXZ@std@@@2@@std@@QAE@PAV?$tuple@P6APAXXZ@1@@Z ; std::_Unique_ptr_base<std::tuple<void * (__cdecl*)(void)>,std::default_delete<std::tuple<void * (__cdecl*)(void)> > >::_Unique_ptr_base<std::tuple<void * (__cdecl*)(void)>,std::default_delete<std::tuple<void * (__cdecl*)(void)> > ><std::tuple<void * (__cdecl*)(void)> *>
; Line 1314
	mov	eax, DWORD PTR _this$[ebp]
	mov	esp, ebp
	pop	ebp
	ret	4
??0?$unique_ptr@V?$tuple@P6APAXXZ@std@@U?$default_delete@V?$tuple@P6APAXXZ@std@@@2@@std@@QAE@PAV?$tuple@P6APAXXZ@1@@Z ENDP ; std::unique_ptr<std::tuple<void * (__cdecl*)(void)>,std::default_delete<std::tuple<void * (__cdecl*)(void)> > >::unique_ptr<std::tuple<void * (__cdecl*)(void)>,std::default_delete<std::tuple<void * (__cdecl*)(void)> > >
_TEXT	ENDS
; Function compile flags: /Odtp
;	COMDAT ?_Get_second@?$_Compressed_pair@U?$default_delete@V?$tuple@P6APAXXZ@std@@@std@@PAV?$tuple@P6APAXXZ@2@$00@std@@QBEABQAV?$tuple@P6APAXXZ@2@XZ
_TEXT	SEGMENT
_this$ = -4						; size = 4
?_Get_second@?$_Compressed_pair@U?$default_delete@V?$tuple@P6APAXXZ@std@@@std@@PAV?$tuple@P6APAXXZ@2@$00@std@@QBEABQAV?$tuple@P6APAXXZ@2@XZ PROC ; std::_Compressed_pair<std::default_delete<std::tuple<void * (__cdecl*)(void)> >,std::tuple<void * (__cdecl*)(void)> *,1>::_Get_second, COMDAT
; _this$ = ecx
; File c:\program files (x86)\microsoft visual studio 14.0\vc\include\xutility
; Line 319
	push	ebp
	mov	ebp, esp
	push	ecx
	mov	DWORD PTR _this$[ebp], ecx
; Line 320
	mov	eax, DWORD PTR _this$[ebp]
; Line 321
	mov	esp, ebp
	pop	ebp
	ret	0
?_Get_second@?$_Compressed_pair@U?$default_delete@V?$tuple@P6APAXXZ@std@@@std@@PAV?$tuple@P6APAXXZ@2@$00@std@@QBEABQAV?$tuple@P6APAXXZ@2@XZ ENDP ; std::_Compressed_pair<std::default_delete<std::tuple<void * (__cdecl*)(void)> >,std::tuple<void * (__cdecl*)(void)> *,1>::_Get_second
_TEXT	ENDS
; Function compile flags: /Odtp
;	COMDAT ?_Get_second@?$_Compressed_pair@U?$default_delete@V?$tuple@P6APAXXZ@std@@@std@@PAV?$tuple@P6APAXXZ@2@$00@std@@QAEAAPAV?$tuple@P6APAXXZ@2@XZ
_TEXT	SEGMENT
_this$ = -4						; size = 4
?_Get_second@?$_Compressed_pair@U?$default_delete@V?$tuple@P6APAXXZ@std@@@std@@PAV?$tuple@P6APAXXZ@2@$00@std@@QAEAAPAV?$tuple@P6APAXXZ@2@XZ PROC ; std::_Compressed_pair<std::default_delete<std::tuple<void * (__cdecl*)(void)> >,std::tuple<void * (__cdecl*)(void)> *,1>::_Get_second, COMDAT
; _this$ = ecx
; File c:\program files (x86)\microsoft visual studio 14.0\vc\include\xutility
; Line 314
	push	ebp
	mov	ebp, esp
	push	ecx
	mov	DWORD PTR _this$[ebp], ecx
; Line 315
	mov	eax, DWORD PTR _this$[ebp]
; Line 316
	mov	esp, ebp
	pop	ebp
	ret	0
?_Get_second@?$_Compressed_pair@U?$default_delete@V?$tuple@P6APAXXZ@std@@@std@@PAV?$tuple@P6APAXXZ@2@$00@std@@QAEAAPAV?$tuple@P6APAXXZ@2@XZ ENDP ; std::_Compressed_pair<std::default_delete<std::tuple<void * (__cdecl*)(void)> >,std::tuple<void * (__cdecl*)(void)> *,1>::_Get_second
_TEXT	ENDS
; Function compile flags: /Odtp
;	COMDAT ?_Get_first@?$_Compressed_pair@U?$default_delete@V?$tuple@P6APAXXZ@std@@@std@@PAV?$tuple@P6APAXXZ@2@$00@std@@QAEAAU?$default_delete@V?$tuple@P6APAXXZ@std@@@2@XZ
_TEXT	SEGMENT
_this$ = -4						; size = 4
?_Get_first@?$_Compressed_pair@U?$default_delete@V?$tuple@P6APAXXZ@std@@@std@@PAV?$tuple@P6APAXXZ@2@$00@std@@QAEAAU?$default_delete@V?$tuple@P6APAXXZ@std@@@2@XZ PROC ; std::_Compressed_pair<std::default_delete<std::tuple<void * (__cdecl*)(void)> >,std::tuple<void * (__cdecl*)(void)> *,1>::_Get_first, COMDAT
; _this$ = ecx
; File c:\program files (x86)\microsoft visual studio 14.0\vc\include\xutility
; Line 294
	push	ebp
	mov	ebp, esp
	push	ecx
	mov	DWORD PTR _this$[ebp], ecx
; Line 295
	mov	eax, DWORD PTR _this$[ebp]
; Line 296
	mov	esp, ebp
	pop	ebp
	ret	0
?_Get_first@?$_Compressed_pair@U?$default_delete@V?$tuple@P6APAXXZ@std@@@std@@PAV?$tuple@P6APAXXZ@2@$00@std@@QAEAAU?$default_delete@V?$tuple@P6APAXXZ@std@@@2@XZ ENDP ; std::_Compressed_pair<std::default_delete<std::tuple<void * (__cdecl*)(void)> >,std::tuple<void * (__cdecl*)(void)> *,1>::_Get_first
_TEXT	ENDS
; Function compile flags: /Odtp
;	COMDAT ?_Myptr@?$_Unique_ptr_base@V?$tuple@P6APAXXZ@std@@U?$default_delete@V?$tuple@P6APAXXZ@std@@@2@@std@@QBEABQAV?$tuple@P6APAXXZ@2@XZ
_TEXT	SEGMENT
_this$ = -4						; size = 4
?_Myptr@?$_Unique_ptr_base@V?$tuple@P6APAXXZ@std@@U?$default_delete@V?$tuple@P6APAXXZ@std@@@2@@std@@QBEABQAV?$tuple@P6APAXXZ@2@XZ PROC ; std::_Unique_ptr_base<std::tuple<void * (__cdecl*)(void)>,std::default_delete<std::tuple<void * (__cdecl*)(void)> > >::_Myptr, COMDAT
; _this$ = ecx
; File c:\program files (x86)\microsoft visual studio 14.0\vc\include\memory
; Line 1267
	push	ebp
	mov	ebp, esp
	push	ecx
	mov	DWORD PTR _this$[ebp], ecx
; Line 1268
	mov	ecx, DWORD PTR _this$[ebp]
	call	?_Get_second@?$_Compressed_pair@U?$default_delete@V?$tuple@P6APAXXZ@std@@@std@@PAV?$tuple@P6APAXXZ@2@$00@std@@QBEABQAV?$tuple@P6APAXXZ@2@XZ ; std::_Compressed_pair<std::default_delete<std::tuple<void * (__cdecl*)(void)> >,std::tuple<void * (__cdecl*)(void)> *,1>::_Get_second
; Line 1269
	mov	esp, ebp
	pop	ebp
	ret	0
?_Myptr@?$_Unique_ptr_base@V?$tuple@P6APAXXZ@std@@U?$default_delete@V?$tuple@P6APAXXZ@std@@@2@@std@@QBEABQAV?$tuple@P6APAXXZ@2@XZ ENDP ; std::_Unique_ptr_base<std::tuple<void * (__cdecl*)(void)>,std::default_delete<std::tuple<void * (__cdecl*)(void)> > >::_Myptr
_TEXT	ENDS
; Function compile flags: /Odtp
;	COMDAT ?_Myptr@?$_Unique_ptr_base@V?$tuple@P6APAXXZ@std@@U?$default_delete@V?$tuple@P6APAXXZ@std@@@2@@std@@QAEAAPAV?$tuple@P6APAXXZ@2@XZ
_TEXT	SEGMENT
_this$ = -4						; size = 4
?_Myptr@?$_Unique_ptr_base@V?$tuple@P6APAXXZ@std@@U?$default_delete@V?$tuple@P6APAXXZ@std@@@2@@std@@QAEAAPAV?$tuple@P6APAXXZ@2@XZ PROC ; std::_Unique_ptr_base<std::tuple<void * (__cdecl*)(void)>,std::default_delete<std::tuple<void * (__cdecl*)(void)> > >::_Myptr, COMDAT
; _this$ = ecx
; File c:\program files (x86)\microsoft visual studio 14.0\vc\include\memory
; Line 1262
	push	ebp
	mov	ebp, esp
	push	ecx
	mov	DWORD PTR _this$[ebp], ecx
; Line 1263
	mov	ecx, DWORD PTR _this$[ebp]
	call	?_Get_second@?$_Compressed_pair@U?$default_delete@V?$tuple@P6APAXXZ@std@@@std@@PAV?$tuple@P6APAXXZ@2@$00@std@@QAEAAPAV?$tuple@P6APAXXZ@2@XZ ; std::_Compressed_pair<std::default_delete<std::tuple<void * (__cdecl*)(void)> >,std::tuple<void * (__cdecl*)(void)> *,1>::_Get_second
; Line 1264
	mov	esp, ebp
	pop	ebp
	ret	0
?_Myptr@?$_Unique_ptr_base@V?$tuple@P6APAXXZ@std@@U?$default_delete@V?$tuple@P6APAXXZ@std@@@2@@std@@QAEAAPAV?$tuple@P6APAXXZ@2@XZ ENDP ; std::_Unique_ptr_base<std::tuple<void * (__cdecl*)(void)>,std::default_delete<std::tuple<void * (__cdecl*)(void)> > >::_Myptr
_TEXT	ENDS
; Function compile flags: /Odtp
;	COMDAT ?get_deleter@?$_Unique_ptr_base@V?$tuple@P6APAXXZ@std@@U?$default_delete@V?$tuple@P6APAXXZ@std@@@2@@std@@QAEAAU?$default_delete@V?$tuple@P6APAXXZ@std@@@2@XZ
_TEXT	SEGMENT
_this$ = -4						; size = 4
?get_deleter@?$_Unique_ptr_base@V?$tuple@P6APAXXZ@std@@U?$default_delete@V?$tuple@P6APAXXZ@std@@@2@@std@@QAEAAU?$default_delete@V?$tuple@P6APAXXZ@std@@@2@XZ PROC ; std::_Unique_ptr_base<std::tuple<void * (__cdecl*)(void)>,std::default_delete<std::tuple<void * (__cdecl*)(void)> > >::get_deleter, COMDAT
; _this$ = ecx
; File c:\program files (x86)\microsoft visual studio 14.0\vc\include\memory
; Line 1252
	push	ebp
	mov	ebp, esp
	push	ecx
	mov	DWORD PTR _this$[ebp], ecx
; Line 1253
	mov	ecx, DWORD PTR _this$[ebp]
	call	?_Get_first@?$_Compressed_pair@U?$default_delete@V?$tuple@P6APAXXZ@std@@@std@@PAV?$tuple@P6APAXXZ@2@$00@std@@QAEAAU?$default_delete@V?$tuple@P6APAXXZ@std@@@2@XZ ; std::_Compressed_pair<std::default_delete<std::tuple<void * (__cdecl*)(void)> >,std::tuple<void * (__cdecl*)(void)> *,1>::_Get_first
; Line 1254
	mov	esp, ebp
	pop	ebp
	ret	0
?get_deleter@?$_Unique_ptr_base@V?$tuple@P6APAXXZ@std@@U?$default_delete@V?$tuple@P6APAXXZ@std@@@2@@std@@QAEAAU?$default_delete@V?$tuple@P6APAXXZ@std@@@2@XZ ENDP ; std::_Unique_ptr_base<std::tuple<void * (__cdecl*)(void)>,std::default_delete<std::tuple<void * (__cdecl*)(void)> > >::get_deleter
_TEXT	ENDS
; Function compile flags: /Odtp
;	COMDAT ??R?$default_delete@V?$tuple@P6APAXXZ@std@@@std@@QBEXPAV?$tuple@P6APAXXZ@1@@Z
_TEXT	SEGMENT
_this$ = -8						; size = 4
$T1 = -4						; size = 4
__Ptr$ = 8						; size = 4
??R?$default_delete@V?$tuple@P6APAXXZ@std@@@std@@QBEXPAV?$tuple@P6APAXXZ@1@@Z PROC ; std::default_delete<std::tuple<void * (__cdecl*)(void)> >::operator(), COMDAT
; _this$ = ecx
; File c:\program files (x86)\microsoft visual studio 14.0\vc\include\memory
; Line 1192
	push	ebp
	mov	ebp, esp
	sub	esp, 8
	mov	DWORD PTR _this$[ebp], ecx
; Line 1195
	mov	eax, DWORD PTR __Ptr$[ebp]
	mov	DWORD PTR $T1[ebp], eax
	push	4
	mov	ecx, DWORD PTR $T1[ebp]
	push	ecx
	call	??3@YAXPAXI@Z				; operator delete
	add	esp, 8
; Line 1196
	mov	esp, ebp
	pop	ebp
	ret	4
??R?$default_delete@V?$tuple@P6APAXXZ@std@@@std@@QBEXPAV?$tuple@P6APAXXZ@1@@Z ENDP ; std::default_delete<std::tuple<void * (__cdecl*)(void)> >::operator()
_TEXT	ENDS
; Function compile flags: /Odtp
;	COMDAT ??$make_unique@V?$tuple@P6APAXXZ@std@@A6APAXXZ@std@@YA?AV?$unique_ptr@V?$tuple@P6APAXXZ@std@@U?$default_delete@V?$tuple@P6APAXXZ@std@@@2@@0@A6APAXXZ@Z
_TEXT	SEGMENT
$T1 = -12						; size = 4
tv77 = -8						; size = 4
$T2 = -4						; size = 4
___$ReturnUdt$ = 8					; size = 4
_<_Args_0>$ = 12					; size = 4
??$make_unique@V?$tuple@P6APAXXZ@std@@A6APAXXZ@std@@YA?AV?$unique_ptr@V?$tuple@P6APAXXZ@std@@U?$default_delete@V?$tuple@P6APAXXZ@std@@@2@@0@A6APAXXZ@Z PROC ; std::make_unique<std::tuple<void * (__cdecl*)(void)>,void * (__cdecl&)(void)>, COMDAT
; File c:\program files (x86)\microsoft visual studio 14.0\vc\include\memory
; Line 1629
	push	ebp
	mov	ebp, esp
	sub	esp, 12					; 0000000cH
; Line 1630
	push	4
	call	??2@YAPAXI@Z				; operator new
	add	esp, 4
	mov	DWORD PTR $T2[ebp], eax
	cmp	DWORD PTR $T2[ebp], 0
	je	SHORT $LN3@make_uniqu
	mov	eax, DWORD PTR _<_Args_0>$[ebp]
	push	eax
	call	??$forward@A6APAXXZ@std@@YAA6APAXXZA6APAXXZ@Z ; std::forward<void * (__cdecl&)(void)>
	add	esp, 4
	mov	DWORD PTR $T1[ebp], eax
	lea	ecx, DWORD PTR $T1[ebp]
	push	ecx
	mov	ecx, DWORD PTR $T2[ebp]
	call	??$?0P6APAXXZ$0A@@?$tuple@P6APAXXZ@std@@QAE@ABQ6APAXXZ@Z ; std::tuple<void * (__cdecl*)(void)>::tuple<void * (__cdecl*)(void)><void * (__cdecl*)(void),0>
	mov	DWORD PTR tv77[ebp], eax
	jmp	SHORT $LN4@make_uniqu
$LN3@make_uniqu:
	mov	DWORD PTR tv77[ebp], 0
$LN4@make_uniqu:
	mov	edx, DWORD PTR tv77[ebp]
	push	edx
	mov	ecx, DWORD PTR ___$ReturnUdt$[ebp]
	call	??0?$unique_ptr@V?$tuple@P6APAXXZ@std@@U?$default_delete@V?$tuple@P6APAXXZ@std@@@2@@std@@QAE@PAV?$tuple@P6APAXXZ@1@@Z ; std::unique_ptr<std::tuple<void * (__cdecl*)(void)>,std::default_delete<std::tuple<void * (__cdecl*)(void)> > >::unique_ptr<std::tuple<void * (__cdecl*)(void)>,std::default_delete<std::tuple<void * (__cdecl*)(void)> > >
	mov	eax, DWORD PTR ___$ReturnUdt$[ebp]
; Line 1631
	mov	esp, ebp
	pop	ebp
	ret	0
??$make_unique@V?$tuple@P6APAXXZ@std@@A6APAXXZ@std@@YA?AV?$unique_ptr@V?$tuple@P6APAXXZ@std@@U?$default_delete@V?$tuple@P6APAXXZ@std@@@2@@0@A6APAXXZ@Z ENDP ; std::make_unique<std::tuple<void * (__cdecl*)(void)>,void * (__cdecl&)(void)>
_TEXT	ENDS
; Function compile flags: /Odtp
;	COMDAT ??$forward@A6APAXXZ@std@@YAA6APAXXZA6APAXXZ@Z
_TEXT	SEGMENT
__Arg$ = 8						; size = 4
??$forward@A6APAXXZ@std@@YAA6APAXXZA6APAXXZ@Z PROC	; std::forward<void * (__cdecl&)(void)>, COMDAT
; File c:\program files (x86)\microsoft visual studio 14.0\vc\include\type_traits
; Line 1275
	push	ebp
	mov	ebp, esp
; Line 1276
	mov	eax, DWORD PTR __Arg$[ebp]
; Line 1277
	pop	ebp
	ret	0
??$forward@A6APAXXZ@std@@YAA6APAXXZA6APAXXZ@Z ENDP	; std::forward<void * (__cdecl&)(void)>
_TEXT	ENDS
; Function compile flags: /Odtp
;	COMDAT ??$_To_xtime@_JU?$ratio@$00$00@std@@@std@@YA?AUxtime@@ABV?$duration@_JU?$ratio@$00$00@std@@@chrono@0@@Z
_TEXT	SEGMENT
$T1 = -84						; size = 8
$T2 = -76						; size = 8
$T3 = -68						; size = 8
$T4 = -60						; size = 8
$T5 = -52						; size = 8
$T6 = -44						; size = 8
$T7 = -36						; size = 8
__T0$8 = -28						; size = 8
__Xt$ = -20						; size = 16
__$ArrayPad$ = -4					; size = 4
$T9 = 8							; size = 4
__Rel_time$ = 12					; size = 4
??$_To_xtime@_JU?$ratio@$00$00@std@@@std@@YA?AUxtime@@ABV?$duration@_JU?$ratio@$00$00@std@@@chrono@0@@Z PROC ; std::_To_xtime<__int64,std::ratio<1,1> >, COMDAT
; File c:\program files (x86)\microsoft visual studio 14.0\vc\include\chrono
; Line 1015
	push	ebp
	mov	ebp, esp
	sub	esp, 84					; 00000054H
	mov	eax, DWORD PTR ___security_cookie
	xor	eax, ebp
	mov	DWORD PTR __$ArrayPad$[ebp], eax
; Line 1017
	lea	eax, DWORD PTR $T6[ebp]
	push	eax
	call	?zero@?$duration@_JU?$ratio@$00$00@std@@@chrono@std@@SA?AV123@XZ ; std::chrono::duration<__int64,std::ratio<1,1> >::zero
	add	esp, 4
	push	eax
	mov	ecx, DWORD PTR __Rel_time$[ebp]
	push	ecx
	call	??$?N_JU?$ratio@$00$00@std@@_JU01@@chrono@std@@YA_NABV?$duration@_JU?$ratio@$00$00@std@@@01@0@Z ; std::chrono::operator<=<__int64,std::ratio<1,1>,__int64,std::ratio<1,1> >
	add	esp, 8
	movzx	edx, al
	test	edx, edx
	je	SHORT $LN2@To_xtime
; Line 1019
	xorps	xmm0, xmm0
	movlpd	QWORD PTR __Xt$[ebp], xmm0
; Line 1020
	mov	DWORD PTR __Xt$[ebp+8], 0
; Line 1022
	jmp	$LN3@To_xtime
$LN2@To_xtime:
; Line 1025
	lea	eax, DWORD PTR $T5[ebp]
	push	eax
	lea	ecx, DWORD PTR $T4[ebp]
	push	ecx
	call	?now@system_clock@chrono@std@@SA?AV?$time_point@Usystem_clock@chrono@std@@V?$duration@_JU?$ratio@$00$0JIJGIA@@std@@@23@@23@XZ ; std::chrono::system_clock::now
	add	esp, 4
	mov	ecx, eax
	call	?time_since_epoch@?$time_point@Usystem_clock@chrono@std@@V?$duration@_JU?$ratio@$00$0JIJGIA@@std@@@23@@chrono@std@@QBE?AV?$duration@_JU?$ratio@$00$0JIJGIA@@std@@@23@XZ ; std::chrono::time_point<std::chrono::system_clock,std::chrono::duration<__int64,std::ratio<1,10000000> > >::time_since_epoch
	push	eax
	lea	ecx, DWORD PTR __T0$8[ebp]
	call	??$?0_JU?$ratio@$00$0JIJGIA@@std@@X@?$duration@_JU?$ratio@$00$0DLJKMKAA@@std@@@chrono@std@@QAE@ABV?$duration@_JU?$ratio@$00$0JIJGIA@@std@@@12@@Z ; std::chrono::duration<__int64,std::ratio<1,1000000000> >::duration<__int64,std::ratio<1,1000000000> ><__int64,std::ratio<1,10000000>,void>
; Line 1026
	mov	edx, DWORD PTR __Rel_time$[ebp]
	push	edx
	lea	eax, DWORD PTR $T3[ebp]
	push	eax
	call	??$duration_cast@V?$duration@_JU?$ratio@$00$0DLJKMKAA@@std@@@chrono@std@@_JU?$ratio@$00$00@3@@chrono@std@@YA?AV?$duration@_JU?$ratio@$00$0DLJKMKAA@@std@@@01@ABV?$duration@_JU?$ratio@$00$00@std@@@01@@Z ; std::chrono::duration_cast<std::chrono::duration<__int64,std::ratio<1,1000000000> >,__int64,std::ratio<1,1> >
	add	esp, 8
	push	eax
	lea	ecx, DWORD PTR __T0$8[ebp]
	call	??Y?$duration@_JU?$ratio@$00$0DLJKMKAA@@std@@@chrono@std@@QAEAAV012@ABV012@@Z ; std::chrono::duration<__int64,std::ratio<1,1000000000> >::operator+=
; Line 1027
	lea	ecx, DWORD PTR __T0$8[ebp]
	push	ecx
	lea	edx, DWORD PTR $T2[ebp]
	push	edx
	call	??$duration_cast@V?$duration@_JU?$ratio@$00$00@std@@@chrono@std@@_JU?$ratio@$00$0DLJKMKAA@@3@@chrono@std@@YA?AV?$duration@_JU?$ratio@$00$00@std@@@01@ABV?$duration@_JU?$ratio@$00$0DLJKMKAA@@std@@@01@@Z ; std::chrono::duration_cast<std::chrono::duration<__int64,std::ratio<1,1> >,__int64,std::ratio<1,1000000000> >
	add	esp, 8
	mov	ecx, eax
	call	?count@?$duration@_JU?$ratio@$00$00@std@@@chrono@std@@QBE_JXZ ; std::chrono::duration<__int64,std::ratio<1,1> >::count
	mov	DWORD PTR __Xt$[ebp], eax
	mov	DWORD PTR __Xt$[ebp+4], edx
; Line 1028
	lea	eax, DWORD PTR __Xt$[ebp]
	push	eax
	lea	ecx, DWORD PTR $T1[ebp]
	call	??$?0_JX@?$duration@_JU?$ratio@$00$00@std@@@chrono@std@@QAE@AB_J@Z ; std::chrono::duration<__int64,std::ratio<1,1> >::duration<__int64,std::ratio<1,1> ><__int64,void>
	push	eax
	lea	ecx, DWORD PTR $T7[ebp]
	call	??$?0_JU?$ratio@$00$00@std@@X@?$duration@_JU?$ratio@$00$0DLJKMKAA@@std@@@chrono@std@@QAE@ABV?$duration@_JU?$ratio@$00$00@std@@@12@@Z ; std::chrono::duration<__int64,std::ratio<1,1000000000> >::duration<__int64,std::ratio<1,1000000000> ><__int64,std::ratio<1,1>,void>
	lea	ecx, DWORD PTR $T7[ebp]
	push	ecx
	lea	ecx, DWORD PTR __T0$8[ebp]
	call	??Z?$duration@_JU?$ratio@$00$0DLJKMKAA@@std@@@chrono@std@@QAEAAV012@ABV012@@Z ; std::chrono::duration<__int64,std::ratio<1,1000000000> >::operator-=
; Line 1029
	lea	ecx, DWORD PTR __T0$8[ebp]
	call	?count@?$duration@_JU?$ratio@$00$0DLJKMKAA@@std@@@chrono@std@@QBE_JXZ ; std::chrono::duration<__int64,std::ratio<1,1000000000> >::count
	mov	DWORD PTR __Xt$[ebp+8], eax
$LN3@To_xtime:
; Line 1031
	mov	edx, DWORD PTR $T9[ebp]
	mov	eax, DWORD PTR __Xt$[ebp]
	mov	DWORD PTR [edx], eax
	mov	ecx, DWORD PTR __Xt$[ebp+4]
	mov	DWORD PTR [edx+4], ecx
	mov	eax, DWORD PTR __Xt$[ebp+8]
	mov	DWORD PTR [edx+8], eax
	mov	ecx, DWORD PTR __Xt$[ebp+12]
	mov	DWORD PTR [edx+12], ecx
	mov	eax, DWORD PTR $T9[ebp]
; Line 1032
	mov	ecx, DWORD PTR __$ArrayPad$[ebp]
	xor	ecx, ebp
	call	@__security_check_cookie@4
	mov	esp, ebp
	pop	ebp
	ret	0
??$_To_xtime@_JU?$ratio@$00$00@std@@@std@@YA?AUxtime@@ABV?$duration@_JU?$ratio@$00$00@std@@@chrono@0@@Z ENDP ; std::_To_xtime<__int64,std::ratio<1,1> >
_TEXT	ENDS
; Function compile flags: /Odtp
;	COMDAT ??$move@AAH@std@@YA$$QAHAAH@Z
_TEXT	SEGMENT
__Arg$ = 8						; size = 4
??$move@AAH@std@@YA$$QAHAAH@Z PROC			; std::move<int &>, COMDAT
; File c:\program files (x86)\microsoft visual studio 14.0\vc\include\type_traits
; Line 1291
	push	ebp
	mov	ebp, esp
; Line 1292
	mov	eax, DWORD PTR __Arg$[ebp]
; Line 1293
	pop	ebp
	ret	0
??$move@AAH@std@@YA$$QAHAAH@Z ENDP			; std::move<int &>
_TEXT	ENDS
; Function compile flags: /Odtp
;	COMDAT ??$?0A6APAXPAUBank@@H@ZAAPAU0@AAHX@thread@std@@QAE@A6APAXPAUBank@@H@ZAAPAU2@AAH@Z
_TEXT	SEGMENT
$T1 = -8						; size = 4
_this$ = -4						; size = 4
__Fx$ = 8						; size = 4
_<_Ax_0>$ = 12						; size = 4
_<_Ax_1>$ = 16						; size = 4
??$?0A6APAXPAUBank@@H@ZAAPAU0@AAHX@thread@std@@QAE@A6APAXPAUBank@@H@ZAAPAU2@AAH@Z PROC ; std::thread::thread<void * (__cdecl&)(Bank *,int),Bank * &,int &,void>, COMDAT
; _this$ = ecx
; File c:\program files (x86)\microsoft visual studio 14.0\vc\include\thread
; Line 47
	push	ebp
	mov	ebp, esp
	sub	esp, 8
	mov	DWORD PTR _this$[ebp], ecx
; Line 48
	mov	eax, DWORD PTR _<_Ax_1>$[ebp]
	push	eax
	call	??$forward@AAH@std@@YAAAHAAH@Z		; std::forward<int &>
	add	esp, 4
	push	eax
	mov	ecx, DWORD PTR _<_Ax_0>$[ebp]
	push	ecx
	call	??$forward@AAPAUBank@@@std@@YAAAPAUBank@@AAPAU1@@Z ; std::forward<Bank * &>
	add	esp, 4
	push	eax
	mov	edx, DWORD PTR __Fx$[ebp]
	push	edx
	call	??$forward@A6APAXPAUBank@@H@Z@std@@YAA6APAXPAUBank@@H@ZA6APAX0H@Z@Z ; std::forward<void * (__cdecl&)(Bank *,int)>
	add	esp, 4
	push	eax
	lea	eax, DWORD PTR $T1[ebp]
	push	eax
	call	??$make_unique@V?$tuple@P6APAXPAUBank@@H@ZPAU1@H@std@@A6APAXPAUBank@@H@ZAAPAU3@AAH@std@@YA?AV?$unique_ptr@V?$tuple@P6APAXPAUBank@@H@ZPAU1@H@std@@U?$default_delete@V?$tuple@P6APAXPAUBank@@H@ZPAU1@H@std@@@2@@0@A6APAXPAUBank@@H@ZAAPAU2@AAH@Z ; std::make_unique<std::tuple<void * (__cdecl*)(Bank *,int),Bank *,int>,void * (__cdecl&)(Bank *,int),Bank * &,int &>
	add	esp, 16					; 00000010H
	push	eax
	mov	ecx, DWORD PTR _this$[ebp]
	push	ecx
	call	??$_Launch@V?$unique_ptr@V?$tuple@P6APAXPAUBank@@H@ZPAU1@H@std@@U?$default_delete@V?$tuple@P6APAXPAUBank@@H@ZPAU1@H@std@@@2@@std@@@std@@YAXPAU_Thrd_imp_t@@$$QAV?$unique_ptr@V?$tuple@P6APAXPAUBank@@H@ZPAU1@H@std@@U?$default_delete@V?$tuple@P6APAXPAUBank@@H@ZPAU1@H@std@@@2@@0@@Z ; std::_Launch<std::unique_ptr<std::tuple<void * (__cdecl*)(Bank *,int),Bank *,int>,std::default_delete<std::tuple<void * (__cdecl*)(Bank *,int),Bank *,int> > > >
	add	esp, 8
	lea	ecx, DWORD PTR $T1[ebp]
	call	??1?$unique_ptr@V?$tuple@P6APAXPAUBank@@H@ZPAU1@H@std@@U?$default_delete@V?$tuple@P6APAXPAUBank@@H@ZPAU1@H@std@@@2@@std@@QAE@XZ ; std::unique_ptr<std::tuple<void * (__cdecl*)(Bank *,int),Bank *,int>,std::default_delete<std::tuple<void * (__cdecl*)(Bank *,int),Bank *,int> > >::~unique_ptr<std::tuple<void * (__cdecl*)(Bank *,int),Bank *,int>,std::default_delete<std::tuple<void * (__cdecl*)(Bank *,int),Bank *,int> > >
; Line 51
	mov	eax, DWORD PTR _this$[ebp]
	mov	esp, ebp
	pop	ebp
	ret	12					; 0000000cH
??$?0A6APAXPAUBank@@H@ZAAPAU0@AAHX@thread@std@@QAE@A6APAXPAUBank@@H@ZAAPAU2@AAH@Z ENDP ; std::thread::thread<void * (__cdecl&)(Bank *,int),Bank * &,int &,void>
_TEXT	ENDS
; Function compile flags: /Odtp
;	COMDAT ??$?0A6APAXXZ$$VX@thread@std@@QAE@A6APAXXZ@Z
_TEXT	SEGMENT
$T1 = -8						; size = 4
_this$ = -4						; size = 4
__Fx$ = 8						; size = 4
??$?0A6APAXXZ$$VX@thread@std@@QAE@A6APAXXZ@Z PROC	; std::thread::thread<void * (__cdecl&)(void),void>, COMDAT
; _this$ = ecx
; File c:\program files (x86)\microsoft visual studio 14.0\vc\include\thread
; Line 47
	push	ebp
	mov	ebp, esp
	sub	esp, 8
	mov	DWORD PTR _this$[ebp], ecx
; Line 48
	mov	eax, DWORD PTR __Fx$[ebp]
	push	eax
	call	??$forward@A6APAXXZ@std@@YAA6APAXXZA6APAXXZ@Z ; std::forward<void * (__cdecl&)(void)>
	add	esp, 4
	push	eax
	lea	ecx, DWORD PTR $T1[ebp]
	push	ecx
	call	??$make_unique@V?$tuple@P6APAXXZ@std@@A6APAXXZ@std@@YA?AV?$unique_ptr@V?$tuple@P6APAXXZ@std@@U?$default_delete@V?$tuple@P6APAXXZ@std@@@2@@0@A6APAXXZ@Z ; std::make_unique<std::tuple<void * (__cdecl*)(void)>,void * (__cdecl&)(void)>
	add	esp, 8
	push	eax
	mov	edx, DWORD PTR _this$[ebp]
	push	edx
	call	??$_Launch@V?$unique_ptr@V?$tuple@P6APAXXZ@std@@U?$default_delete@V?$tuple@P6APAXXZ@std@@@2@@std@@@std@@YAXPAU_Thrd_imp_t@@$$QAV?$unique_ptr@V?$tuple@P6APAXXZ@std@@U?$default_delete@V?$tuple@P6APAXXZ@std@@@2@@0@@Z ; std::_Launch<std::unique_ptr<std::tuple<void * (__cdecl*)(void)>,std::default_delete<std::tuple<void * (__cdecl*)(void)> > > >
	add	esp, 8
	lea	ecx, DWORD PTR $T1[ebp]
	call	??1?$unique_ptr@V?$tuple@P6APAXXZ@std@@U?$default_delete@V?$tuple@P6APAXXZ@std@@@2@@std@@QAE@XZ ; std::unique_ptr<std::tuple<void * (__cdecl*)(void)>,std::default_delete<std::tuple<void * (__cdecl*)(void)> > >::~unique_ptr<std::tuple<void * (__cdecl*)(void)>,std::default_delete<std::tuple<void * (__cdecl*)(void)> > >
; Line 51
	mov	eax, DWORD PTR _this$[ebp]
	mov	esp, ebp
	pop	ebp
	ret	4
??$?0A6APAXXZ$$VX@thread@std@@QAE@A6APAXXZ@Z ENDP	; std::thread::thread<void * (__cdecl&)(void),void>
_TEXT	ENDS
; Function compile flags: /Odtp
_TEXT	SEGMENT
_pid$ = -84						; size = 8
__heartbeat$ = -76					; size = 4
$T1 = -72						; size = 4
$T2 = -68						; size = 4
$T3 = -64						; size = 4
$T4 = -60						; size = 4
$T5 = -56						; size = 4
$T6 = -52						; size = 4
$T7 = -48						; size = 4
$T8 = -44						; size = 4
$T9 = -40						; size = 4
tv197 = -36						; size = 4
$T10 = -32						; size = 4
tv167 = -28						; size = 4
$T11 = -24						; size = 4
_accounts$ = -20					; size = 4
_i$12 = -16						; size = 4
_bank$ = -12						; size = 4
_i$13 = -8						; size = 4
_i$14 = -4						; size = 4
_main	PROC
; File c:\users\tony\cpp-learning\tsx_test.cpp
; Line 169
	push	ebp
	mov	ebp, esp
	sub	esp, 84					; 00000054H
; Line 170
	mov	DWORD PTR _accounts$[ebp], 10240	; 00002800H
; Line 172
	push	8
	call	??2@YAPAXI@Z				; operator new
	add	esp, 4
	mov	DWORD PTR $T9[ebp], eax
	mov	eax, DWORD PTR $T9[ebp]
	mov	DWORD PTR _bank$[ebp], eax
; Line 173
	xor	ecx, ecx
	mov	eax, DWORD PTR _accounts$[ebp]
	mov	edx, 8
	mul	edx
	seto	cl
	neg	ecx
	or	ecx, eax
	push	ecx
	call	??_U@YAPAXI@Z				; operator new[]
	add	esp, 4
	mov	DWORD PTR $T8[ebp], eax
	mov	eax, DWORD PTR _bank$[ebp]
	mov	ecx, DWORD PTR $T8[ebp]
	mov	DWORD PTR [eax], ecx
; Line 174
	mov	edx, DWORD PTR _bank$[ebp]
	mov	eax, DWORD PTR _accounts$[ebp]
	mov	DWORD PTR [edx+4], eax
; Line 176
	mov	DWORD PTR _i$13[ebp], 0
	jmp	SHORT $LN4@main
$LN2@main:
	mov	ecx, DWORD PTR _i$13[ebp]
	add	ecx, 1
	mov	DWORD PTR _i$13[ebp], ecx
$LN4@main:
	mov	edx, DWORD PTR _i$13[ebp]
	cmp	edx, DWORD PTR _accounts$[ebp]
	jge	SHORT $LN3@main
; Line 177
	mov	eax, DWORD PTR _bank$[ebp]
	mov	ecx, DWORD PTR [eax]
	mov	edx, DWORD PTR _i$13[ebp]
	mov	eax, DWORD PTR _i$13[ebp]
	mov	DWORD PTR [ecx+edx*8+4], eax
; Line 178
	mov	ecx, DWORD PTR _bank$[ebp]
	mov	edx, DWORD PTR [ecx]
	mov	eax, DWORD PTR _i$13[ebp]
	mov	DWORD PTR [edx+eax*8], 0
; Line 179
	jmp	SHORT $LN2@main
$LN3@main:
; Line 182
	push	8
	call	??_U@YAPAXI@Z				; operator new[]
	add	esp, 4
	mov	DWORD PTR $T7[ebp], eax
	mov	ecx, DWORD PTR $T7[ebp]
	mov	DWORD PTR ?tx@@3PAJA, ecx		; tx
; Line 183
	push	8
	call	??_U@YAPAXI@Z				; operator new[]
	add	esp, 4
	mov	DWORD PTR $T6[ebp], eax
	mov	edx, DWORD PTR $T6[ebp]
	mov	DWORD PTR ?_abort@@3PAJA, edx		; _abort
; Line 184
	push	8
	call	??_U@YAPAXI@Z				; operator new[]
	add	esp, 4
	mov	DWORD PTR $T5[ebp], eax
	mov	eax, DWORD PTR $T5[ebp]
	mov	DWORD PTR ?capacity@@3PAJA, eax		; capacity
; Line 185
	push	8
	call	??_U@YAPAXI@Z				; operator new[]
	add	esp, 4
	mov	DWORD PTR $T4[ebp], eax
	mov	ecx, DWORD PTR $T4[ebp]
	mov	DWORD PTR ?debug@@3PAJA, ecx		; debug
; Line 186
	push	8
	call	??_U@YAPAXI@Z				; operator new[]
	add	esp, 4
	mov	DWORD PTR $T3[ebp], eax
	mov	edx, DWORD PTR $T3[ebp]
	mov	DWORD PTR ?failed@@3PAJA, edx		; failed
; Line 187
	push	8
	call	??_U@YAPAXI@Z				; operator new[]
	add	esp, 4
	mov	DWORD PTR $T2[ebp], eax
	mov	eax, DWORD PTR $T2[ebp]
	mov	DWORD PTR ?conflict@@3PAJA, eax		; conflict
; Line 188
	push	8
	call	??_U@YAPAXI@Z				; operator new[]
	add	esp, 4
	mov	DWORD PTR $T1[ebp], eax
	mov	ecx, DWORD PTR $T1[ebp]
	mov	DWORD PTR ?zero@@3PAJA, ecx		; zero
; Line 190
	push	8
	call	??2@YAPAXI@Z				; operator new
	add	esp, 4
	mov	DWORD PTR $T11[ebp], eax
	cmp	DWORD PTR $T11[ebp], 0
	je	SHORT $LN12@main
	push	OFFSET ?f2@@YAPAXXZ			; f2
	mov	ecx, DWORD PTR $T11[ebp]
	call	??$?0A6APAXXZ$$VX@thread@std@@QAE@A6APAXXZ@Z ; std::thread::thread<void * (__cdecl&)(void),void>
	mov	DWORD PTR tv167[ebp], eax
	jmp	SHORT $LN13@main
$LN12@main:
	mov	DWORD PTR tv167[ebp], 0
$LN13@main:
	mov	edx, DWORD PTR tv167[ebp]
	mov	DWORD PTR __heartbeat$[ebp], edx
; Line 191
	mov	DWORD PTR _i$14[ebp], 0
	jmp	SHORT $LN7@main
$LN5@main:
	mov	eax, DWORD PTR _i$14[ebp]
	add	eax, 1
	mov	DWORD PTR _i$14[ebp], eax
$LN7@main:
	cmp	DWORD PTR _i$14[ebp], 2
	jge	$LN6@main
; Line 192
	mov	ecx, DWORD PTR _i$14[ebp]
	mov	edx, DWORD PTR ?zero@@3PAJA		; zero
	mov	DWORD PTR [edx+ecx*4], 0
	mov	eax, DWORD PTR _i$14[ebp]
	mov	ecx, DWORD PTR ?conflict@@3PAJA		; conflict
	mov	DWORD PTR [ecx+eax*4], 0
	mov	edx, DWORD PTR _i$14[ebp]
	mov	eax, DWORD PTR ?failed@@3PAJA		; failed
	mov	DWORD PTR [eax+edx*4], 0
	mov	ecx, DWORD PTR _i$14[ebp]
	mov	edx, DWORD PTR ?debug@@3PAJA		; debug
	mov	DWORD PTR [edx+ecx*4], 0
	mov	eax, DWORD PTR _i$14[ebp]
	mov	ecx, DWORD PTR ?capacity@@3PAJA		; capacity
	mov	DWORD PTR [ecx+eax*4], 0
	mov	edx, DWORD PTR _i$14[ebp]
	mov	eax, DWORD PTR ?_abort@@3PAJA		; _abort
	mov	DWORD PTR [eax+edx*4], 0
	mov	ecx, DWORD PTR _i$14[ebp]
	mov	edx, DWORD PTR ?tx@@3PAJA		; tx
	mov	DWORD PTR [edx+ecx*4], 0
; Line 193
	push	8
	call	??2@YAPAXI@Z				; operator new
	add	esp, 4
	mov	DWORD PTR $T10[ebp], eax
	cmp	DWORD PTR $T10[ebp], 0
	je	SHORT $LN14@main
	lea	eax, DWORD PTR _i$14[ebp]
	push	eax
	lea	ecx, DWORD PTR _bank$[ebp]
	push	ecx
	push	OFFSET ?f1@@YAPAXPAUBank@@H@Z		; f1
	mov	ecx, DWORD PTR $T10[ebp]
	call	??$?0A6APAXPAUBank@@H@ZAAPAU0@AAHX@thread@std@@QAE@A6APAXPAUBank@@H@ZAAPAU2@AAH@Z ; std::thread::thread<void * (__cdecl&)(Bank *,int),Bank * &,int &,void>
	mov	DWORD PTR tv197[ebp], eax
	jmp	SHORT $LN15@main
$LN14@main:
	mov	DWORD PTR tv197[ebp], 0
$LN15@main:
	mov	edx, DWORD PTR _i$14[ebp]
	mov	eax, DWORD PTR tv197[ebp]
	mov	DWORD PTR _pid$[ebp+edx*4], eax
; Line 194
	jmp	$LN5@main
$LN6@main:
; Line 197
	mov	DWORD PTR _i$12[ebp], 0
	jmp	SHORT $LN10@main
$LN8@main:
	mov	ecx, DWORD PTR _i$12[ebp]
	add	ecx, 1
	mov	DWORD PTR _i$12[ebp], ecx
$LN10@main:
	cmp	DWORD PTR _i$12[ebp], 2
	jge	SHORT $LN9@main
; Line 198
	mov	edx, DWORD PTR _i$12[ebp]
	mov	ecx, DWORD PTR _pid$[ebp+edx*4]
	call	?join@thread@std@@QAEXXZ		; std::thread::join
; Line 199
	jmp	SHORT $LN8@main
$LN9@main:
; Line 200
	xor	eax, eax
; Line 201
	mov	esp, ebp
	pop	ebp
	ret	0
_main	ENDP
_TEXT	ENDS
; Function compile flags: /Odtp
;	COMDAT ??$sleep_for@_JU?$ratio@$00$00@std@@@this_thread@std@@YAXABV?$duration@_JU?$ratio@$00$00@std@@@chrono@1@@Z
_TEXT	SEGMENT
$T1 = -52						; size = 16
__Tgt$ = -36						; size = 16
$T2 = -20						; size = 16
__$ArrayPad$ = -4					; size = 4
__Rel_time$ = 8						; size = 4
??$sleep_for@_JU?$ratio@$00$00@std@@@this_thread@std@@YAXABV?$duration@_JU?$ratio@$00$00@std@@@chrono@1@@Z PROC ; std::this_thread::sleep_for<__int64,std::ratio<1,1> >, COMDAT
; File c:\program files (x86)\microsoft visual studio 14.0\vc\include\thread
; Line 135
	push	ebp
	mov	ebp, esp
	sub	esp, 52					; 00000034H
	mov	eax, DWORD PTR ___security_cookie
	xor	eax, ebp
	mov	DWORD PTR __$ArrayPad$[ebp], eax
; Line 136
	mov	eax, DWORD PTR __Rel_time$[ebp]
	push	eax
	lea	ecx, DWORD PTR $T1[ebp]
	push	ecx
	call	??$_To_xtime@_JU?$ratio@$00$00@std@@@std@@YA?AUxtime@@ABV?$duration@_JU?$ratio@$00$00@std@@@chrono@0@@Z ; std::_To_xtime<__int64,std::ratio<1,1> >
	add	esp, 8
	mov	edx, DWORD PTR [eax]
	mov	DWORD PTR $T2[ebp], edx
	mov	ecx, DWORD PTR [eax+4]
	mov	DWORD PTR $T2[ebp+4], ecx
	mov	edx, DWORD PTR [eax+8]
	mov	DWORD PTR $T2[ebp+8], edx
	mov	eax, DWORD PTR [eax+12]
	mov	DWORD PTR $T2[ebp+12], eax
	mov	ecx, DWORD PTR $T2[ebp]
	mov	DWORD PTR __Tgt$[ebp], ecx
	mov	edx, DWORD PTR $T2[ebp+4]
	mov	DWORD PTR __Tgt$[ebp+4], edx
	mov	eax, DWORD PTR $T2[ebp+8]
	mov	DWORD PTR __Tgt$[ebp+8], eax
	mov	ecx, DWORD PTR $T2[ebp+12]
	mov	DWORD PTR __Tgt$[ebp+12], ecx
; Line 137
	lea	edx, DWORD PTR __Tgt$[ebp]
	push	edx
	call	?sleep_until@this_thread@std@@YAXPBUxtime@@@Z ; std::this_thread::sleep_until
	add	esp, 4
; Line 138
	mov	ecx, DWORD PTR __$ArrayPad$[ebp]
	xor	ecx, ebp
	call	@__security_check_cookie@4
	mov	esp, ebp
	pop	ebp
	ret	0
??$sleep_for@_JU?$ratio@$00$00@std@@@this_thread@std@@YAXABV?$duration@_JU?$ratio@$00$00@std@@@chrono@1@@Z ENDP ; std::this_thread::sleep_for<__int64,std::ratio<1,1> >
_TEXT	ENDS
; Function compile flags: /Odtp
;	COMDAT ??$?0HX@?$duration@_JU?$ratio@$00$00@std@@@chrono@std@@QAE@ABH@Z
_TEXT	SEGMENT
_this$ = -4						; size = 4
__Val$ = 8						; size = 4
??$?0HX@?$duration@_JU?$ratio@$00$00@std@@@chrono@std@@QAE@ABH@Z PROC ; std::chrono::duration<__int64,std::ratio<1,1> >::duration<__int64,std::ratio<1,1> ><int,void>, COMDAT
; _this$ = ecx
; File c:\program files (x86)\microsoft visual studio 14.0\vc\include\chrono
; Line 117
	push	ebp
	mov	ebp, esp
	push	ecx
	mov	DWORD PTR _this$[ebp], ecx
; Line 116
	mov	eax, DWORD PTR __Val$[ebp]
	mov	eax, DWORD PTR [eax]
	cdq
	mov	ecx, DWORD PTR _this$[ebp]
	mov	DWORD PTR [ecx], eax
	mov	DWORD PTR [ecx+4], edx
; Line 118
	mov	eax, DWORD PTR _this$[ebp]
	mov	esp, ebp
	pop	ebp
	ret	4
??$?0HX@?$duration@_JU?$ratio@$00$00@std@@@chrono@std@@QAE@ABH@Z ENDP ; std::chrono::duration<__int64,std::ratio<1,1> >::duration<__int64,std::ratio<1,1> ><int,void>
_TEXT	ENDS
; Function compile flags: /Odtp
_TEXT	SEGMENT
$T1 = -72						; size = 8
$T2 = -64						; size = 4
_last_txs$ = -60					; size = 4
_last_aborts$ = -56					; size = 4
_last_faileds$ = -52					; size = 4
_last_capacities$ = -48					; size = 4
_last_debugs$ = -44					; size = 4
_last_conflicts$ = -40					; size = 4
_last_zeros$ = -36					; size = 4
_txs$ = -32						; size = 4
_aborts$ = -28						; size = 4
_faileds$ = -24						; size = 4
_capacities$ = -20					; size = 4
_debugs$ = -16						; size = 4
_conflicts$ = -12					; size = 4
_zeros$ = -8						; size = 4
_i$3 = -4						; size = 4
?f2@@YAPAXXZ PROC					; f2
; File c:\users\tony\cpp-learning\tsx_test.cpp
; Line 85
	push	ebp
	mov	ebp, esp
	sub	esp, 72					; 00000048H
; Line 86
	push	OFFSET $SG39236
	call	_printf
	add	esp, 4
; Line 87
	mov	DWORD PTR _last_txs$[ebp], 0
	mov	DWORD PTR _last_aborts$[ebp], 0
	mov	DWORD PTR _last_capacities$[ebp], 0
	mov	DWORD PTR _last_debugs$[ebp], 0
	mov	DWORD PTR _last_faileds$[ebp], 0
	mov	DWORD PTR _last_conflicts$[ebp], 0
	mov	DWORD PTR _last_zeros$[ebp], 0
; Line 88
	mov	DWORD PTR _txs$[ebp], 0
	mov	DWORD PTR _aborts$[ebp], 0
	mov	DWORD PTR _capacities$[ebp], 0
	mov	DWORD PTR _debugs$[ebp], 0
	mov	DWORD PTR _faileds$[ebp], 0
	mov	DWORD PTR _conflicts$[ebp], 0
	mov	DWORD PTR _zeros$[ebp], 0
$LN2@f2:
; Line 89
	mov	eax, 1
	test	eax, eax
	je	$LN1@f2
; Line 90
	mov	ecx, DWORD PTR _txs$[ebp]
	mov	DWORD PTR _last_txs$[ebp], ecx
; Line 91
	mov	edx, DWORD PTR _aborts$[ebp]
	mov	DWORD PTR _last_aborts$[ebp], edx
; Line 92
	mov	eax, DWORD PTR _capacities$[ebp]
	mov	DWORD PTR _last_capacities$[ebp], eax
; Line 93
	mov	ecx, DWORD PTR _debugs$[ebp]
	mov	DWORD PTR _last_debugs$[ebp], ecx
; Line 94
	mov	edx, DWORD PTR _conflicts$[ebp]
	mov	DWORD PTR _last_conflicts$[ebp], edx
; Line 95
	mov	eax, DWORD PTR _faileds$[ebp]
	mov	DWORD PTR _last_faileds$[ebp], eax
; Line 96
	mov	ecx, DWORD PTR _zeros$[ebp]
	mov	DWORD PTR _last_zeros$[ebp], ecx
; Line 98
	mov	DWORD PTR _zeros$[ebp], 0
	mov	edx, DWORD PTR _zeros$[ebp]
	mov	DWORD PTR _conflicts$[ebp], edx
	mov	eax, DWORD PTR _conflicts$[ebp]
	mov	DWORD PTR _faileds$[ebp], eax
	mov	ecx, DWORD PTR _faileds$[ebp]
	mov	DWORD PTR _debugs$[ebp], ecx
	mov	edx, DWORD PTR _debugs$[ebp]
	mov	DWORD PTR _capacities$[ebp], edx
	mov	eax, DWORD PTR _capacities$[ebp]
	mov	DWORD PTR _aborts$[ebp], eax
	mov	ecx, DWORD PTR _aborts$[ebp]
	mov	DWORD PTR _txs$[ebp], ecx
; Line 99
	mov	DWORD PTR _i$3[ebp], 0
	jmp	SHORT $LN6@f2
$LN4@f2:
	mov	edx, DWORD PTR _i$3[ebp]
	add	edx, 1
	mov	DWORD PTR _i$3[ebp], edx
$LN6@f2:
	cmp	DWORD PTR _i$3[ebp], 2
	jge	$LN5@f2
; Line 100
	mov	eax, DWORD PTR _i$3[ebp]
	mov	ecx, DWORD PTR ?tx@@3PAJA		; tx
	mov	edx, DWORD PTR _txs$[ebp]
	add	edx, DWORD PTR [ecx+eax*4]
	mov	DWORD PTR _txs$[ebp], edx
; Line 101
	mov	eax, DWORD PTR _i$3[ebp]
	mov	ecx, DWORD PTR ?_abort@@3PAJA		; _abort
	mov	edx, DWORD PTR _aborts$[ebp]
	add	edx, DWORD PTR [ecx+eax*4]
	mov	DWORD PTR _aborts$[ebp], edx
; Line 102
	mov	eax, DWORD PTR _i$3[ebp]
	mov	ecx, DWORD PTR ?failed@@3PAJA		; failed
	mov	edx, DWORD PTR _faileds$[ebp]
	add	edx, DWORD PTR [ecx+eax*4]
	mov	DWORD PTR _faileds$[ebp], edx
; Line 103
	mov	eax, DWORD PTR _i$3[ebp]
	mov	ecx, DWORD PTR ?capacity@@3PAJA		; capacity
	mov	edx, DWORD PTR _capacities$[ebp]
	add	edx, DWORD PTR [ecx+eax*4]
	mov	DWORD PTR _capacities$[ebp], edx
; Line 104
	mov	eax, DWORD PTR _i$3[ebp]
	mov	ecx, DWORD PTR ?debug@@3PAJA		; debug
	mov	edx, DWORD PTR _debugs$[ebp]
	add	edx, DWORD PTR [ecx+eax*4]
	mov	DWORD PTR _debugs$[ebp], edx
; Line 105
	mov	eax, DWORD PTR _i$3[ebp]
	mov	ecx, DWORD PTR ?conflict@@3PAJA		; conflict
	mov	edx, DWORD PTR _conflicts$[ebp]
	add	edx, DWORD PTR [ecx+eax*4]
	mov	DWORD PTR _conflicts$[ebp], edx
; Line 106
	mov	eax, DWORD PTR _i$3[ebp]
	mov	ecx, DWORD PTR ?zero@@3PAJA		; zero
	mov	edx, DWORD PTR _zeros$[ebp]
	add	edx, DWORD PTR [ecx+eax*4]
	mov	DWORD PTR _zeros$[ebp], edx
; Line 107
	jmp	$LN4@f2
$LN5@f2:
; Line 109
	mov	eax, DWORD PTR _zeros$[ebp]
	sub	eax, DWORD PTR _last_zeros$[ebp]
	push	eax
	mov	ecx, DWORD PTR _conflicts$[ebp]
	sub	ecx, DWORD PTR _last_conflicts$[ebp]
	push	ecx
	mov	edx, DWORD PTR _debugs$[ebp]
	sub	edx, DWORD PTR _last_debugs$[ebp]
	push	edx
	mov	eax, DWORD PTR _capacities$[ebp]
	sub	eax, DWORD PTR _last_capacities$[ebp]
	push	eax
	mov	ecx, DWORD PTR _faileds$[ebp]
	sub	ecx, DWORD PTR _last_faileds$[ebp]
	push	ecx
	mov	edx, DWORD PTR _aborts$[ebp]
	sub	edx, DWORD PTR _last_aborts$[ebp]
	push	edx
	mov	eax, DWORD PTR _txs$[ebp]
	sub	eax, DWORD PTR _last_txs$[ebp]
	push	eax
	push	OFFSET $SG39237
	call	_printf
	add	esp, 32					; 00000020H
; Line 114
	mov	DWORD PTR $T2[ebp], 1
	lea	ecx, DWORD PTR $T2[ebp]
	push	ecx
	lea	ecx, DWORD PTR $T1[ebp]
	call	??$?0HX@?$duration@_JU?$ratio@$00$00@std@@@chrono@std@@QAE@ABH@Z ; std::chrono::duration<__int64,std::ratio<1,1> >::duration<__int64,std::ratio<1,1> ><int,void>
	push	eax
	call	??$sleep_for@_JU?$ratio@$00$00@std@@@this_thread@std@@YAXABV?$duration@_JU?$ratio@$00$00@std@@@chrono@1@@Z ; std::this_thread::sleep_for<__int64,std::ratio<1,1> >
	add	esp, 4
; Line 115
	jmp	$LN2@f2
$LN1@f2:
; Line 116
	mov	esp, ebp
	pop	ebp
	ret	0
?f2@@YAPAXXZ ENDP					; f2
_TEXT	ENDS
; Function compile flags: /Odtp
_TEXT	SEGMENT
_in_progress$1 = -20					; size = 4
_i$2 = -16						; size = 4
_src$3 = -12						; size = 4
_dst$4 = -8						; size = 4
_stat$5 = -4						; size = 4
_bank$ = 8						; size = 4
_id$ = 12						; size = 4
?f1@@YAPAXPAUBank@@H@Z PROC				; f1
; File c:\users\tony\cpp-learning\tsx_test.cpp
; Line 30
	push	ebp
	mov	ebp, esp
	sub	esp, 20					; 00000014H
; Line 31
	mov	DWORD PTR _i$2[ebp], 0
	jmp	SHORT $LN4@f1
$LN2@f1:
	mov	eax, DWORD PTR _i$2[ebp]
	add	eax, 1
	mov	DWORD PTR _i$2[ebp], eax
$LN4@f1:
	cmp	DWORD PTR _i$2[ebp], 1000000000		; 3b9aca00H
	jge	$LN3@f1
; Line 32
	call	_rand
	mov	ecx, DWORD PTR _bank$[ebp]
	cdq
	idiv	DWORD PTR [ecx+4]
	mov	DWORD PTR _src$3[ebp], edx
; Line 33
	call	_rand
	mov	ecx, DWORD PTR _bank$[ebp]
	cdq
	idiv	DWORD PTR [ecx+4]
	mov	DWORD PTR _dst$4[ebp], edx
$LN5@f1:
; Line 34
	mov	edx, DWORD PTR _src$3[ebp]
	cmp	edx, DWORD PTR _dst$4[ebp]
	jne	SHORT $LN7@f1
; Line 35
	call	_rand
	mov	ecx, DWORD PTR _bank$[ebp]
	cdq
	idiv	DWORD PTR [ecx+4]
	mov	DWORD PTR _dst$4[ebp], edx
; Line 36
	jmp	SHORT $LN5@f1
$LN7@f1:
; Line 40
	mov	edx, 1
	test	edx, edx
	je	$LN8@f1
; Line 41
	xtest
	setne	al
	movzx	ecx, al
	mov	DWORD PTR _in_progress$1[ebp], ecx
; Line 42
	cmp	DWORD PTR _in_progress$1[ebp], 0
	je	SHORT $LN9@f1
	jmp	SHORT $LN7@f1
$LN9@f1:
; Line 43
	or	eax, -1
	xbegin $+6
	mov	DWORD PTR _stat$5[ebp], eax
; Line 44
	cmp	DWORD PTR _stat$5[ebp], -1
	jne	SHORT $LN10@f1
; Line 45
	mov	edx, DWORD PTR _bank$[ebp]
	mov	eax, DWORD PTR [edx]
	mov	ecx, DWORD PTR _src$3[ebp]
	mov	edx, DWORD PTR [eax+ecx*8]
	add	edx, 1
	mov	eax, DWORD PTR _bank$[ebp]
	mov	ecx, DWORD PTR [eax]
	mov	eax, DWORD PTR _src$3[ebp]
	mov	DWORD PTR [ecx+eax*8], edx
; Line 46
	mov	ecx, DWORD PTR _bank$[ebp]
	mov	edx, DWORD PTR [ecx]
	mov	eax, DWORD PTR _dst$4[ebp]
	mov	ecx, DWORD PTR [edx+eax*8]
	sub	ecx, 1
	mov	edx, DWORD PTR _bank$[ebp]
	mov	eax, DWORD PTR [edx]
	mov	edx, DWORD PTR _dst$4[ebp]
	mov	DWORD PTR [eax+edx*8], ecx
; Line 47
	xend
; Line 48
	mov	eax, DWORD PTR _id$[ebp]
	mov	ecx, DWORD PTR ?tx@@3PAJA		; tx
	mov	edx, DWORD PTR [ecx+eax*4]
	add	edx, 1
	mov	eax, DWORD PTR _id$[ebp]
	mov	ecx, DWORD PTR ?tx@@3PAJA		; tx
	mov	DWORD PTR [ecx+eax*4], edx
; Line 49
	jmp	$LN8@f1
; Line 50
	jmp	$LN11@f1
$LN10@f1:
; Line 51
	mov	edx, DWORD PTR _id$[ebp]
	mov	eax, DWORD PTR ?_abort@@3PAJA		; _abort
	mov	ecx, DWORD PTR [eax+edx*4]
	add	ecx, 1
	mov	edx, DWORD PTR _id$[ebp]
	mov	eax, DWORD PTR ?_abort@@3PAJA		; _abort
	mov	DWORD PTR [eax+edx*4], ecx
; Line 53
	cmp	DWORD PTR _stat$5[ebp], 0
	jne	SHORT $LN12@f1
; Line 54
	mov	ecx, DWORD PTR _id$[ebp]
	mov	edx, DWORD PTR ?zero@@3PAJA		; zero
	mov	eax, DWORD PTR [edx+ecx*4]
	add	eax, 1
	mov	ecx, DWORD PTR _id$[ebp]
	mov	edx, DWORD PTR ?zero@@3PAJA		; zero
	mov	DWORD PTR [edx+ecx*4], eax
; Line 56
	mov	eax, DWORD PTR _bank$[ebp]
	mov	ecx, DWORD PTR [eax]
	mov	edx, DWORD PTR _bank$[ebp]
	mov	eax, DWORD PTR [edx]
	mov	edx, DWORD PTR _src$3[ebp]
	mov	ecx, DWORD PTR [ecx+edx*8]
	mov	edx, DWORD PTR _dst$4[ebp]
	add	ecx, DWORD PTR [eax+edx*8]
	mov	DWORD PTR ?Touch@@3HC, ecx		; Touch
; Line 57
	jmp	$LN7@f1
$LN12@f1:
; Line 59
	mov	eax, DWORD PTR _stat$5[ebp]
	and	eax, 4
	je	SHORT $LN13@f1
; Line 60
	mov	ecx, DWORD PTR _id$[ebp]
	mov	edx, DWORD PTR ?conflict@@3PAJA		; conflict
	mov	eax, DWORD PTR [edx+ecx*4]
	add	eax, 1
	mov	ecx, DWORD PTR _id$[ebp]
	mov	edx, DWORD PTR ?conflict@@3PAJA		; conflict
	mov	DWORD PTR [edx+ecx*4], eax
$LN13@f1:
; Line 62
	mov	eax, DWORD PTR _stat$5[ebp]
	and	eax, 8
	je	SHORT $LN14@f1
; Line 63
	mov	ecx, DWORD PTR _id$[ebp]
	mov	edx, DWORD PTR ?capacity@@3PAJA		; capacity
	mov	eax, DWORD PTR [edx+ecx*4]
	add	eax, 1
	mov	ecx, DWORD PTR _id$[ebp]
	mov	edx, DWORD PTR ?capacity@@3PAJA		; capacity
	mov	DWORD PTR [edx+ecx*4], eax
$LN14@f1:
; Line 65
	mov	eax, DWORD PTR _stat$5[ebp]
	and	eax, 16					; 00000010H
	je	SHORT $LN15@f1
; Line 66
	mov	ecx, DWORD PTR _id$[ebp]
	mov	edx, DWORD PTR ?debug@@3PAJA		; debug
	mov	eax, DWORD PTR [edx+ecx*4]
	add	eax, 1
	mov	ecx, DWORD PTR _id$[ebp]
	mov	edx, DWORD PTR ?debug@@3PAJA		; debug
	mov	DWORD PTR [edx+ecx*4], eax
$LN15@f1:
; Line 68
	mov	eax, DWORD PTR _stat$5[ebp]
	and	eax, 2
	jne	SHORT $LN16@f1
; Line 69
	mov	ecx, DWORD PTR _id$[ebp]
	mov	edx, DWORD PTR ?failed@@3PAJA		; failed
	mov	eax, DWORD PTR [edx+ecx*4]
	add	eax, 1
	mov	ecx, DWORD PTR _id$[ebp]
	mov	edx, DWORD PTR ?failed@@3PAJA		; failed
	mov	DWORD PTR [edx+ecx*4], eax
; Line 70
	jmp	SHORT $LN8@f1
$LN16@f1:
; Line 72
	mov	eax, DWORD PTR _stat$5[ebp]
	and	eax, 32					; 00000020H
	je	SHORT $LN17@f1
; Line 73
	push	OFFSET $SG39186
	call	_printf
	add	esp, 4
; Line 74
	push	-1
	call	_exit
$LN17@f1:
; Line 76
	mov	ecx, DWORD PTR _stat$5[ebp]
	and	ecx, 1
	je	SHORT $LN11@f1
; Line 77
	push	OFFSET $SG39188
	call	_printf
	add	esp, 4
; Line 78
	push	-1
	call	_exit
$LN11@f1:
; Line 81
	jmp	$LN7@f1
$LN8@f1:
; Line 82
	jmp	$LN2@f1
$LN3@f1:
; Line 83
	xor	eax, eax
$LN19@f1:
; Line 84
	mov	esp, ebp
	pop	ebp
	ret	0
?f1@@YAPAXPAUBank@@H@Z ENDP				; f1
_TEXT	ENDS
; Function compile flags: /Odtp
;	COMDAT ??8std@@YA_NVid@thread@0@0@Z
_TEXT	SEGMENT
tv65 = -4						; size = 4
__Left$ = 8						; size = 4
__Right$ = 12						; size = 4
??8std@@YA_NVid@thread@0@0@Z PROC			; std::operator==, COMDAT
; File c:\program files (x86)\microsoft visual studio 14.0\vc\include\thread
; Line 215
	push	ebp
	mov	ebp, esp
	push	ecx
; Line 216
	mov	eax, DWORD PTR __Left$[ebp]
	cmp	eax, DWORD PTR __Right$[ebp]
	jne	SHORT $LN3@operator
	mov	DWORD PTR tv65[ebp], 1
	jmp	SHORT $LN4@operator
$LN3@operator:
	mov	DWORD PTR tv65[ebp], 0
$LN4@operator:
	mov	al, BYTE PTR tv65[ebp]
; Line 217
	mov	esp, ebp
	pop	ebp
	ret	0
??8std@@YA_NVid@thread@0@0@Z ENDP			; std::operator==
_TEXT	ENDS
; Function compile flags: /Odtp
;	COMDAT ??0id@thread@std@@AAE@I@Z
_TEXT	SEGMENT
_this$ = -4						; size = 4
__Other_id$ = 8						; size = 4
??0id@thread@std@@AAE@I@Z PROC				; std::thread::id::id, COMDAT
; _this$ = ecx
; File c:\program files (x86)\microsoft visual studio 14.0\vc\include\thread
; Line 168
	push	ebp
	mov	ebp, esp
	push	ecx
	mov	DWORD PTR _this$[ebp], ecx
; Line 167
	mov	eax, DWORD PTR _this$[ebp]
	mov	ecx, DWORD PTR __Other_id$[ebp]
	mov	DWORD PTR [eax], ecx
; Line 169
	mov	eax, DWORD PTR _this$[ebp]
	mov	esp, ebp
	pop	ebp
	ret	4
??0id@thread@std@@AAE@I@Z ENDP				; std::thread::id::id
_TEXT	ENDS
; Function compile flags: /Odtp
;	COMDAT ?sleep_until@this_thread@std@@YAXPBUxtime@@@Z
_TEXT	SEGMENT
__Abs_time$ = 8						; size = 4
?sleep_until@this_thread@std@@YAXPBUxtime@@@Z PROC	; std::this_thread::sleep_until, COMDAT
; File c:\program files (x86)\microsoft visual studio 14.0\vc\include\thread
; Line 128
	push	ebp
	mov	ebp, esp
; Line 129
	mov	eax, DWORD PTR __Abs_time$[ebp]
	push	eax
	call	__Thrd_sleep
	add	esp, 4
; Line 130
	pop	ebp
	ret	0
?sleep_until@this_thread@std@@YAXPBUxtime@@@Z ENDP	; std::this_thread::sleep_until
_TEXT	ENDS
; Function compile flags: /Odtp
;	COMDAT ?get_id@this_thread@std@@YA?AVid@thread@2@XZ
_TEXT	SEGMENT
___$ReturnUdt$ = 8					; size = 4
?get_id@this_thread@std@@YA?AVid@thread@2@XZ PROC	; std::this_thread::get_id, COMDAT
; File c:\program files (x86)\microsoft visual studio 14.0\vc\include\thread
; Line 205
	push	ebp
	mov	ebp, esp
; Line 206
	call	__Thrd_id
	push	eax
	mov	ecx, DWORD PTR ___$ReturnUdt$[ebp]
	call	??0id@thread@std@@AAE@I@Z		; std::thread::id::id
	mov	eax, DWORD PTR ___$ReturnUdt$[ebp]
; Line 207
	pop	ebp
	ret	0
?get_id@this_thread@std@@YA?AVid@thread@2@XZ ENDP	; std::this_thread::get_id
_TEXT	ENDS
; Function compile flags: /Odtp
;	COMDAT ?get_id@thread@std@@QBE?AVid@12@XZ
_TEXT	SEGMENT
_this$ = -4						; size = 4
___$ReturnUdt$ = 8					; size = 4
?get_id@thread@std@@QBE?AVid@12@XZ PROC			; std::thread::get_id, COMDAT
; _this$ = ecx
; File c:\program files (x86)\microsoft visual studio 14.0\vc\include\thread
; Line 200
	push	ebp
	mov	ebp, esp
	push	ecx
	mov	DWORD PTR _this$[ebp], ecx
; Line 201
	mov	eax, DWORD PTR _this$[ebp]
	mov	ecx, DWORD PTR [eax+4]
	push	ecx
	mov	ecx, DWORD PTR ___$ReturnUdt$[ebp]
	call	??0id@thread@std@@AAE@I@Z		; std::thread::id::id
	mov	eax, DWORD PTR ___$ReturnUdt$[ebp]
; Line 202
	mov	esp, ebp
	pop	ebp
	ret	4
?get_id@thread@std@@QBE?AVid@12@XZ ENDP			; std::thread::get_id
_TEXT	ENDS
; Function compile flags: /Odtp
;	COMDAT ?join@thread@std@@QAEXXZ
_TEXT	SEGMENT
$T1 = -16						; size = 4
$T2 = -12						; size = 4
_this$ = -8						; size = 4
__Is_null$ = -2						; size = 1
tv72 = -1						; size = 1
?join@thread@std@@QAEXXZ PROC				; std::thread::join, COMDAT
; _this$ = ecx
; File c:\program files (x86)\microsoft visual studio 14.0\vc\include\thread
; Line 186
	push	ebp
	mov	ebp, esp
	sub	esp, 16					; 00000010H
	mov	DWORD PTR _this$[ebp], ecx
; Line 187
	mov	ecx, DWORD PTR _this$[ebp]
	call	?joinable@thread@std@@QBE_NXZ		; std::thread::joinable
	movzx	eax, al
	test	eax, eax
	jne	SHORT $LN2@join
; Line 188
	push	1
	call	?_Throw_Cpp_error@std@@YAXH@Z		; std::_Throw_Cpp_error
	add	esp, 4
$LN2@join:
; Line 189
	mov	ecx, DWORD PTR _this$[ebp]
	cmp	DWORD PTR [ecx+4], 0
	jne	SHORT $LN7@join
	mov	BYTE PTR tv72[ebp], 1
	jmp	SHORT $LN8@join
$LN7@join:
	mov	BYTE PTR tv72[ebp], 0
$LN8@join:
	mov	dl, BYTE PTR tv72[ebp]
	mov	BYTE PTR __Is_null$[ebp], dl
; Line 190
	movzx	eax, BYTE PTR __Is_null$[ebp]
	test	eax, eax
	je	SHORT $LN3@join
; Line 191
	push	1
	call	?_Throw_Cpp_error@std@@YAXH@Z		; std::_Throw_Cpp_error
	add	esp, 4
$LN3@join:
; Line 192
	lea	ecx, DWORD PTR $T2[ebp]
	push	ecx
	call	?get_id@this_thread@std@@YA?AVid@thread@2@XZ ; std::this_thread::get_id
	add	esp, 4
	mov	edx, DWORD PTR [eax]
	push	edx
	lea	eax, DWORD PTR $T1[ebp]
	push	eax
	mov	ecx, DWORD PTR _this$[ebp]
	call	?get_id@thread@std@@QBE?AVid@12@XZ	; std::thread::get_id
	mov	ecx, DWORD PTR [eax]
	push	ecx
	call	??8std@@YA_NVid@thread@0@0@Z		; std::operator==
	add	esp, 8
	movzx	edx, al
	test	edx, edx
	je	SHORT $LN4@join
; Line 193
	push	5
	call	?_Throw_Cpp_error@std@@YAXH@Z		; std::_Throw_Cpp_error
	add	esp, 4
$LN4@join:
; Line 194
	push	0
	mov	eax, DWORD PTR _this$[ebp]
	mov	ecx, DWORD PTR [eax+4]
	push	ecx
	mov	edx, DWORD PTR [eax]
	push	edx
	call	__Thrd_join
	add	esp, 12					; 0000000cH
	test	eax, eax
	je	SHORT $LN5@join
; Line 195
	push	2
	call	?_Throw_Cpp_error@std@@YAXH@Z		; std::_Throw_Cpp_error
	add	esp, 4
$LN5@join:
; Line 196
	mov	eax, DWORD PTR _this$[ebp]
	mov	DWORD PTR [eax], 0
	mov	ecx, DWORD PTR _this$[ebp]
	mov	DWORD PTR [ecx+4], 0
; Line 197
	mov	esp, ebp
	pop	ebp
	ret	0
?join@thread@std@@QAEXXZ ENDP				; std::thread::join
_TEXT	ENDS
; Function compile flags: /Odtp
;	COMDAT ?joinable@thread@std@@QBE_NXZ
_TEXT	SEGMENT
_this$ = -8						; size = 4
tv67 = -4						; size = 4
?joinable@thread@std@@QBE_NXZ PROC			; std::thread::joinable, COMDAT
; _this$ = ecx
; File c:\program files (x86)\microsoft visual studio 14.0\vc\include\thread
; Line 80
	push	ebp
	mov	ebp, esp
	sub	esp, 8
	mov	DWORD PTR _this$[ebp], ecx
; Line 81
	mov	eax, DWORD PTR _this$[ebp]
	cmp	DWORD PTR [eax+4], 0
	je	SHORT $LN3@joinable
	mov	DWORD PTR tv67[ebp], 1
	jmp	SHORT $LN4@joinable
$LN3@joinable:
	mov	DWORD PTR tv67[ebp], 0
$LN4@joinable:
	mov	al, BYTE PTR tv67[ebp]
; Line 82
	mov	esp, ebp
	pop	ebp
	ret	0
?joinable@thread@std@@QBE_NXZ ENDP			; std::thread::joinable
_TEXT	ENDS
; Function compile flags: /Odtp
;	COMDAT ?_Call_func@_Pad@std@@CGIPAX@Z
_TEXT	SEGMENT
__Data$ = 8						; size = 4
?_Call_func@_Pad@std@@CGIPAX@Z PROC			; std::_Pad::_Call_func, COMDAT
; File c:\program files (x86)\microsoft visual studio 14.0\vc\include\thr\xthread
; Line 208
	push	ebp
	mov	ebp, esp
; Line 209
	mov	eax, DWORD PTR __Data$[ebp]
	mov	edx, DWORD PTR [eax]
	mov	ecx, DWORD PTR __Data$[ebp]
	mov	eax, DWORD PTR [edx]
	call	eax
; Line 210
	call	__Cnd_do_broadcast_at_thread_exit
; Line 211
	xor	eax, eax
; Line 212
	pop	ebp
	ret	4
?_Call_func@_Pad@std@@CGIPAX@Z ENDP			; std::_Pad::_Call_func
_TEXT	ENDS
; Function compile flags: /Odtp
;	COMDAT ?_Release@_Pad@std@@QAEXXZ
_TEXT	SEGMENT
_this$ = -4						; size = 4
?_Release@_Pad@std@@QAEXXZ PROC				; std::_Pad::_Release, COMDAT
; _this$ = ecx
; File c:\program files (x86)\microsoft visual studio 14.0\vc\include\thr\xthread
; Line 194
	push	ebp
	mov	ebp, esp
	push	ecx
	mov	DWORD PTR _this$[ebp], ecx
; Line 195
	mov	eax, DWORD PTR _this$[ebp]
	mov	ecx, DWORD PTR [eax+8]
	push	ecx
	call	?_Mtx_lockX@std@@YAHPAU_Mtx_internal_imp_t@@@Z ; std::_Mtx_lockX
	add	esp, 4
; Line 196
	mov	edx, DWORD PTR _this$[ebp]
	mov	BYTE PTR [edx+12], 1
; Line 197
	mov	eax, DWORD PTR _this$[ebp]
	mov	ecx, DWORD PTR [eax+4]
	push	ecx
	call	?_Cnd_signalX@std@@YAHPAU_Cnd_internal_imp_t@@@Z ; std::_Cnd_signalX
	add	esp, 4
; Line 198
	mov	edx, DWORD PTR _this$[ebp]
	mov	eax, DWORD PTR [edx+8]
	push	eax
	call	?_Mtx_unlockX@std@@YAHPAU_Mtx_internal_imp_t@@@Z ; std::_Mtx_unlockX
	add	esp, 4
; Line 199
	mov	esp, ebp
	pop	ebp
	ret	0
?_Release@_Pad@std@@QAEXXZ ENDP				; std::_Pad::_Release
_TEXT	ENDS
; Function compile flags: /Odtp
;	COMDAT ?_Launch@_Pad@std@@QAEXPAU_Thrd_imp_t@@@Z
_TEXT	SEGMENT
_this$ = -4						; size = 4
__Thr$ = 8						; size = 4
?_Launch@_Pad@std@@QAEXPAU_Thrd_imp_t@@@Z PROC		; std::_Pad::_Launch, COMDAT
; _this$ = ecx
; File c:\program files (x86)\microsoft visual studio 14.0\vc\include\thr\xthread
; Line 187
	push	ebp
	mov	ebp, esp
	push	ecx
	mov	DWORD PTR _this$[ebp], ecx
; Line 188
	mov	eax, DWORD PTR _this$[ebp]
	push	eax
	push	OFFSET ?_Call_func@_Pad@std@@CGIPAX@Z	; std::_Pad::_Call_func
	mov	ecx, DWORD PTR __Thr$[ebp]
	push	ecx
	call	?_Thrd_startX@std@@YAHPAU_Thrd_imp_t@@P6GIPAX@Z1@Z ; std::_Thrd_startX
	add	esp, 12					; 0000000cH
$LN2@Launch:
; Line 189
	mov	edx, DWORD PTR _this$[ebp]
	movzx	eax, BYTE PTR [edx+12]
	test	eax, eax
	jne	SHORT $LN1@Launch
; Line 190
	mov	ecx, DWORD PTR _this$[ebp]
	mov	edx, DWORD PTR [ecx+8]
	push	edx
	mov	eax, DWORD PTR _this$[ebp]
	mov	ecx, DWORD PTR [eax+4]
	push	ecx
	call	?_Cnd_waitX@std@@YAHPAU_Cnd_internal_imp_t@@PAU_Mtx_internal_imp_t@@@Z ; std::_Cnd_waitX
	add	esp, 8
	jmp	SHORT $LN2@Launch
$LN1@Launch:
; Line 191
	mov	esp, ebp
	pop	ebp
	ret	4
?_Launch@_Pad@std@@QAEXPAU_Thrd_imp_t@@@Z ENDP		; std::_Pad::_Launch
_TEXT	ENDS
; Function compile flags: /Odtp
;	COMDAT ??1_Pad@std@@QAE@XZ
_TEXT	SEGMENT
__Cnd_cleaner$ = -20					; size = 8
__Mtx_cleaner$ = -12					; size = 8
_this$ = -4						; size = 4
??1_Pad@std@@QAE@XZ PROC				; std::_Pad::~_Pad, COMDAT
; _this$ = ecx
; File c:\program files (x86)\microsoft visual studio 14.0\vc\include\thr\xthread
; Line 180
	push	ebp
	mov	ebp, esp
	sub	esp, 20					; 00000014H
	mov	DWORD PTR _this$[ebp], ecx
	mov	eax, DWORD PTR _this$[ebp]
	mov	DWORD PTR [eax], OFFSET ??_7_Pad@std@@6B@
; Line 181
	mov	ecx, DWORD PTR _this$[ebp]
	mov	edx, DWORD PTR [ecx+4]
	push	edx
	lea	ecx, DWORD PTR __Cnd_cleaner$[ebp]
	call	??0_Auto_cnd@std@@QAE@PAU_Cnd_internal_imp_t@@@Z ; std::_Auto_cnd::_Auto_cnd
; Line 182
	mov	eax, DWORD PTR _this$[ebp]
	mov	ecx, DWORD PTR [eax+8]
	push	ecx
	lea	ecx, DWORD PTR __Mtx_cleaner$[ebp]
	call	??0_Auto_mtx@std@@QAE@PAU_Mtx_internal_imp_t@@@Z ; std::_Auto_mtx::_Auto_mtx
; Line 183
	mov	edx, DWORD PTR _this$[ebp]
	mov	eax, DWORD PTR [edx+8]
	push	eax
	call	?_Mtx_unlockX@std@@YAHPAU_Mtx_internal_imp_t@@@Z ; std::_Mtx_unlockX
	add	esp, 4
; Line 184
	lea	ecx, DWORD PTR __Mtx_cleaner$[ebp]
	call	??1_Auto_mtx@std@@QAE@XZ		; std::_Auto_mtx::~_Auto_mtx
	lea	ecx, DWORD PTR __Cnd_cleaner$[ebp]
	call	??1_Auto_cnd@std@@QAE@XZ		; std::_Auto_cnd::~_Auto_cnd
	mov	esp, ebp
	pop	ebp
	ret	0
??1_Pad@std@@QAE@XZ ENDP				; std::_Pad::~_Pad
_TEXT	ENDS
; Function compile flags: /Odtp
;	COMDAT ??0_Pad@std@@QAE@XZ
_TEXT	SEGMENT
__Cnd_cleaner$ = -20					; size = 8
__Mtx_cleaner$ = -12					; size = 8
_this$ = -4						; size = 4
??0_Pad@std@@QAE@XZ PROC				; std::_Pad::_Pad, COMDAT
; _this$ = ecx
; File c:\program files (x86)\microsoft visual studio 14.0\vc\include\thr\xthread
; Line 167
	push	ebp
	mov	ebp, esp
	sub	esp, 20					; 00000014H
	mov	DWORD PTR _this$[ebp], ecx
; Line 168
	mov	eax, DWORD PTR _this$[ebp]
	mov	DWORD PTR [eax], OFFSET ??_7_Pad@std@@6B@
; Line 169
	mov	ecx, DWORD PTR _this$[ebp]
	add	ecx, 4
	push	ecx
	call	?_Cnd_initX@std@@YAHPAPAU_Cnd_internal_imp_t@@@Z ; std::_Cnd_initX
	add	esp, 4
; Line 170
	mov	edx, DWORD PTR _this$[ebp]
	mov	eax, DWORD PTR [edx+4]
	push	eax
	lea	ecx, DWORD PTR __Cnd_cleaner$[ebp]
	call	??0_Auto_cnd@std@@QAE@PAU_Cnd_internal_imp_t@@@Z ; std::_Auto_cnd::_Auto_cnd
; Line 171
	push	1
	mov	ecx, DWORD PTR _this$[ebp]
	add	ecx, 8
	push	ecx
	call	?_Mtx_initX@std@@YAHPAPAU_Mtx_internal_imp_t@@H@Z ; std::_Mtx_initX
	add	esp, 8
; Line 172
	mov	edx, DWORD PTR _this$[ebp]
	mov	eax, DWORD PTR [edx+8]
	push	eax
	lea	ecx, DWORD PTR __Mtx_cleaner$[ebp]
	call	??0_Auto_mtx@std@@QAE@PAU_Mtx_internal_imp_t@@@Z ; std::_Auto_mtx::_Auto_mtx
; Line 173
	mov	ecx, DWORD PTR _this$[ebp]
	mov	BYTE PTR [ecx+12], 0
; Line 174
	mov	edx, DWORD PTR _this$[ebp]
	mov	eax, DWORD PTR [edx+8]
	push	eax
	call	?_Mtx_lockX@std@@YAHPAU_Mtx_internal_imp_t@@@Z ; std::_Mtx_lockX
	add	esp, 4
; Line 175
	lea	ecx, DWORD PTR __Mtx_cleaner$[ebp]
	call	?_Release@_Auto_mtx@std@@QAEXXZ		; std::_Auto_mtx::_Release
; Line 176
	lea	ecx, DWORD PTR __Cnd_cleaner$[ebp]
	call	?_Release@_Auto_cnd@std@@QAEXXZ		; std::_Auto_cnd::_Release
; Line 177
	lea	ecx, DWORD PTR __Mtx_cleaner$[ebp]
	call	??1_Auto_mtx@std@@QAE@XZ		; std::_Auto_mtx::~_Auto_mtx
	lea	ecx, DWORD PTR __Cnd_cleaner$[ebp]
	call	??1_Auto_cnd@std@@QAE@XZ		; std::_Auto_cnd::~_Auto_cnd
	mov	eax, DWORD PTR _this$[ebp]
	mov	esp, ebp
	pop	ebp
	ret	0
??0_Pad@std@@QAE@XZ ENDP				; std::_Pad::_Pad
_TEXT	ENDS
; Function compile flags: /Odtp
;	COMDAT ?_Release@_Auto_mtx@std@@QAEXXZ
_TEXT	SEGMENT
_this$ = -4						; size = 4
?_Release@_Auto_mtx@std@@QAEXXZ PROC			; std::_Auto_mtx::_Release, COMDAT
; _this$ = ecx
; File c:\program files (x86)\microsoft visual studio 14.0\vc\include\thr\xthread
; Line 153
	push	ebp
	mov	ebp, esp
	push	ecx
	mov	DWORD PTR _this$[ebp], ecx
; Line 154
	mov	eax, DWORD PTR _this$[ebp]
	mov	BYTE PTR [eax], 0
; Line 155
	mov	esp, ebp
	pop	ebp
	ret	0
?_Release@_Auto_mtx@std@@QAEXXZ ENDP			; std::_Auto_mtx::_Release
_TEXT	ENDS
; Function compile flags: /Odtp
;	COMDAT ??1_Auto_mtx@std@@QAE@XZ
_TEXT	SEGMENT
_this$ = -4						; size = 4
??1_Auto_mtx@std@@QAE@XZ PROC				; std::_Auto_mtx::~_Auto_mtx, COMDAT
; _this$ = ecx
; File c:\program files (x86)\microsoft visual studio 14.0\vc\include\thr\xthread
; Line 147
	push	ebp
	mov	ebp, esp
	push	ecx
	mov	DWORD PTR _this$[ebp], ecx
; Line 148
	mov	eax, DWORD PTR _this$[ebp]
	movzx	ecx, BYTE PTR [eax]
	test	ecx, ecx
	je	SHORT $LN1@Auto_mtx
; Line 149
	mov	edx, DWORD PTR _this$[ebp]
	mov	eax, DWORD PTR [edx+4]
	push	eax
	call	__Mtx_destroy
	add	esp, 4
$LN1@Auto_mtx:
; Line 150
	mov	esp, ebp
	pop	ebp
	ret	0
??1_Auto_mtx@std@@QAE@XZ ENDP				; std::_Auto_mtx::~_Auto_mtx
_TEXT	ENDS
; Function compile flags: /Odtp
;	COMDAT ??0_Auto_mtx@std@@QAE@PAU_Mtx_internal_imp_t@@@Z
_TEXT	SEGMENT
_this$ = -4						; size = 4
__Mtxp$ = 8						; size = 4
??0_Auto_mtx@std@@QAE@PAU_Mtx_internal_imp_t@@@Z PROC	; std::_Auto_mtx::_Auto_mtx, COMDAT
; _this$ = ecx
; File c:\program files (x86)\microsoft visual studio 14.0\vc\include\thr\xthread
; Line 143
	push	ebp
	mov	ebp, esp
	push	ecx
	mov	DWORD PTR _this$[ebp], ecx
; Line 142
	mov	eax, DWORD PTR _this$[ebp]
	mov	BYTE PTR [eax], 1
	mov	ecx, DWORD PTR _this$[ebp]
	mov	edx, DWORD PTR __Mtxp$[ebp]
	mov	DWORD PTR [ecx+4], edx
; Line 144
	mov	eax, DWORD PTR _this$[ebp]
	mov	esp, ebp
	pop	ebp
	ret	4
??0_Auto_mtx@std@@QAE@PAU_Mtx_internal_imp_t@@@Z ENDP	; std::_Auto_mtx::_Auto_mtx
_TEXT	ENDS
; Function compile flags: /Odtp
;	COMDAT ?_Release@_Auto_cnd@std@@QAEXXZ
_TEXT	SEGMENT
_this$ = -4						; size = 4
?_Release@_Auto_cnd@std@@QAEXXZ PROC			; std::_Auto_cnd::_Release, COMDAT
; _this$ = ecx
; File c:\program files (x86)\microsoft visual studio 14.0\vc\include\thr\xthread
; Line 129
	push	ebp
	mov	ebp, esp
	push	ecx
	mov	DWORD PTR _this$[ebp], ecx
; Line 130
	mov	eax, DWORD PTR _this$[ebp]
	mov	BYTE PTR [eax], 0
; Line 131
	mov	esp, ebp
	pop	ebp
	ret	0
?_Release@_Auto_cnd@std@@QAEXXZ ENDP			; std::_Auto_cnd::_Release
_TEXT	ENDS
; Function compile flags: /Odtp
;	COMDAT ??1_Auto_cnd@std@@QAE@XZ
_TEXT	SEGMENT
_this$ = -4						; size = 4
??1_Auto_cnd@std@@QAE@XZ PROC				; std::_Auto_cnd::~_Auto_cnd, COMDAT
; _this$ = ecx
; File c:\program files (x86)\microsoft visual studio 14.0\vc\include\thr\xthread
; Line 123
	push	ebp
	mov	ebp, esp
	push	ecx
	mov	DWORD PTR _this$[ebp], ecx
; Line 124
	mov	eax, DWORD PTR _this$[ebp]
	movzx	ecx, BYTE PTR [eax]
	test	ecx, ecx
	je	SHORT $LN1@Auto_cnd
; Line 125
	mov	edx, DWORD PTR _this$[ebp]
	mov	eax, DWORD PTR [edx+4]
	push	eax
	call	__Cnd_destroy
	add	esp, 4
$LN1@Auto_cnd:
; Line 126
	mov	esp, ebp
	pop	ebp
	ret	0
??1_Auto_cnd@std@@QAE@XZ ENDP				; std::_Auto_cnd::~_Auto_cnd
_TEXT	ENDS
; Function compile flags: /Odtp
;	COMDAT ??0_Auto_cnd@std@@QAE@PAU_Cnd_internal_imp_t@@@Z
_TEXT	SEGMENT
_this$ = -4						; size = 4
__Cndp$ = 8						; size = 4
??0_Auto_cnd@std@@QAE@PAU_Cnd_internal_imp_t@@@Z PROC	; std::_Auto_cnd::_Auto_cnd, COMDAT
; _this$ = ecx
; File c:\program files (x86)\microsoft visual studio 14.0\vc\include\thr\xthread
; Line 119
	push	ebp
	mov	ebp, esp
	push	ecx
	mov	DWORD PTR _this$[ebp], ecx
; Line 118
	mov	eax, DWORD PTR _this$[ebp]
	mov	BYTE PTR [eax], 1
	mov	ecx, DWORD PTR _this$[ebp]
	mov	edx, DWORD PTR __Cndp$[ebp]
	mov	DWORD PTR [ecx+4], edx
; Line 120
	mov	eax, DWORD PTR _this$[ebp]
	mov	esp, ebp
	pop	ebp
	ret	4
??0_Auto_cnd@std@@QAE@PAU_Cnd_internal_imp_t@@@Z ENDP	; std::_Auto_cnd::_Auto_cnd
_TEXT	ENDS
; Function compile flags: /Odtp
;	COMDAT ?_Cnd_signalX@std@@YAHPAU_Cnd_internal_imp_t@@@Z
_TEXT	SEGMENT
__Cnd$ = 8						; size = 4
?_Cnd_signalX@std@@YAHPAU_Cnd_internal_imp_t@@@Z PROC	; std::_Cnd_signalX, COMDAT
; File c:\program files (x86)\microsoft visual studio 14.0\vc\include\thr\xthread
; Line 110
	push	ebp
	mov	ebp, esp
; Line 111
	mov	eax, DWORD PTR __Cnd$[ebp]
	push	eax
	call	__Cnd_signal
	add	esp, 4
	push	eax
	call	?_Check_C_return@std@@YAHH@Z		; std::_Check_C_return
	add	esp, 4
; Line 112
	pop	ebp
	ret	0
?_Cnd_signalX@std@@YAHPAU_Cnd_internal_imp_t@@@Z ENDP	; std::_Cnd_signalX
_TEXT	ENDS
; Function compile flags: /Odtp
;	COMDAT ?_Cnd_waitX@std@@YAHPAU_Cnd_internal_imp_t@@PAU_Mtx_internal_imp_t@@@Z
_TEXT	SEGMENT
__Cnd$ = 8						; size = 4
__Mtx$ = 12						; size = 4
?_Cnd_waitX@std@@YAHPAU_Cnd_internal_imp_t@@PAU_Mtx_internal_imp_t@@@Z PROC ; std::_Cnd_waitX, COMDAT
; File c:\program files (x86)\microsoft visual studio 14.0\vc\include\thr\xthread
; Line 94
	push	ebp
	mov	ebp, esp
; Line 95
	mov	eax, DWORD PTR __Mtx$[ebp]
	push	eax
	mov	ecx, DWORD PTR __Cnd$[ebp]
	push	ecx
	call	__Cnd_wait
	add	esp, 8
	push	eax
	call	?_Check_C_return@std@@YAHH@Z		; std::_Check_C_return
	add	esp, 4
; Line 96
	pop	ebp
	ret	0
?_Cnd_waitX@std@@YAHPAU_Cnd_internal_imp_t@@PAU_Mtx_internal_imp_t@@@Z ENDP ; std::_Cnd_waitX
_TEXT	ENDS
; Function compile flags: /Odtp
;	COMDAT ?_Cnd_initX@std@@YAHPAPAU_Cnd_internal_imp_t@@@Z
_TEXT	SEGMENT
__Cnd$ = 8						; size = 4
?_Cnd_initX@std@@YAHPAPAU_Cnd_internal_imp_t@@@Z PROC	; std::_Cnd_initX, COMDAT
; File c:\program files (x86)\microsoft visual studio 14.0\vc\include\thr\xthread
; Line 89
	push	ebp
	mov	ebp, esp
; Line 90
	mov	eax, DWORD PTR __Cnd$[ebp]
	push	eax
	call	__Cnd_init
	add	esp, 4
	push	eax
	call	?_Check_C_return@std@@YAHH@Z		; std::_Check_C_return
	add	esp, 4
; Line 91
	pop	ebp
	ret	0
?_Cnd_initX@std@@YAHPAPAU_Cnd_internal_imp_t@@@Z ENDP	; std::_Cnd_initX
_TEXT	ENDS
; Function compile flags: /Odtp
;	COMDAT ?_Mtx_unlockX@std@@YAHPAU_Mtx_internal_imp_t@@@Z
_TEXT	SEGMENT
__Mtx$ = 8						; size = 4
?_Mtx_unlockX@std@@YAHPAU_Mtx_internal_imp_t@@@Z PROC	; std::_Mtx_unlockX, COMDAT
; File c:\program files (x86)\microsoft visual studio 14.0\vc\include\thr\xthread
; Line 84
	push	ebp
	mov	ebp, esp
; Line 85
	mov	eax, DWORD PTR __Mtx$[ebp]
	push	eax
	call	__Mtx_unlock
	add	esp, 4
	push	eax
	call	?_Check_C_return@std@@YAHH@Z		; std::_Check_C_return
	add	esp, 4
; Line 86
	pop	ebp
	ret	0
?_Mtx_unlockX@std@@YAHPAU_Mtx_internal_imp_t@@@Z ENDP	; std::_Mtx_unlockX
_TEXT	ENDS
; Function compile flags: /Odtp
;	COMDAT ?_Mtx_lockX@std@@YAHPAU_Mtx_internal_imp_t@@@Z
_TEXT	SEGMENT
__Mtx$ = 8						; size = 4
?_Mtx_lockX@std@@YAHPAU_Mtx_internal_imp_t@@@Z PROC	; std::_Mtx_lockX, COMDAT
; File c:\program files (x86)\microsoft visual studio 14.0\vc\include\thr\xthread
; Line 69
	push	ebp
	mov	ebp, esp
; Line 70
	mov	eax, DWORD PTR __Mtx$[ebp]
	push	eax
	call	__Mtx_lock
	add	esp, 4
	push	eax
	call	?_Check_C_return@std@@YAHH@Z		; std::_Check_C_return
	add	esp, 4
; Line 71
	pop	ebp
	ret	0
?_Mtx_lockX@std@@YAHPAU_Mtx_internal_imp_t@@@Z ENDP	; std::_Mtx_lockX
_TEXT	ENDS
; Function compile flags: /Odtp
;	COMDAT ?_Mtx_initX@std@@YAHPAPAU_Mtx_internal_imp_t@@H@Z
_TEXT	SEGMENT
__Mtx$ = 8						; size = 4
__Type$ = 12						; size = 4
?_Mtx_initX@std@@YAHPAPAU_Mtx_internal_imp_t@@H@Z PROC	; std::_Mtx_initX, COMDAT
; File c:\program files (x86)\microsoft visual studio 14.0\vc\include\thr\xthread
; Line 64
	push	ebp
	mov	ebp, esp
; Line 65
	mov	eax, DWORD PTR __Type$[ebp]
	push	eax
	mov	ecx, DWORD PTR __Mtx$[ebp]
	push	ecx
	call	__Mtx_init
	add	esp, 8
	push	eax
	call	?_Check_C_return@std@@YAHH@Z		; std::_Check_C_return
	add	esp, 4
; Line 66
	pop	ebp
	ret	0
?_Mtx_initX@std@@YAHPAPAU_Mtx_internal_imp_t@@H@Z ENDP	; std::_Mtx_initX
_TEXT	ENDS
; Function compile flags: /Odtp
;	COMDAT ?_Thrd_startX@std@@YAHPAU_Thrd_imp_t@@P6GIPAX@Z1@Z
_TEXT	SEGMENT
tv70 = -8						; size = 4
__Res$ = -4						; size = 4
__Thr$ = 8						; size = 4
__Fp$ = 12						; size = 4
__Arg$ = 16						; size = 4
?_Thrd_startX@std@@YAHPAU_Thrd_imp_t@@P6GIPAX@Z1@Z PROC	; std::_Thrd_startX, COMDAT
; File c:\program files (x86)\microsoft visual studio 14.0\vc\include\thr\xthread
; Line 48
	push	ebp
	mov	ebp, esp
	sub	esp, 8
; Line 49
	mov	eax, DWORD PTR __Arg$[ebp]
	push	eax
	mov	ecx, DWORD PTR __Fp$[ebp]
	push	ecx
	mov	edx, DWORD PTR __Thr$[ebp]
	push	edx
	call	__Thrd_start
	add	esp, 12					; 0000000cH
	mov	DWORD PTR __Res$[ebp], eax
; Line 50
	cmp	DWORD PTR __Res$[ebp], 4
	je	SHORT $LN3@Thrd_start
	mov	eax, DWORD PTR __Res$[ebp]
	mov	DWORD PTR tv70[ebp], eax
	jmp	SHORT $LN4@Thrd_start
$LN3@Thrd_start:
	mov	DWORD PTR tv70[ebp], 1
$LN4@Thrd_start:
	mov	ecx, DWORD PTR tv70[ebp]
	push	ecx
	call	?_Check_C_return@std@@YAHH@Z		; std::_Check_C_return
	add	esp, 4
; Line 51
	mov	esp, ebp
	pop	ebp
	ret	0
?_Thrd_startX@std@@YAHPAU_Thrd_imp_t@@P6GIPAX@Z1@Z ENDP	; std::_Thrd_startX
_TEXT	ENDS
; Function compile flags: /Odtp
;	COMDAT ?_Check_C_return@std@@YAHH@Z
_TEXT	SEGMENT
__Res$ = 8						; size = 4
?_Check_C_return@std@@YAHH@Z PROC			; std::_Check_C_return, COMDAT
; File c:\program files (x86)\microsoft visual studio 14.0\vc\include\thr\xthread
; Line 33
	push	ebp
	mov	ebp, esp
; Line 34
	cmp	DWORD PTR __Res$[ebp], 0
	je	SHORT $LN2@Check_C_re
; Line 35
	mov	eax, DWORD PTR __Res$[ebp]
	push	eax
	call	?_Throw_C_error@std@@YAXH@Z		; std::_Throw_C_error
	add	esp, 4
$LN2@Check_C_re:
; Line 36
	mov	eax, DWORD PTR __Res$[ebp]
; Line 37
	pop	ebp
	ret	0
?_Check_C_return@std@@YAHH@Z ENDP			; std::_Check_C_return
_TEXT	ENDS
; Function compile flags: /Odtp
;	COMDAT ?zero@?$duration@_JU?$ratio@$00$00@std@@@chrono@std@@SA?AV123@XZ
_TEXT	SEGMENT
$T1 = -8						; size = 8
